
LLMC_DAC_bootloader.elf:     file format elf32-littlearm

Sections:
Idx Name          Size      VMA       LMA       File off  Algn
  0 .isr_vector   000002ac  08000000  08000000  00010000  2**0
                  CONTENTS, ALLOC, LOAD, READONLY, DATA
  1 .text         00005e04  080002ac  080002ac  000102ac  2**2
                  CONTENTS, ALLOC, LOAD, READONLY, CODE
  2 .rodata       00000010  080060b0  080060b0  000160b0  2**2
                  CONTENTS, ALLOC, LOAD, READONLY, DATA
  3 .init_array   00000004  080060c0  080060c0  000160c0  2**2
                  CONTENTS, ALLOC, LOAD, DATA
  4 .fini_array   00000004  080060c4  080060c4  000160c4  2**2
                  CONTENTS, ALLOC, LOAD, DATA
  5 .data         00000018  24000000  080060c8  00020000  2**2
                  CONTENTS, ALLOC, LOAD, DATA
  6 .bss          00000134  24000018  080060e0  00020018  2**2
                  ALLOC
  7 ._user_heap_stack 00000604  2400014c  080060e0  0002014c  2**0
                  ALLOC
  8 .ARM.attributes 0000002e  00000000  00000000  00020018  2**0
                  CONTENTS, READONLY
  9 .debug_info   0001d5ea  00000000  00000000  00020046  2**0
                  CONTENTS, READONLY, DEBUGGING, OCTETS
 10 .debug_abbrev 000030ab  00000000  00000000  0003d630  2**0
                  CONTENTS, READONLY, DEBUGGING, OCTETS
 11 .debug_aranges 00000f08  00000000  00000000  000406e0  2**3
                  CONTENTS, READONLY, DEBUGGING, OCTETS
 12 .debug_ranges 00000df0  00000000  00000000  000415e8  2**3
                  CONTENTS, READONLY, DEBUGGING, OCTETS
 13 .debug_macro  000309f7  00000000  00000000  000423d8  2**0
                  CONTENTS, READONLY, DEBUGGING, OCTETS
 14 .debug_line   000129aa  00000000  00000000  00072dcf  2**0
                  CONTENTS, READONLY, DEBUGGING, OCTETS
 15 .debug_str    0013e7c9  00000000  00000000  00085779  2**0
                  CONTENTS, READONLY, DEBUGGING, OCTETS
 16 .comment      00000053  00000000  00000000  001c3f42  2**0
                  CONTENTS, READONLY
 17 .debug_frame  00003e4c  00000000  00000000  001c3f98  2**2
                  CONTENTS, READONLY, DEBUGGING, OCTETS

Disassembly of section .text:

080002ac <__do_global_dtors_aux>:
 80002ac:	b510      	push	{r4, lr}
 80002ae:	4c05      	ldr	r4, [pc, #20]	; (80002c4 <__do_global_dtors_aux+0x18>)
 80002b0:	7823      	ldrb	r3, [r4, #0]
 80002b2:	b933      	cbnz	r3, 80002c2 <__do_global_dtors_aux+0x16>
 80002b4:	4b04      	ldr	r3, [pc, #16]	; (80002c8 <__do_global_dtors_aux+0x1c>)
 80002b6:	b113      	cbz	r3, 80002be <__do_global_dtors_aux+0x12>
 80002b8:	4804      	ldr	r0, [pc, #16]	; (80002cc <__do_global_dtors_aux+0x20>)
 80002ba:	f3af 8000 	nop.w
 80002be:	2301      	movs	r3, #1
 80002c0:	7023      	strb	r3, [r4, #0]
 80002c2:	bd10      	pop	{r4, pc}
 80002c4:	24000018 	.word	0x24000018
 80002c8:	00000000 	.word	0x00000000
 80002cc:	08006098 	.word	0x08006098

080002d0 <frame_dummy>:
 80002d0:	b508      	push	{r3, lr}
 80002d2:	4b03      	ldr	r3, [pc, #12]	; (80002e0 <frame_dummy+0x10>)
 80002d4:	b11b      	cbz	r3, 80002de <frame_dummy+0xe>
 80002d6:	4903      	ldr	r1, [pc, #12]	; (80002e4 <frame_dummy+0x14>)
 80002d8:	4803      	ldr	r0, [pc, #12]	; (80002e8 <frame_dummy+0x18>)
 80002da:	f3af 8000 	nop.w
 80002de:	bd08      	pop	{r3, pc}
 80002e0:	00000000 	.word	0x00000000
 80002e4:	2400001c 	.word	0x2400001c
 80002e8:	08006098 	.word	0x08006098

080002ec <W25Q128_OCTO_SPI_Init>:
#include "W25Q128.h"
#include "octospi.h"
uint8_t flash_locked = 0;
/* OCTO SPI Initial Function */
HAL_StatusTypeDef W25Q128_OCTO_SPI_Init(OSPI_HandleTypeDef* hospi, uint8_t WE)
{
 80002ec:	b580      	push	{r7, lr}
 80002ee:	b082      	sub	sp, #8
 80002f0:	af00      	add	r7, sp, #0
 80002f2:	6078      	str	r0, [r7, #4]
 80002f4:	460b      	mov	r3, r1
 80002f6:	70fb      	strb	r3, [r7, #3]
	if (HAL_OSPI_DeInit(hospi) != HAL_OK) {
 80002f8:	6878      	ldr	r0, [r7, #4]
 80002fa:	f002 f80f 	bl	800231c <HAL_OSPI_DeInit>
 80002fe:	4603      	mov	r3, r0
 8000300:	2b00      	cmp	r3, #0
 8000302:	d001      	beq.n	8000308 <W25Q128_OCTO_SPI_Init+0x1c>
	    return HAL_ERROR;
 8000304:	2301      	movs	r3, #1
 8000306:	e028      	b.n	800035a <W25Q128_OCTO_SPI_Init+0x6e>
	}

	MX_OCTOSPI1_Init();
 8000308:	f000 ff84 	bl	8001214 <MX_OCTOSPI1_Init>

	if (W25Q128_OSPI_ResetChip(hospi) != HAL_OK) {
 800030c:	6878      	ldr	r0, [r7, #4]
 800030e:	f000 f828 	bl	8000362 <W25Q128_OSPI_ResetChip>
 8000312:	4603      	mov	r3, r0
 8000314:	2b00      	cmp	r3, #0
 8000316:	d001      	beq.n	800031c <W25Q128_OCTO_SPI_Init+0x30>
	    return HAL_ERROR;
 8000318:	2301      	movs	r3, #1
 800031a:	e01e      	b.n	800035a <W25Q128_OCTO_SPI_Init+0x6e>
	}
	if (W25Q128_OSPI_Configuration(hospi) != HAL_OK) {
 800031c:	6878      	ldr	r0, [r7, #4]
 800031e:	f000 f89d 	bl	800045c <W25Q128_OSPI_Configuration>
 8000322:	4603      	mov	r3, r0
 8000324:	2b00      	cmp	r3, #0
 8000326:	d001      	beq.n	800032c <W25Q128_OCTO_SPI_Init+0x40>
        return HAL_ERROR;
 8000328:	2301      	movs	r3, #1
 800032a:	e016      	b.n	800035a <W25Q128_OCTO_SPI_Init+0x6e>
    }
	HAL_Delay(1);
 800032c:	2001      	movs	r0, #1
 800032e:	f001 fadf 	bl	80018f0 <HAL_Delay>
	if (W25Q128_OSPI_AutoPollingMemReady(hospi) != HAL_OK) {
 8000332:	6878      	ldr	r0, [r7, #4]
 8000334:	f000 f9de 	bl	80006f4 <W25Q128_OSPI_AutoPollingMemReady>
 8000338:	4603      	mov	r3, r0
 800033a:	2b00      	cmp	r3, #0
 800033c:	d001      	beq.n	8000342 <W25Q128_OCTO_SPI_Init+0x56>
        return HAL_ERROR;
 800033e:	2301      	movs	r3, #1
 8000340:	e00b      	b.n	800035a <W25Q128_OCTO_SPI_Init+0x6e>
    }
	if(WE)
 8000342:	78fb      	ldrb	r3, [r7, #3]
 8000344:	2b00      	cmp	r3, #0
 8000346:	d007      	beq.n	8000358 <W25Q128_OCTO_SPI_Init+0x6c>
	{
		if (W25Q128_OSPI_WriteEnable(hospi) != HAL_OK) {
 8000348:	6878      	ldr	r0, [r7, #4]
 800034a:	f000 f945 	bl	80005d8 <W25Q128_OSPI_WriteEnable>
 800034e:	4603      	mov	r3, r0
 8000350:	2b00      	cmp	r3, #0
 8000352:	d001      	beq.n	8000358 <W25Q128_OCTO_SPI_Init+0x6c>
			return HAL_ERROR;
 8000354:	2301      	movs	r3, #1
 8000356:	e000      	b.n	800035a <W25Q128_OCTO_SPI_Init+0x6e>
		}
	}
    return HAL_OK;
 8000358:	2300      	movs	r3, #0
}
 800035a:	4618      	mov	r0, r3
 800035c:	3708      	adds	r7, #8
 800035e:	46bd      	mov	sp, r7
 8000360:	bd80      	pop	{r7, pc}

08000362 <W25Q128_OSPI_ResetChip>:

/* Reset Chip Function */
HAL_StatusTypeDef W25Q128_OSPI_ResetChip(OSPI_HandleTypeDef* hospi)
{
 8000362:	b580      	push	{r7, lr}
 8000364:	b096      	sub	sp, #88	; 0x58
 8000366:	af00      	add	r7, sp, #0
 8000368:	6078      	str	r0, [r7, #4]
    OSPI_RegularCmdTypeDef sCommand={0};
 800036a:	f107 0308 	add.w	r3, r7, #8
 800036e:	2250      	movs	r2, #80	; 0x50
 8000370:	2100      	movs	r1, #0
 8000372:	4618      	mov	r0, r3
 8000374:	f005 fe88 	bl	8006088 <memset>

    /* Enable Reset --------------------------- */
	/* Common Commands*/
	sCommand.OperationType      		= HAL_OSPI_OPTYPE_COMMON_CFG; 				/* Common configuration (indirect or auto-polling mode) */
 8000378:	2300      	movs	r3, #0
 800037a:	60bb      	str	r3, [r7, #8]
	sCommand.FlashId            		= HAL_OSPI_FLASH_ID_1; 						/* Set The OCTO SPI Flash ID */
 800037c:	2300      	movs	r3, #0
 800037e:	60fb      	str	r3, [r7, #12]
	sCommand.InstructionDtrMode 		= HAL_OSPI_INSTRUCTION_DTR_DISABLE; 		/* Disable Instruction DDR/DTR Mode */
 8000380:	2300      	movs	r3, #0
 8000382:	61fb      	str	r3, [r7, #28]
	sCommand.AddressDtrMode     		= HAL_OSPI_ADDRESS_DTR_DISABLE; 			/* Disable Address DDR/DTR Mode */
 8000384:	2300      	movs	r3, #0
 8000386:	62fb      	str	r3, [r7, #44]	; 0x2c
	sCommand.DataDtrMode				= HAL_OSPI_DATA_DTR_DISABLE; 				/* Disable Data DDR/DTR Mode */
 8000388:	2300      	movs	r3, #0
 800038a:	64bb      	str	r3, [r7, #72]	; 0x48
	sCommand.DQSMode            		= HAL_OSPI_DQS_DISABLE; 					/* Disable Data Strobe */
 800038c:	2300      	movs	r3, #0
 800038e:	653b      	str	r3, [r7, #80]	; 0x50
	sCommand.SIOOMode          			= HAL_OSPI_SIOO_INST_EVERY_CMD; 			/* SIOO Mode: Send instruction on every transaction */
 8000390:	2300      	movs	r3, #0
 8000392:	657b      	str	r3, [r7, #84]	; 0x54
	sCommand.AlternateBytesMode 		= HAL_OSPI_ALTERNATE_BYTES_NONE; 			/* Disable Alternate Bytes Mode */
 8000394:	2300      	movs	r3, #0
 8000396:	637b      	str	r3, [r7, #52]	; 0x34
	sCommand.AlternateBytes				= HAL_OSPI_ALTERNATE_BYTES_NONE; 			/* Alternate Bytes = 0 */
 8000398:	2300      	movs	r3, #0
 800039a:	633b      	str	r3, [r7, #48]	; 0x30
	sCommand.AlternateBytesSize			= HAL_OSPI_ALTERNATE_BYTES_NONE; 			/* Alternate Bytes Size = 0 */
 800039c:	2300      	movs	r3, #0
 800039e:	63bb      	str	r3, [r7, #56]	; 0x38
	sCommand.AlternateBytesDtrMode		= HAL_OSPI_ALTERNATE_BYTES_DTR_DISABLE; 	/* Disable Alternate Bytes DDR/DTR Mode */
 80003a0:	2300      	movs	r3, #0
 80003a2:	63fb      	str	r3, [r7, #60]	; 0x3c
	sCommand.InstructionMode   			= HAL_OSPI_INSTRUCTION_1_LINE;				/* Instruction on a single line */
 80003a4:	2301      	movs	r3, #1
 80003a6:	617b      	str	r3, [r7, #20]
	sCommand.InstructionSize    		= HAL_OSPI_INSTRUCTION_8_BITS;				/* 8-bit Instruction */
 80003a8:	2300      	movs	r3, #0
 80003aa:	61bb      	str	r3, [r7, #24]
	sCommand.AddressSize 				= HAL_OSPI_ADDRESS_24_BITS;					/* 24-bit Address */
 80003ac:	f44f 5300 	mov.w	r3, #8192	; 0x2000
 80003b0:	62bb      	str	r3, [r7, #40]	; 0x28
	/* Instruction */
	sCommand.Instruction 				= W25Q_ENABLE_RST_CMD;						/* What We Do? */
 80003b2:	2366      	movs	r3, #102	; 0x66
 80003b4:	613b      	str	r3, [r7, #16]
	/* Address */
	sCommand.AddressMode       			= HAL_OSPI_ADDRESS_NONE;					/* Define Address Lines: No Address */
 80003b6:	2300      	movs	r3, #0
 80003b8:	627b      	str	r3, [r7, #36]	; 0x24
	sCommand.Address					= 0;										/* Byte Address */
 80003ba:	2300      	movs	r3, #0
 80003bc:	623b      	str	r3, [r7, #32]
	/* Data */
	sCommand.DataMode          			= HAL_OSPI_DATA_NONE;						/* Define Data Lines: No Data */
 80003be:	2300      	movs	r3, #0
 80003c0:	643b      	str	r3, [r7, #64]	; 0x40
	sCommand.DummyCycles       			= 0;										/* Bytes Send With No Data */
 80003c2:	2300      	movs	r3, #0
 80003c4:	64fb      	str	r3, [r7, #76]	; 0x4c
	sCommand.NbData            			= 0;										/* Bytes Send With Data */
 80003c6:	2300      	movs	r3, #0
 80003c8:	647b      	str	r3, [r7, #68]	; 0x44

    if (HAL_OSPI_Command(hospi, &sCommand, HAL_OSPI_TIMEOUT_DEFAULT_VALUE) != HAL_OK) {
 80003ca:	f107 0308 	add.w	r3, r7, #8
 80003ce:	f241 3288 	movw	r2, #5000	; 0x1388
 80003d2:	4619      	mov	r1, r3
 80003d4:	6878      	ldr	r0, [r7, #4]
 80003d6:	f001 ffc8 	bl	800236a <HAL_OSPI_Command>
 80003da:	4603      	mov	r3, r0
 80003dc:	2b00      	cmp	r3, #0
 80003de:	d001      	beq.n	80003e4 <W25Q128_OSPI_ResetChip+0x82>
        return HAL_ERROR;
 80003e0:	2301      	movs	r3, #1
 80003e2:	e036      	b.n	8000452 <W25Q128_OSPI_ResetChip+0xf0>
    }

    /* Reset Device --------------------------- */
	/* Common Commands*/
	sCommand.OperationType      		= HAL_OSPI_OPTYPE_COMMON_CFG; 				/* Common configuration (indirect or auto-polling mode) */
 80003e4:	2300      	movs	r3, #0
 80003e6:	60bb      	str	r3, [r7, #8]
	sCommand.FlashId            		= HAL_OSPI_FLASH_ID_1; 						/* Set The OCTO SPI Flash ID */
 80003e8:	2300      	movs	r3, #0
 80003ea:	60fb      	str	r3, [r7, #12]
	sCommand.InstructionDtrMode 		= HAL_OSPI_INSTRUCTION_DTR_DISABLE; 		/* Disable Instruction DDR/DTR Mode */
 80003ec:	2300      	movs	r3, #0
 80003ee:	61fb      	str	r3, [r7, #28]
	sCommand.AddressDtrMode     		= HAL_OSPI_ADDRESS_DTR_DISABLE; 			/* Disable Address DDR/DTR Mode */
 80003f0:	2300      	movs	r3, #0
 80003f2:	62fb      	str	r3, [r7, #44]	; 0x2c
	sCommand.DataDtrMode				= HAL_OSPI_DATA_DTR_DISABLE; 				/* Disable Data DDR/DTR Mode */
 80003f4:	2300      	movs	r3, #0
 80003f6:	64bb      	str	r3, [r7, #72]	; 0x48
	sCommand.DQSMode            		= HAL_OSPI_DQS_DISABLE; 					/* Disable Data Strobe */
 80003f8:	2300      	movs	r3, #0
 80003fa:	653b      	str	r3, [r7, #80]	; 0x50
	sCommand.SIOOMode          			= HAL_OSPI_SIOO_INST_EVERY_CMD; 			/* SIOO Mode: Send instruction on every transaction */
 80003fc:	2300      	movs	r3, #0
 80003fe:	657b      	str	r3, [r7, #84]	; 0x54
	sCommand.AlternateBytesMode 		= HAL_OSPI_ALTERNATE_BYTES_NONE; 			/* Disable Alternate Bytes Mode */
 8000400:	2300      	movs	r3, #0
 8000402:	637b      	str	r3, [r7, #52]	; 0x34
	sCommand.AlternateBytes				= HAL_OSPI_ALTERNATE_BYTES_NONE; 			/* Alternate Bytes = 0 */
 8000404:	2300      	movs	r3, #0
 8000406:	633b      	str	r3, [r7, #48]	; 0x30
	sCommand.AlternateBytesSize			= HAL_OSPI_ALTERNATE_BYTES_NONE; 			/* Alternate Bytes Size = 0 */
 8000408:	2300      	movs	r3, #0
 800040a:	63bb      	str	r3, [r7, #56]	; 0x38
	sCommand.AlternateBytesDtrMode		= HAL_OSPI_ALTERNATE_BYTES_DTR_DISABLE; 	/* Disable Alternate Bytes DDR/DTR Mode */
 800040c:	2300      	movs	r3, #0
 800040e:	63fb      	str	r3, [r7, #60]	; 0x3c
	sCommand.InstructionMode   			= HAL_OSPI_INSTRUCTION_1_LINE;				/* Instruction on a single line */
 8000410:	2301      	movs	r3, #1
 8000412:	617b      	str	r3, [r7, #20]
	sCommand.InstructionSize    		= HAL_OSPI_INSTRUCTION_8_BITS;				/* 8-bit Instruction */
 8000414:	2300      	movs	r3, #0
 8000416:	61bb      	str	r3, [r7, #24]
	sCommand.AddressSize 				= HAL_OSPI_ADDRESS_24_BITS;					/* 24-bit Address */
 8000418:	f44f 5300 	mov.w	r3, #8192	; 0x2000
 800041c:	62bb      	str	r3, [r7, #40]	; 0x28
	/* Instruction */
	sCommand.Instruction 				= W25Q_RESET_CMD;							/* What We Do? */
 800041e:	2399      	movs	r3, #153	; 0x99
 8000420:	613b      	str	r3, [r7, #16]
	/* Address */
	sCommand.AddressMode       			= HAL_OSPI_ADDRESS_NONE;					/* Define Address Lines: No Address */
 8000422:	2300      	movs	r3, #0
 8000424:	627b      	str	r3, [r7, #36]	; 0x24
	sCommand.Address					= 0;										/* Byte Address */
 8000426:	2300      	movs	r3, #0
 8000428:	623b      	str	r3, [r7, #32]
	/* Data */
	sCommand.DataMode          			= HAL_OSPI_DATA_NONE;						/* Define Data Lines: No Data */
 800042a:	2300      	movs	r3, #0
 800042c:	643b      	str	r3, [r7, #64]	; 0x40
	sCommand.DummyCycles       			= 0;										/* Bytes Send With No Data */
 800042e:	2300      	movs	r3, #0
 8000430:	64fb      	str	r3, [r7, #76]	; 0x4c
	sCommand.NbData            			= 0;										/* Bytes Send With Data */
 8000432:	2300      	movs	r3, #0
 8000434:	647b      	str	r3, [r7, #68]	; 0x44

    if (HAL_OSPI_Command(hospi, &sCommand, HAL_OSPI_TIMEOUT_DEFAULT_VALUE) != HAL_OK) {
 8000436:	f107 0308 	add.w	r3, r7, #8
 800043a:	f241 3288 	movw	r2, #5000	; 0x1388
 800043e:	4619      	mov	r1, r3
 8000440:	6878      	ldr	r0, [r7, #4]
 8000442:	f001 ff92 	bl	800236a <HAL_OSPI_Command>
 8000446:	4603      	mov	r3, r0
 8000448:	2b00      	cmp	r3, #0
 800044a:	d001      	beq.n	8000450 <W25Q128_OSPI_ResetChip+0xee>
        return HAL_ERROR;
 800044c:	2301      	movs	r3, #1
 800044e:	e000      	b.n	8000452 <W25Q128_OSPI_ResetChip+0xf0>
    }
    return HAL_OK;
 8000450:	2300      	movs	r3, #0
}
 8000452:	4618      	mov	r0, r3
 8000454:	3758      	adds	r7, #88	; 0x58
 8000456:	46bd      	mov	sp, r7
 8000458:	bd80      	pop	{r7, pc}
	...

0800045c <W25Q128_OSPI_Configuration>:

/* Enable Quad Mode & Set Dummy Cycles Count */
HAL_StatusTypeDef W25Q128_OSPI_Configuration(OSPI_HandleTypeDef* hospi)
{
 800045c:	b580      	push	{r7, lr}
 800045e:	b084      	sub	sp, #16
 8000460:	af00      	add	r7, sp, #0
 8000462:	6078      	str	r0, [r7, #4]
    uint8_t reg1=0, reg2=0, reg3=0;
 8000464:	2300      	movs	r3, #0
 8000466:	733b      	strb	r3, [r7, #12]
 8000468:	2300      	movs	r3, #0
 800046a:	72fb      	strb	r3, [r7, #11]
 800046c:	2300      	movs	r3, #0
 800046e:	72bb      	strb	r3, [r7, #10]
    uint8_t w_reg1=0, w_reg2=0, w_reg3=0;
 8000470:	2300      	movs	r3, #0
 8000472:	73fb      	strb	r3, [r7, #15]
 8000474:	2300      	movs	r3, #0
 8000476:	73bb      	strb	r3, [r7, #14]
 8000478:	2300      	movs	r3, #0
 800047a:	737b      	strb	r3, [r7, #13]
    uint16_t JEDEC = 0;
 800047c:	2300      	movs	r3, #0
 800047e:	813b      	strh	r3, [r7, #8]
    if (W25Q128_Read_JEDEC_ID(hospi, &JEDEC, 0) != HAL_OK)
 8000480:	f107 0308 	add.w	r3, r7, #8
 8000484:	2200      	movs	r2, #0
 8000486:	4619      	mov	r1, r3
 8000488:	6878      	ldr	r0, [r7, #4]
 800048a:	f000 fc08 	bl	8000c9e <W25Q128_Read_JEDEC_ID>
 800048e:	4603      	mov	r3, r0
 8000490:	2b00      	cmp	r3, #0
 8000492:	d001      	beq.n	8000498 <W25Q128_OSPI_Configuration+0x3c>
    {
        return HAL_ERROR;
 8000494:	2301      	movs	r3, #1
 8000496:	e098      	b.n	80005ca <W25Q128_OSPI_Configuration+0x16e>
    }
    if (W25Q128_Read_Status_Registers(hospi, &reg1, 1) != HAL_OK)
 8000498:	f107 030c 	add.w	r3, r7, #12
 800049c:	2201      	movs	r2, #1
 800049e:	4619      	mov	r1, r3
 80004a0:	6878      	ldr	r0, [r7, #4]
 80004a2:	f000 fb93 	bl	8000bcc <W25Q128_Read_Status_Registers>
 80004a6:	4603      	mov	r3, r0
 80004a8:	2b00      	cmp	r3, #0
 80004aa:	d001      	beq.n	80004b0 <W25Q128_OSPI_Configuration+0x54>
    {

        return HAL_ERROR;
 80004ac:	2301      	movs	r3, #1
 80004ae:	e08c      	b.n	80005ca <W25Q128_OSPI_Configuration+0x16e>
    }

    if (W25Q128_Read_Status_Registers(hospi, &reg2, 2) != HAL_OK)
 80004b0:	f107 030b 	add.w	r3, r7, #11
 80004b4:	2202      	movs	r2, #2
 80004b6:	4619      	mov	r1, r3
 80004b8:	6878      	ldr	r0, [r7, #4]
 80004ba:	f000 fb87 	bl	8000bcc <W25Q128_Read_Status_Registers>
 80004be:	4603      	mov	r3, r0
 80004c0:	2b00      	cmp	r3, #0
 80004c2:	d001      	beq.n	80004c8 <W25Q128_OSPI_Configuration+0x6c>
    {
        return HAL_ERROR;
 80004c4:	2301      	movs	r3, #1
 80004c6:	e080      	b.n	80005ca <W25Q128_OSPI_Configuration+0x16e>
    }

    if (W25Q128_Read_Status_Registers(hospi, &reg3, 3) != HAL_OK)
 80004c8:	f107 030a 	add.w	r3, r7, #10
 80004cc:	2203      	movs	r2, #3
 80004ce:	4619      	mov	r1, r3
 80004d0:	6878      	ldr	r0, [r7, #4]
 80004d2:	f000 fb7b 	bl	8000bcc <W25Q128_Read_Status_Registers>
 80004d6:	4603      	mov	r3, r0
 80004d8:	2b00      	cmp	r3, #0
 80004da:	d001      	beq.n	80004e0 <W25Q128_OSPI_Configuration+0x84>
    {
        return HAL_ERROR;
 80004dc:	2301      	movs	r3, #1
 80004de:	e074      	b.n	80005ca <W25Q128_OSPI_Configuration+0x16e>
    }

    // if bit7 of reg1 is 1, means write protection need to be removed
	w_reg1 = 0x00U; // invalidate Status Reg Protection 0 bit
 80004e0:	2300      	movs	r3, #0
 80004e2:	73fb      	strb	r3, [r7, #15]
	w_reg2 = W25Q_SR_Quad_Enable;
 80004e4:	2302      	movs	r3, #2
 80004e6:	73bb      	strb	r3, [r7, #14]
//	w_reg3 = (reg3 & W25Q_SR_DRV1);
	w_reg3 = 0;
 80004e8:	2300      	movs	r3, #0
 80004ea:	737b      	strb	r3, [r7, #13]
#ifdef EXTERNAL_LOADER
    flash_locked = ((reg1 != w_reg1) | (reg2 != w_reg2) | (reg3 != w_reg3));
#endif
    if(flash_locked)
 80004ec:	4b39      	ldr	r3, [pc, #228]	; (80005d4 <W25Q128_OSPI_Configuration+0x178>)
 80004ee:	781b      	ldrb	r3, [r3, #0]
 80004f0:	2b00      	cmp	r3, #0
 80004f2:	d053      	beq.n	800059c <W25Q128_OSPI_Configuration+0x140>
    {

    	HAL_OSPI_DeInit(hospi);
 80004f4:	6878      	ldr	r0, [r7, #4]
 80004f6:	f001 ff11 	bl	800231c <HAL_OSPI_DeInit>

    	MX_OCTOSPI1_Init();
 80004fa:	f000 fe8b 	bl	8001214 <MX_OCTOSPI1_Init>


    	W25Q128_OSPI_ResetChip(hospi);
 80004fe:	6878      	ldr	r0, [r7, #4]
 8000500:	f7ff ff2f 	bl	8000362 <W25Q128_OSPI_ResetChip>

		if (W25Q128_Write_Status_Registers(hospi, w_reg1, 1, 1) != HAL_OK)
 8000504:	7bf9      	ldrb	r1, [r7, #15]
 8000506:	2301      	movs	r3, #1
 8000508:	2201      	movs	r2, #1
 800050a:	6878      	ldr	r0, [r7, #4]
 800050c:	f000 fc1e 	bl	8000d4c <W25Q128_Write_Status_Registers>
 8000510:	4603      	mov	r3, r0
 8000512:	2b00      	cmp	r3, #0
 8000514:	d001      	beq.n	800051a <W25Q128_OSPI_Configuration+0xbe>
		{
			return HAL_ERROR;
 8000516:	2301      	movs	r3, #1
 8000518:	e057      	b.n	80005ca <W25Q128_OSPI_Configuration+0x16e>
		}
		if (W25Q128_Write_Status_Registers(hospi, w_reg2, 2, 0) != HAL_OK)
 800051a:	7bb9      	ldrb	r1, [r7, #14]
 800051c:	2300      	movs	r3, #0
 800051e:	2202      	movs	r2, #2
 8000520:	6878      	ldr	r0, [r7, #4]
 8000522:	f000 fc13 	bl	8000d4c <W25Q128_Write_Status_Registers>
 8000526:	4603      	mov	r3, r0
 8000528:	2b00      	cmp	r3, #0
 800052a:	d001      	beq.n	8000530 <W25Q128_OSPI_Configuration+0xd4>
		{
			return HAL_ERROR;
 800052c:	2301      	movs	r3, #1
 800052e:	e04c      	b.n	80005ca <W25Q128_OSPI_Configuration+0x16e>
		}

		if (W25Q128_Write_Status_Registers(hospi, w_reg3, 3, 0) != HAL_OK)
 8000530:	7b79      	ldrb	r1, [r7, #13]
 8000532:	2300      	movs	r3, #0
 8000534:	2203      	movs	r2, #3
 8000536:	6878      	ldr	r0, [r7, #4]
 8000538:	f000 fc08 	bl	8000d4c <W25Q128_Write_Status_Registers>
 800053c:	4603      	mov	r3, r0
 800053e:	2b00      	cmp	r3, #0
 8000540:	d001      	beq.n	8000546 <W25Q128_OSPI_Configuration+0xea>
		{
			return HAL_ERROR;
 8000542:	2301      	movs	r3, #1
 8000544:	e041      	b.n	80005ca <W25Q128_OSPI_Configuration+0x16e>
		}
		HAL_Delay(1);
 8000546:	2001      	movs	r0, #1
 8000548:	f001 f9d2 	bl	80018f0 <HAL_Delay>
		if (W25Q128_Read_Status_Registers(hospi, &reg1, 1) != HAL_OK)
 800054c:	f107 030c 	add.w	r3, r7, #12
 8000550:	2201      	movs	r2, #1
 8000552:	4619      	mov	r1, r3
 8000554:	6878      	ldr	r0, [r7, #4]
 8000556:	f000 fb39 	bl	8000bcc <W25Q128_Read_Status_Registers>
 800055a:	4603      	mov	r3, r0
 800055c:	2b00      	cmp	r3, #0
 800055e:	d001      	beq.n	8000564 <W25Q128_OSPI_Configuration+0x108>
		{
			return HAL_ERROR;
 8000560:	2301      	movs	r3, #1
 8000562:	e032      	b.n	80005ca <W25Q128_OSPI_Configuration+0x16e>
		}
		if (W25Q128_Read_Status_Registers(hospi, &reg2, 2) != HAL_OK)
 8000564:	f107 030b 	add.w	r3, r7, #11
 8000568:	2202      	movs	r2, #2
 800056a:	4619      	mov	r1, r3
 800056c:	6878      	ldr	r0, [r7, #4]
 800056e:	f000 fb2d 	bl	8000bcc <W25Q128_Read_Status_Registers>
 8000572:	4603      	mov	r3, r0
 8000574:	2b00      	cmp	r3, #0
 8000576:	d001      	beq.n	800057c <W25Q128_OSPI_Configuration+0x120>
		{
			return HAL_ERROR;
 8000578:	2301      	movs	r3, #1
 800057a:	e026      	b.n	80005ca <W25Q128_OSPI_Configuration+0x16e>
		}
		if (W25Q128_Read_Status_Registers(hospi, &reg3, 3) != HAL_OK)
 800057c:	f107 030a 	add.w	r3, r7, #10
 8000580:	2203      	movs	r2, #3
 8000582:	4619      	mov	r1, r3
 8000584:	6878      	ldr	r0, [r7, #4]
 8000586:	f000 fb21 	bl	8000bcc <W25Q128_Read_Status_Registers>
 800058a:	4603      	mov	r3, r0
 800058c:	2b00      	cmp	r3, #0
 800058e:	d001      	beq.n	8000594 <W25Q128_OSPI_Configuration+0x138>
		{
			return HAL_ERROR;
 8000590:	2301      	movs	r3, #1
 8000592:	e01a      	b.n	80005ca <W25Q128_OSPI_Configuration+0x16e>
		}
		flash_locked = 0;
 8000594:	4b0f      	ldr	r3, [pc, #60]	; (80005d4 <W25Q128_OSPI_Configuration+0x178>)
 8000596:	2200      	movs	r2, #0
 8000598:	701a      	strb	r2, [r3, #0]
 800059a:	e015      	b.n	80005c8 <W25Q128_OSPI_Configuration+0x16c>
    }
    else
    {
		if (W25Q128_Write_Status_Registers(hospi, w_reg2, 2, 0) != HAL_OK)
 800059c:	7bb9      	ldrb	r1, [r7, #14]
 800059e:	2300      	movs	r3, #0
 80005a0:	2202      	movs	r2, #2
 80005a2:	6878      	ldr	r0, [r7, #4]
 80005a4:	f000 fbd2 	bl	8000d4c <W25Q128_Write_Status_Registers>
 80005a8:	4603      	mov	r3, r0
 80005aa:	2b00      	cmp	r3, #0
 80005ac:	d001      	beq.n	80005b2 <W25Q128_OSPI_Configuration+0x156>
		{
			return HAL_ERROR;
 80005ae:	2301      	movs	r3, #1
 80005b0:	e00b      	b.n	80005ca <W25Q128_OSPI_Configuration+0x16e>
		}

		if (W25Q128_Write_Status_Registers(hospi, w_reg3, 3, 0) != HAL_OK)
 80005b2:	7b79      	ldrb	r1, [r7, #13]
 80005b4:	2300      	movs	r3, #0
 80005b6:	2203      	movs	r2, #3
 80005b8:	6878      	ldr	r0, [r7, #4]
 80005ba:	f000 fbc7 	bl	8000d4c <W25Q128_Write_Status_Registers>
 80005be:	4603      	mov	r3, r0
 80005c0:	2b00      	cmp	r3, #0
 80005c2:	d001      	beq.n	80005c8 <W25Q128_OSPI_Configuration+0x16c>
		{
			return HAL_ERROR;
 80005c4:	2301      	movs	r3, #1
 80005c6:	e000      	b.n	80005ca <W25Q128_OSPI_Configuration+0x16e>
		}
    }
    return HAL_OK;
 80005c8:	2300      	movs	r3, #0
}
 80005ca:	4618      	mov	r0, r3
 80005cc:	3710      	adds	r7, #16
 80005ce:	46bd      	mov	sp, r7
 80005d0:	bd80      	pop	{r7, pc}
 80005d2:	bf00      	nop
 80005d4:	24000034 	.word	0x24000034

080005d8 <W25Q128_OSPI_WriteEnable>:

/* Write Enable Function */
HAL_StatusTypeDef W25Q128_OSPI_WriteEnable(OSPI_HandleTypeDef* hospi)
{
 80005d8:	b580      	push	{r7, lr}
 80005da:	b09c      	sub	sp, #112	; 0x70
 80005dc:	af00      	add	r7, sp, #0
 80005de:	6078      	str	r0, [r7, #4]
    OSPI_RegularCmdTypeDef sCommand;
    OSPI_AutoPollingTypeDef sConfig;

    /* Enable write operations ------------------------------------------ */
	/* Common Commands*/
	sCommand.OperationType      		= HAL_OSPI_OPTYPE_COMMON_CFG; 				/* Common configuration (indirect or auto-polling mode) */
 80005e0:	2300      	movs	r3, #0
 80005e2:	623b      	str	r3, [r7, #32]
	sCommand.FlashId            		= HAL_OSPI_FLASH_ID_1; 						/* Set The OCTO SPI Flash ID */
 80005e4:	2300      	movs	r3, #0
 80005e6:	627b      	str	r3, [r7, #36]	; 0x24
	sCommand.InstructionDtrMode 		= HAL_OSPI_INSTRUCTION_DTR_DISABLE; 		/* Disable Instruction DDR/DTR Mode */
 80005e8:	2300      	movs	r3, #0
 80005ea:	637b      	str	r3, [r7, #52]	; 0x34
	sCommand.AddressDtrMode     		= HAL_OSPI_ADDRESS_DTR_DISABLE; 			/* Disable Address DDR/DTR Mode */
 80005ec:	2300      	movs	r3, #0
 80005ee:	647b      	str	r3, [r7, #68]	; 0x44
	sCommand.DataDtrMode				= HAL_OSPI_DATA_DTR_DISABLE; 				/* Disable Data DDR/DTR Mode */
 80005f0:	2300      	movs	r3, #0
 80005f2:	663b      	str	r3, [r7, #96]	; 0x60
	sCommand.DQSMode            		= HAL_OSPI_DQS_DISABLE; 					/* Disable Data Strobe */
 80005f4:	2300      	movs	r3, #0
 80005f6:	66bb      	str	r3, [r7, #104]	; 0x68
	sCommand.SIOOMode          			= HAL_OSPI_SIOO_INST_EVERY_CMD; 			/* SIOO Mode: Send instruction on every transaction */
 80005f8:	2300      	movs	r3, #0
 80005fa:	66fb      	str	r3, [r7, #108]	; 0x6c
	sCommand.AlternateBytesMode 		= HAL_OSPI_ALTERNATE_BYTES_NONE; 			/* Disable Alternate Bytes Mode */
 80005fc:	2300      	movs	r3, #0
 80005fe:	64fb      	str	r3, [r7, #76]	; 0x4c
	sCommand.AlternateBytes				= HAL_OSPI_ALTERNATE_BYTES_NONE; 			/* Alternate Bytes = 0 */
 8000600:	2300      	movs	r3, #0
 8000602:	64bb      	str	r3, [r7, #72]	; 0x48
	sCommand.AlternateBytesSize			= HAL_OSPI_ALTERNATE_BYTES_NONE; 			/* Alternate Bytes Size = 0 */
 8000604:	2300      	movs	r3, #0
 8000606:	653b      	str	r3, [r7, #80]	; 0x50
	sCommand.AlternateBytesDtrMode		= HAL_OSPI_ALTERNATE_BYTES_DTR_DISABLE; 	/* Disable Alternate Bytes DDR/DTR Mode */
 8000608:	2300      	movs	r3, #0
 800060a:	657b      	str	r3, [r7, #84]	; 0x54
	sCommand.InstructionMode   			= HAL_OSPI_INSTRUCTION_1_LINE;				/* Instruction on a single line */
 800060c:	2301      	movs	r3, #1
 800060e:	62fb      	str	r3, [r7, #44]	; 0x2c
	sCommand.InstructionSize    		= HAL_OSPI_INSTRUCTION_8_BITS;				/* 8-bit Instruction */
 8000610:	2300      	movs	r3, #0
 8000612:	633b      	str	r3, [r7, #48]	; 0x30
	sCommand.AddressSize 				= HAL_OSPI_ADDRESS_24_BITS;					/* 24-bit Address */
 8000614:	f44f 5300 	mov.w	r3, #8192	; 0x2000
 8000618:	643b      	str	r3, [r7, #64]	; 0x40
	/* Instruction */
	sCommand.Instruction 				= W25Q_WRITE_ENABLE_CMD;					/* What We Do? */
 800061a:	2306      	movs	r3, #6
 800061c:	62bb      	str	r3, [r7, #40]	; 0x28
	/* Address */
	sCommand.AddressMode       			= HAL_OSPI_ADDRESS_NONE;					/* Define Address Lines: No Address */
 800061e:	2300      	movs	r3, #0
 8000620:	63fb      	str	r3, [r7, #60]	; 0x3c
	sCommand.Address					= 0;										/* Byte Address */
 8000622:	2300      	movs	r3, #0
 8000624:	63bb      	str	r3, [r7, #56]	; 0x38
	/* Data */
	sCommand.DataMode          			= HAL_OSPI_DATA_NONE;						/* Define Data Lines: No Data */
 8000626:	2300      	movs	r3, #0
 8000628:	65bb      	str	r3, [r7, #88]	; 0x58
	sCommand.DummyCycles       			= 0;										/* Bytes Send With No Data */
 800062a:	2300      	movs	r3, #0
 800062c:	667b      	str	r3, [r7, #100]	; 0x64
	sCommand.NbData            			= 0;										/* Bytes Send With Data */
 800062e:	2300      	movs	r3, #0
 8000630:	65fb      	str	r3, [r7, #92]	; 0x5c

    if (HAL_OSPI_Command(hospi, &sCommand, HAL_OSPI_TIMEOUT_DEFAULT_VALUE) != HAL_OK) {
 8000632:	f107 0320 	add.w	r3, r7, #32
 8000636:	f241 3288 	movw	r2, #5000	; 0x1388
 800063a:	4619      	mov	r1, r3
 800063c:	6878      	ldr	r0, [r7, #4]
 800063e:	f001 fe94 	bl	800236a <HAL_OSPI_Command>
 8000642:	4603      	mov	r3, r0
 8000644:	2b00      	cmp	r3, #0
 8000646:	d001      	beq.n	800064c <W25Q128_OSPI_WriteEnable+0x74>
        return HAL_ERROR;
 8000648:	2301      	movs	r3, #1
 800064a:	e04f      	b.n	80006ec <W25Q128_OSPI_WriteEnable+0x114>
    }


	/* Common Commands*/
	sCommand.OperationType      		= HAL_OSPI_OPTYPE_COMMON_CFG; 				/* Common configuration (indirect or auto-polling mode) */
 800064c:	2300      	movs	r3, #0
 800064e:	623b      	str	r3, [r7, #32]
	sCommand.FlashId            		= HAL_OSPI_FLASH_ID_1; 						/* Set The OCTO SPI Flash ID */
 8000650:	2300      	movs	r3, #0
 8000652:	627b      	str	r3, [r7, #36]	; 0x24
	sCommand.InstructionDtrMode 		= HAL_OSPI_INSTRUCTION_DTR_DISABLE; 		/* Disable Instruction DDR/DTR Mode */
 8000654:	2300      	movs	r3, #0
 8000656:	637b      	str	r3, [r7, #52]	; 0x34
	sCommand.AddressDtrMode     		= HAL_OSPI_ADDRESS_DTR_DISABLE; 			/* Disable Address DDR/DTR Mode */
 8000658:	2300      	movs	r3, #0
 800065a:	647b      	str	r3, [r7, #68]	; 0x44
	sCommand.DataDtrMode				= HAL_OSPI_DATA_DTR_DISABLE; 				/* Disable Data DDR/DTR Mode */
 800065c:	2300      	movs	r3, #0
 800065e:	663b      	str	r3, [r7, #96]	; 0x60
	sCommand.DQSMode            		= HAL_OSPI_DQS_DISABLE; 					/* Disable Data Strobe */
 8000660:	2300      	movs	r3, #0
 8000662:	66bb      	str	r3, [r7, #104]	; 0x68
	sCommand.SIOOMode          			= HAL_OSPI_SIOO_INST_EVERY_CMD; 			/* SIOO Mode: Send instruction on every transaction */
 8000664:	2300      	movs	r3, #0
 8000666:	66fb      	str	r3, [r7, #108]	; 0x6c
	sCommand.AlternateBytesMode 		= HAL_OSPI_ALTERNATE_BYTES_NONE; 			/* Disable Alternate Bytes Mode */
 8000668:	2300      	movs	r3, #0
 800066a:	64fb      	str	r3, [r7, #76]	; 0x4c
	sCommand.AlternateBytes				= HAL_OSPI_ALTERNATE_BYTES_NONE; 			/* Alternate Bytes = 0 */
 800066c:	2300      	movs	r3, #0
 800066e:	64bb      	str	r3, [r7, #72]	; 0x48
	sCommand.AlternateBytesSize			= HAL_OSPI_ALTERNATE_BYTES_NONE; 			/* Alternate Bytes Size = 0 */
 8000670:	2300      	movs	r3, #0
 8000672:	653b      	str	r3, [r7, #80]	; 0x50
	sCommand.AlternateBytesDtrMode		= HAL_OSPI_ALTERNATE_BYTES_DTR_DISABLE; 	/* Disable Alternate Bytes DDR/DTR Mode */
 8000674:	2300      	movs	r3, #0
 8000676:	657b      	str	r3, [r7, #84]	; 0x54
	sCommand.InstructionMode   			= HAL_OSPI_INSTRUCTION_1_LINE;				/* Instruction on a single line */
 8000678:	2301      	movs	r3, #1
 800067a:	62fb      	str	r3, [r7, #44]	; 0x2c
	sCommand.InstructionSize    		= HAL_OSPI_INSTRUCTION_8_BITS;				/* 8-bit Instruction */
 800067c:	2300      	movs	r3, #0
 800067e:	633b      	str	r3, [r7, #48]	; 0x30
	sCommand.AddressSize 				= HAL_OSPI_ADDRESS_24_BITS;					/* 24-bit Address */
 8000680:	f44f 5300 	mov.w	r3, #8192	; 0x2000
 8000684:	643b      	str	r3, [r7, #64]	; 0x40
	/* Instruction */
	sCommand.Instruction 				= W25Q_READ_SR1_CMD;						/* What We Do? */
 8000686:	2305      	movs	r3, #5
 8000688:	62bb      	str	r3, [r7, #40]	; 0x28
	/* Address */
	sCommand.AddressMode       			= HAL_OSPI_ADDRESS_NONE;					/* Define Address Lines: No Address */
 800068a:	2300      	movs	r3, #0
 800068c:	63fb      	str	r3, [r7, #60]	; 0x3c
	sCommand.Address					= 0;										/* Byte Address */
 800068e:	2300      	movs	r3, #0
 8000690:	63bb      	str	r3, [r7, #56]	; 0x38
	/* Data */
	sCommand.DataMode          			= HAL_OSPI_DATA_1_LINE;						/* Define Data Lines: Data On a Single Line */
 8000692:	f04f 7380 	mov.w	r3, #16777216	; 0x1000000
 8000696:	65bb      	str	r3, [r7, #88]	; 0x58
	sCommand.DummyCycles       			= 0;										/* Bytes Send With No Data */
 8000698:	2300      	movs	r3, #0
 800069a:	667b      	str	r3, [r7, #100]	; 0x64
	sCommand.NbData            			= 1;										/* Bytes Send With Data */
 800069c:	2301      	movs	r3, #1
 800069e:	65fb      	str	r3, [r7, #92]	; 0x5c

    if (HAL_OSPI_Command(hospi, &sCommand, HAL_OSPI_TIMEOUT_DEFAULT_VALUE) != HAL_OK) {
 80006a0:	f107 0320 	add.w	r3, r7, #32
 80006a4:	f241 3288 	movw	r2, #5000	; 0x1388
 80006a8:	4619      	mov	r1, r3
 80006aa:	6878      	ldr	r0, [r7, #4]
 80006ac:	f001 fe5d 	bl	800236a <HAL_OSPI_Command>
 80006b0:	4603      	mov	r3, r0
 80006b2:	2b00      	cmp	r3, #0
 80006b4:	d001      	beq.n	80006ba <W25Q128_OSPI_WriteEnable+0xe2>
        return HAL_ERROR;
 80006b6:	2301      	movs	r3, #1
 80006b8:	e018      	b.n	80006ec <W25Q128_OSPI_WriteEnable+0x114>
    }

    /* Configure automatic polling mode to wait for write enabling ---- */
    sConfig.Match 					= 0x02U;
 80006ba:	2302      	movs	r3, #2
 80006bc:	60fb      	str	r3, [r7, #12]
    sConfig.Mask 					= 0x02U;
 80006be:	2302      	movs	r3, #2
 80006c0:	613b      	str	r3, [r7, #16]
    sConfig.MatchMode 				= HAL_OSPI_MATCH_MODE_AND;
 80006c2:	2300      	movs	r3, #0
 80006c4:	617b      	str	r3, [r7, #20]
    sConfig.Interval 				= W25Q_AUTOPOLLING_INTERVAL_TIME;
 80006c6:	2310      	movs	r3, #16
 80006c8:	61fb      	str	r3, [r7, #28]
    sConfig.AutomaticStop 			= HAL_OSPI_AUTOMATIC_STOP_ENABLE;
 80006ca:	f44f 0380 	mov.w	r3, #4194304	; 0x400000
 80006ce:	61bb      	str	r3, [r7, #24]


    if (HAL_OSPI_AutoPolling(hospi, &sConfig, HAL_OSPI_TIMEOUT_DEFAULT_VALUE) != HAL_OK) {
 80006d0:	f107 030c 	add.w	r3, r7, #12
 80006d4:	f241 3288 	movw	r2, #5000	; 0x1388
 80006d8:	4619      	mov	r1, r3
 80006da:	6878      	ldr	r0, [r7, #4]
 80006dc:	f001 ffe8 	bl	80026b0 <HAL_OSPI_AutoPolling>
 80006e0:	4603      	mov	r3, r0
 80006e2:	2b00      	cmp	r3, #0
 80006e4:	d001      	beq.n	80006ea <W25Q128_OSPI_WriteEnable+0x112>
        return HAL_ERROR;
 80006e6:	2301      	movs	r3, #1
 80006e8:	e000      	b.n	80006ec <W25Q128_OSPI_WriteEnable+0x114>
    }

    return HAL_OK;
 80006ea:	2300      	movs	r3, #0
}
 80006ec:	4618      	mov	r0, r3
 80006ee:	3770      	adds	r7, #112	; 0x70
 80006f0:	46bd      	mov	sp, r7
 80006f2:	bd80      	pop	{r7, pc}

080006f4 <W25Q128_OSPI_AutoPollingMemReady>:

/* Auto Polling Memory Function */
HAL_StatusTypeDef W25Q128_OSPI_AutoPollingMemReady(OSPI_HandleTypeDef* hospi)
{
 80006f4:	b580      	push	{r7, lr}
 80006f6:	b09c      	sub	sp, #112	; 0x70
 80006f8:	af00      	add	r7, sp, #0
 80006fa:	6078      	str	r0, [r7, #4]
    OSPI_RegularCmdTypeDef sCommand;
    OSPI_AutoPollingTypeDef sConfig;

    /* Configure automatic polling mode to wait for memory ready ------ */
	/* Common Commands*/
	sCommand.OperationType      		= HAL_OSPI_OPTYPE_COMMON_CFG; 				/* Common configuration (indirect or auto-polling mode) */
 80006fc:	2300      	movs	r3, #0
 80006fe:	623b      	str	r3, [r7, #32]
	sCommand.FlashId            		= HAL_OSPI_FLASH_ID_1; 						/* Set The OCTO SPI Flash ID */
 8000700:	2300      	movs	r3, #0
 8000702:	627b      	str	r3, [r7, #36]	; 0x24
	sCommand.InstructionDtrMode 		= HAL_OSPI_INSTRUCTION_DTR_DISABLE; 		/* Disable Instruction DDR/DTR Mode */
 8000704:	2300      	movs	r3, #0
 8000706:	637b      	str	r3, [r7, #52]	; 0x34
	sCommand.AddressDtrMode     		= HAL_OSPI_ADDRESS_DTR_DISABLE; 			/* Disable Address DDR/DTR Mode */
 8000708:	2300      	movs	r3, #0
 800070a:	647b      	str	r3, [r7, #68]	; 0x44
	sCommand.DataDtrMode				= HAL_OSPI_DATA_DTR_DISABLE; 				/* Disable Data DDR/DTR Mode */
 800070c:	2300      	movs	r3, #0
 800070e:	663b      	str	r3, [r7, #96]	; 0x60
	sCommand.DQSMode            		= HAL_OSPI_DQS_DISABLE; 					/* Disable Data Strobe */
 8000710:	2300      	movs	r3, #0
 8000712:	66bb      	str	r3, [r7, #104]	; 0x68
	sCommand.SIOOMode          			= HAL_OSPI_SIOO_INST_EVERY_CMD; 			/* SIOO Mode: Send instruction on every transaction */
 8000714:	2300      	movs	r3, #0
 8000716:	66fb      	str	r3, [r7, #108]	; 0x6c
	sCommand.AlternateBytesMode 		= HAL_OSPI_ALTERNATE_BYTES_NONE; 			/* Disable Alternate Bytes Mode */
 8000718:	2300      	movs	r3, #0
 800071a:	64fb      	str	r3, [r7, #76]	; 0x4c
	sCommand.AlternateBytes				= HAL_OSPI_ALTERNATE_BYTES_NONE; 			/* Alternate Bytes = 0 */
 800071c:	2300      	movs	r3, #0
 800071e:	64bb      	str	r3, [r7, #72]	; 0x48
	sCommand.AlternateBytesSize			= HAL_OSPI_ALTERNATE_BYTES_NONE; 			/* Alternate Bytes Size = 0 */
 8000720:	2300      	movs	r3, #0
 8000722:	653b      	str	r3, [r7, #80]	; 0x50
	sCommand.AlternateBytesDtrMode		= HAL_OSPI_ALTERNATE_BYTES_DTR_DISABLE; 	/* Disable Alternate Bytes DDR/DTR Mode */
 8000724:	2300      	movs	r3, #0
 8000726:	657b      	str	r3, [r7, #84]	; 0x54
	sCommand.InstructionMode   			= HAL_OSPI_INSTRUCTION_1_LINE;				/* Instruction on a single line */
 8000728:	2301      	movs	r3, #1
 800072a:	62fb      	str	r3, [r7, #44]	; 0x2c
	sCommand.InstructionSize    		= HAL_OSPI_INSTRUCTION_8_BITS;				/* 8-bit Instruction */
 800072c:	2300      	movs	r3, #0
 800072e:	633b      	str	r3, [r7, #48]	; 0x30
	sCommand.AddressSize 				= HAL_OSPI_ADDRESS_24_BITS;					/* 24-bit Address */
 8000730:	f44f 5300 	mov.w	r3, #8192	; 0x2000
 8000734:	643b      	str	r3, [r7, #64]	; 0x40
	/* Instruction */
	sCommand.Instruction 				= W25Q_READ_SR1_CMD;						/* What We Do? */
 8000736:	2305      	movs	r3, #5
 8000738:	62bb      	str	r3, [r7, #40]	; 0x28
	/* Address */
	sCommand.AddressMode       			= HAL_OSPI_ADDRESS_NONE;					/* Define Address Lines: No Address */
 800073a:	2300      	movs	r3, #0
 800073c:	63fb      	str	r3, [r7, #60]	; 0x3c
	sCommand.Address					= 0;										/* Byte Address */
 800073e:	2300      	movs	r3, #0
 8000740:	63bb      	str	r3, [r7, #56]	; 0x38
	/* Data */
	sCommand.DataMode          			= HAL_OSPI_DATA_1_LINE;						/* Define Data Lines: Data On a Single Line */
 8000742:	f04f 7380 	mov.w	r3, #16777216	; 0x1000000
 8000746:	65bb      	str	r3, [r7, #88]	; 0x58
	sCommand.DummyCycles       			= 0;										/* Bytes Send With No Data */
 8000748:	2300      	movs	r3, #0
 800074a:	667b      	str	r3, [r7, #100]	; 0x64
	sCommand.NbData            			= 1;										/* Bytes Send With Data */
 800074c:	2301      	movs	r3, #1
 800074e:	65fb      	str	r3, [r7, #92]	; 0x5c

    if (HAL_OSPI_Command(hospi, &sCommand, HAL_OSPI_TIMEOUT_DEFAULT_VALUE) != HAL_OK) {
 8000750:	f107 0320 	add.w	r3, r7, #32
 8000754:	f241 3288 	movw	r2, #5000	; 0x1388
 8000758:	4619      	mov	r1, r3
 800075a:	6878      	ldr	r0, [r7, #4]
 800075c:	f001 fe05 	bl	800236a <HAL_OSPI_Command>
 8000760:	4603      	mov	r3, r0
 8000762:	2b00      	cmp	r3, #0
 8000764:	d001      	beq.n	800076a <W25Q128_OSPI_AutoPollingMemReady+0x76>
        return HAL_ERROR;
 8000766:	2301      	movs	r3, #1
 8000768:	e018      	b.n	800079c <W25Q128_OSPI_AutoPollingMemReady+0xa8>
    }

    sConfig.Match           			= 0x00U;
 800076a:	2300      	movs	r3, #0
 800076c:	60fb      	str	r3, [r7, #12]
    sConfig.Mask            			= 0x01U;
 800076e:	2301      	movs	r3, #1
 8000770:	613b      	str	r3, [r7, #16]
    sConfig.MatchMode       			= HAL_OSPI_MATCH_MODE_AND;
 8000772:	2300      	movs	r3, #0
 8000774:	617b      	str	r3, [r7, #20]
    sConfig.Interval        			= W25Q_AUTOPOLLING_INTERVAL_TIME;
 8000776:	2310      	movs	r3, #16
 8000778:	61fb      	str	r3, [r7, #28]
    sConfig.AutomaticStop   			= HAL_OSPI_AUTOMATIC_STOP_ENABLE;
 800077a:	f44f 0380 	mov.w	r3, #4194304	; 0x400000
 800077e:	61bb      	str	r3, [r7, #24]

    if (HAL_OSPI_AutoPolling(hospi, &sConfig, HAL_OSPI_TIMEOUT_DEFAULT_VALUE) != HAL_OK) {
 8000780:	f107 030c 	add.w	r3, r7, #12
 8000784:	f241 3288 	movw	r2, #5000	; 0x1388
 8000788:	4619      	mov	r1, r3
 800078a:	6878      	ldr	r0, [r7, #4]
 800078c:	f001 ff90 	bl	80026b0 <HAL_OSPI_AutoPolling>
 8000790:	4603      	mov	r3, r0
 8000792:	2b00      	cmp	r3, #0
 8000794:	d001      	beq.n	800079a <W25Q128_OSPI_AutoPollingMemReady+0xa6>
        return HAL_ERROR;
 8000796:	2301      	movs	r3, #1
 8000798:	e000      	b.n	800079c <W25Q128_OSPI_AutoPollingMemReady+0xa8>
    }

    return HAL_OK;
 800079a:	2300      	movs	r3, #0
}
 800079c:	4618      	mov	r0, r3
 800079e:	3770      	adds	r7, #112	; 0x70
 80007a0:	46bd      	mov	sp, r7
 80007a2:	bd80      	pop	{r7, pc}

080007a4 <W25Q128_OSPI_Erase_Chip>:

/* Erase Chip Function */
HAL_StatusTypeDef W25Q128_OSPI_Erase_Chip(OSPI_HandleTypeDef* hospi)
{
 80007a4:	b580      	push	{r7, lr}
 80007a6:	b096      	sub	sp, #88	; 0x58
 80007a8:	af00      	add	r7, sp, #0
 80007aa:	6078      	str	r0, [r7, #4]
    OSPI_RegularCmdTypeDef sCommand={0};
 80007ac:	f107 0308 	add.w	r3, r7, #8
 80007b0:	2250      	movs	r2, #80	; 0x50
 80007b2:	2100      	movs	r1, #0
 80007b4:	4618      	mov	r0, r3
 80007b6:	f005 fc67 	bl	8006088 <memset>
    //uint8_t reg3=0, w_reg3=0;

    /* Erasing Sequence ---------------------------------*/
	/* Common Commands*/
	sCommand.OperationType      		= HAL_OSPI_OPTYPE_COMMON_CFG; 				/* Common configuration (indirect or auto-polling mode) */
 80007ba:	2300      	movs	r3, #0
 80007bc:	60bb      	str	r3, [r7, #8]
	sCommand.FlashId            		= HAL_OSPI_FLASH_ID_1; 						/* Set The OCTO SPI Flash ID */
 80007be:	2300      	movs	r3, #0
 80007c0:	60fb      	str	r3, [r7, #12]
	sCommand.InstructionDtrMode 		= HAL_OSPI_INSTRUCTION_DTR_DISABLE; 		/* Disable Instruction DDR/DTR Mode */
 80007c2:	2300      	movs	r3, #0
 80007c4:	61fb      	str	r3, [r7, #28]
	sCommand.AddressDtrMode     		= HAL_OSPI_ADDRESS_DTR_DISABLE; 			/* Disable Address DDR/DTR Mode */
 80007c6:	2300      	movs	r3, #0
 80007c8:	62fb      	str	r3, [r7, #44]	; 0x2c
	sCommand.DataDtrMode				= HAL_OSPI_DATA_DTR_DISABLE; 				/* Disable Data DDR/DTR Mode */
 80007ca:	2300      	movs	r3, #0
 80007cc:	64bb      	str	r3, [r7, #72]	; 0x48
	sCommand.DQSMode            		= HAL_OSPI_DQS_DISABLE; 					/* Disable Data Strobe */
 80007ce:	2300      	movs	r3, #0
 80007d0:	653b      	str	r3, [r7, #80]	; 0x50
	sCommand.SIOOMode          			= HAL_OSPI_SIOO_INST_EVERY_CMD; 			/* SIOO Mode: Send instruction on every transaction */
 80007d2:	2300      	movs	r3, #0
 80007d4:	657b      	str	r3, [r7, #84]	; 0x54
	sCommand.AlternateBytesMode 		= HAL_OSPI_ALTERNATE_BYTES_NONE; 			/* Disable Alternate Bytes Mode */
 80007d6:	2300      	movs	r3, #0
 80007d8:	637b      	str	r3, [r7, #52]	; 0x34
	sCommand.AlternateBytes				= HAL_OSPI_ALTERNATE_BYTES_NONE; 			/* Alternate Bytes = 0 */
 80007da:	2300      	movs	r3, #0
 80007dc:	633b      	str	r3, [r7, #48]	; 0x30
	sCommand.AlternateBytesSize			= HAL_OSPI_ALTERNATE_BYTES_NONE; 			/* Alternate Bytes Size = 0 */
 80007de:	2300      	movs	r3, #0
 80007e0:	63bb      	str	r3, [r7, #56]	; 0x38
	sCommand.AlternateBytesDtrMode		= HAL_OSPI_ALTERNATE_BYTES_DTR_DISABLE; 	/* Disable Alternate Bytes DDR/DTR Mode */
 80007e2:	2300      	movs	r3, #0
 80007e4:	63fb      	str	r3, [r7, #60]	; 0x3c
	sCommand.InstructionMode   			= HAL_OSPI_INSTRUCTION_1_LINE;				/* Instruction on a single line */
 80007e6:	2301      	movs	r3, #1
 80007e8:	617b      	str	r3, [r7, #20]
	sCommand.InstructionSize    		= HAL_OSPI_INSTRUCTION_8_BITS;				/* 8-bit Instruction */
 80007ea:	2300      	movs	r3, #0
 80007ec:	61bb      	str	r3, [r7, #24]
	sCommand.AddressSize 				= HAL_OSPI_ADDRESS_24_BITS;					/* 24-bit Address */
 80007ee:	f44f 5300 	mov.w	r3, #8192	; 0x2000
 80007f2:	62bb      	str	r3, [r7, #40]	; 0x28
	/* Instruction */
	sCommand.Instruction 				= W25Q_CHIP_ERASE_CMD;						/* What We Do? */
 80007f4:	23c7      	movs	r3, #199	; 0xc7
 80007f6:	613b      	str	r3, [r7, #16]
	/* Address */
	sCommand.AddressMode       			= HAL_OSPI_ADDRESS_NONE;					/* Define Address Lines: No Address */
 80007f8:	2300      	movs	r3, #0
 80007fa:	627b      	str	r3, [r7, #36]	; 0x24
	sCommand.Address					= 0;										/* Byte Address */
 80007fc:	2300      	movs	r3, #0
 80007fe:	623b      	str	r3, [r7, #32]
	/* Data */
	sCommand.DataMode          			= HAL_OSPI_DATA_NONE;						/* Define Data Lines: No Data */
 8000800:	2300      	movs	r3, #0
 8000802:	643b      	str	r3, [r7, #64]	; 0x40
	sCommand.DummyCycles       			= 0;										/* Bytes Send With No Data */
 8000804:	2300      	movs	r3, #0
 8000806:	64fb      	str	r3, [r7, #76]	; 0x4c
	sCommand.NbData            			= 1;										/* Bytes Send With Data */
 8000808:	2301      	movs	r3, #1
 800080a:	647b      	str	r3, [r7, #68]	; 0x44

    if (W25Q128_OSPI_WriteEnable(hospi) != HAL_OK) {
 800080c:	6878      	ldr	r0, [r7, #4]
 800080e:	f7ff fee3 	bl	80005d8 <W25Q128_OSPI_WriteEnable>
 8000812:	4603      	mov	r3, r0
 8000814:	2b00      	cmp	r3, #0
 8000816:	d001      	beq.n	800081c <W25Q128_OSPI_Erase_Chip+0x78>
        return HAL_ERROR;
 8000818:	2301      	movs	r3, #1
 800081a:	e01e      	b.n	800085a <W25Q128_OSPI_Erase_Chip+0xb6>
    }

    if (HAL_OSPI_Command(hospi, &sCommand, HAL_OSPI_TIMEOUT_DEFAULT_VALUE) != HAL_OK) {
 800081c:	f107 0308 	add.w	r3, r7, #8
 8000820:	f241 3288 	movw	r2, #5000	; 0x1388
 8000824:	4619      	mov	r1, r3
 8000826:	6878      	ldr	r0, [r7, #4]
 8000828:	f001 fd9f 	bl	800236a <HAL_OSPI_Command>
 800082c:	4603      	mov	r3, r0
 800082e:	2b00      	cmp	r3, #0
 8000830:	d004      	beq.n	800083c <W25Q128_OSPI_Erase_Chip+0x98>
        return HAL_ERROR;
 8000832:	2301      	movs	r3, #1
 8000834:	e011      	b.n	800085a <W25Q128_OSPI_Erase_Chip+0xb6>
    }

    while (W25Q128_IsBusy(hospi)==HAL_ERROR)
    {
    	HAL_Delay(1);
 8000836:	2001      	movs	r0, #1
 8000838:	f001 f85a 	bl	80018f0 <HAL_Delay>
    while (W25Q128_IsBusy(hospi)==HAL_ERROR)
 800083c:	6878      	ldr	r0, [r7, #4]
 800083e:	f000 f9a2 	bl	8000b86 <W25Q128_IsBusy>
 8000842:	4603      	mov	r3, r0
 8000844:	2b01      	cmp	r3, #1
 8000846:	d0f6      	beq.n	8000836 <W25Q128_OSPI_Erase_Chip+0x92>
    }

    if (W25Q128_OSPI_AutoPollingMemReady(hospi) != HAL_OK) {
 8000848:	6878      	ldr	r0, [r7, #4]
 800084a:	f7ff ff53 	bl	80006f4 <W25Q128_OSPI_AutoPollingMemReady>
 800084e:	4603      	mov	r3, r0
 8000850:	2b00      	cmp	r3, #0
 8000852:	d001      	beq.n	8000858 <W25Q128_OSPI_Erase_Chip+0xb4>
        return HAL_ERROR;
 8000854:	2301      	movs	r3, #1
 8000856:	e000      	b.n	800085a <W25Q128_OSPI_Erase_Chip+0xb6>
    }

    return HAL_OK;
 8000858:	2300      	movs	r3, #0
}
 800085a:	4618      	mov	r0, r3
 800085c:	3758      	adds	r7, #88	; 0x58
 800085e:	46bd      	mov	sp, r7
 8000860:	bd80      	pop	{r7, pc}

08000862 <W25Q128_OSPI_Write>:
    return HAL_OK;
}

/* Write Function */
HAL_StatusTypeDef W25Q128_OSPI_Write(OSPI_HandleTypeDef* hospi, uint8_t* pData, uint32_t WriteAddr, uint32_t Size)
{
 8000862:	b580      	push	{r7, lr}
 8000864:	b09c      	sub	sp, #112	; 0x70
 8000866:	af00      	add	r7, sp, #0
 8000868:	60f8      	str	r0, [r7, #12]
 800086a:	60b9      	str	r1, [r7, #8]
 800086c:	607a      	str	r2, [r7, #4]
 800086e:	603b      	str	r3, [r7, #0]
  OSPI_RegularCmdTypeDef sCommand={0};
 8000870:	f107 0310 	add.w	r3, r7, #16
 8000874:	2250      	movs	r2, #80	; 0x50
 8000876:	2100      	movs	r1, #0
 8000878:	4618      	mov	r0, r3
 800087a:	f005 fc05 	bl	8006088 <memset>
  uint32_t end_addr=0, current_size=0, current_addr=0;
 800087e:	2300      	movs	r3, #0
 8000880:	663b      	str	r3, [r7, #96]	; 0x60
 8000882:	2300      	movs	r3, #0
 8000884:	66fb      	str	r3, [r7, #108]	; 0x6c
 8000886:	2300      	movs	r3, #0
 8000888:	66bb      	str	r3, [r7, #104]	; 0x68
  uint32_t data_addr=0;
 800088a:	2300      	movs	r3, #0
 800088c:	667b      	str	r3, [r7, #100]	; 0x64

  current_addr = 0;
 800088e:	2300      	movs	r3, #0
 8000890:	66bb      	str	r3, [r7, #104]	; 0x68

  while (current_addr <= WriteAddr) {
 8000892:	e003      	b.n	800089c <W25Q128_OSPI_Write+0x3a>
      current_addr += W25Q_PAGE_SIZE;
 8000894:	6ebb      	ldr	r3, [r7, #104]	; 0x68
 8000896:	f503 7380 	add.w	r3, r3, #256	; 0x100
 800089a:	66bb      	str	r3, [r7, #104]	; 0x68
  while (current_addr <= WriteAddr) {
 800089c:	6eba      	ldr	r2, [r7, #104]	; 0x68
 800089e:	687b      	ldr	r3, [r7, #4]
 80008a0:	429a      	cmp	r2, r3
 80008a2:	d9f7      	bls.n	8000894 <W25Q128_OSPI_Write+0x32>
  }
  current_size = current_addr - WriteAddr;
 80008a4:	6eba      	ldr	r2, [r7, #104]	; 0x68
 80008a6:	687b      	ldr	r3, [r7, #4]
 80008a8:	1ad3      	subs	r3, r2, r3
 80008aa:	66fb      	str	r3, [r7, #108]	; 0x6c

  /* Check if the size of the data is less than the remaining place in the page */
  if (current_size > Size) {
 80008ac:	6efa      	ldr	r2, [r7, #108]	; 0x6c
 80008ae:	683b      	ldr	r3, [r7, #0]
 80008b0:	429a      	cmp	r2, r3
 80008b2:	d901      	bls.n	80008b8 <W25Q128_OSPI_Write+0x56>
      current_size = Size;
 80008b4:	683b      	ldr	r3, [r7, #0]
 80008b6:	66fb      	str	r3, [r7, #108]	; 0x6c
  }

  /* Initialize the adress variables */
  current_addr = WriteAddr;
 80008b8:	687b      	ldr	r3, [r7, #4]
 80008ba:	66bb      	str	r3, [r7, #104]	; 0x68
  end_addr = WriteAddr + Size;
 80008bc:	687a      	ldr	r2, [r7, #4]
 80008be:	683b      	ldr	r3, [r7, #0]
 80008c0:	4413      	add	r3, r2
 80008c2:	663b      	str	r3, [r7, #96]	; 0x60

  data_addr = (uint32_t)pData;
 80008c4:	68bb      	ldr	r3, [r7, #8]
 80008c6:	667b      	str	r3, [r7, #100]	; 0x64
  /* Perform the write page by page */
  do
  {
	/* Initialize the program command */
	/* Common Commands*/
	sCommand.OperationType      		= HAL_OSPI_OPTYPE_COMMON_CFG; 				/* Common configuration (indirect or auto-polling mode) */
 80008c8:	2300      	movs	r3, #0
 80008ca:	613b      	str	r3, [r7, #16]
	sCommand.FlashId            		= HAL_OSPI_FLASH_ID_1; 						/* Set The OCTO SPI Flash ID */
 80008cc:	2300      	movs	r3, #0
 80008ce:	617b      	str	r3, [r7, #20]
	sCommand.InstructionDtrMode 		= HAL_OSPI_INSTRUCTION_DTR_DISABLE; 		/* Disable Instruction DDR/DTR Mode */
 80008d0:	2300      	movs	r3, #0
 80008d2:	627b      	str	r3, [r7, #36]	; 0x24
	sCommand.AddressDtrMode     		= HAL_OSPI_ADDRESS_DTR_DISABLE; 			/* Disable Address DDR/DTR Mode */
 80008d4:	2300      	movs	r3, #0
 80008d6:	637b      	str	r3, [r7, #52]	; 0x34
	sCommand.DataDtrMode				= HAL_OSPI_DATA_DTR_DISABLE; 				/* Disable Data DDR/DTR Mode */
 80008d8:	2300      	movs	r3, #0
 80008da:	653b      	str	r3, [r7, #80]	; 0x50
	sCommand.DQSMode            		= HAL_OSPI_DQS_DISABLE; 					/* Disable Data Strobe */
 80008dc:	2300      	movs	r3, #0
 80008de:	65bb      	str	r3, [r7, #88]	; 0x58
	sCommand.SIOOMode          			= HAL_OSPI_SIOO_INST_EVERY_CMD; 			/* SIOO Mode: Send instruction on every transaction */
 80008e0:	2300      	movs	r3, #0
 80008e2:	65fb      	str	r3, [r7, #92]	; 0x5c
	sCommand.AlternateBytesMode 		= HAL_OSPI_ALTERNATE_BYTES_NONE; 			/* Disable Alternate Bytes Mode */
 80008e4:	2300      	movs	r3, #0
 80008e6:	63fb      	str	r3, [r7, #60]	; 0x3c
	sCommand.AlternateBytes				= HAL_OSPI_ALTERNATE_BYTES_NONE; 			/* Alternate Bytes = 0 */
 80008e8:	2300      	movs	r3, #0
 80008ea:	63bb      	str	r3, [r7, #56]	; 0x38
	sCommand.AlternateBytesSize			= HAL_OSPI_ALTERNATE_BYTES_NONE; 			/* Alternate Bytes Size = 0 */
 80008ec:	2300      	movs	r3, #0
 80008ee:	643b      	str	r3, [r7, #64]	; 0x40
	sCommand.AlternateBytesDtrMode		= HAL_OSPI_ALTERNATE_BYTES_DTR_DISABLE; 	/* Disable Alternate Bytes DDR/DTR Mode */
 80008f0:	2300      	movs	r3, #0
 80008f2:	647b      	str	r3, [r7, #68]	; 0x44
	sCommand.InstructionMode   			= HAL_OSPI_INSTRUCTION_1_LINE;				/* Instruction on a single line */
 80008f4:	2301      	movs	r3, #1
 80008f6:	61fb      	str	r3, [r7, #28]
	sCommand.InstructionSize    		= HAL_OSPI_INSTRUCTION_8_BITS;				/* 8-bit Instruction */
 80008f8:	2300      	movs	r3, #0
 80008fa:	623b      	str	r3, [r7, #32]
	sCommand.AddressSize 				= HAL_OSPI_ADDRESS_24_BITS;					/* 24-bit Address */
 80008fc:	f44f 5300 	mov.w	r3, #8192	; 0x2000
 8000900:	633b      	str	r3, [r7, #48]	; 0x30
	/* Instruction */
	sCommand.Instruction 				= W25Q_PAGE_PROGRAM_QUAD_INP_CMD;			/* What We Do? */
 8000902:	2332      	movs	r3, #50	; 0x32
 8000904:	61bb      	str	r3, [r7, #24]
	/* Address */
	sCommand.AddressMode       			= HAL_OSPI_ADDRESS_1_LINE;					/* Define Address Lines: Address On a Single Line */
 8000906:	f44f 7380 	mov.w	r3, #256	; 0x100
 800090a:	62fb      	str	r3, [r7, #44]	; 0x2c
	sCommand.Address					= current_addr;								/* Byte Address */
 800090c:	6ebb      	ldr	r3, [r7, #104]	; 0x68
 800090e:	62bb      	str	r3, [r7, #40]	; 0x28
	/* Data */
	sCommand.DataMode          			= HAL_OSPI_DATA_4_LINES;					/* Define Data Lines: Data On Four Lines */
 8000910:	f04f 7340 	mov.w	r3, #50331648	; 0x3000000
 8000914:	64bb      	str	r3, [r7, #72]	; 0x48
	sCommand.DummyCycles       			= 0;										/* Bytes Send With No Data */
 8000916:	2300      	movs	r3, #0
 8000918:	657b      	str	r3, [r7, #84]	; 0x54
	sCommand.NbData            			= current_size;								/* Bytes Send With Data */
 800091a:	6efb      	ldr	r3, [r7, #108]	; 0x6c
 800091c:	64fb      	str	r3, [r7, #76]	; 0x4c

    if (current_size == 0) {
 800091e:	6efb      	ldr	r3, [r7, #108]	; 0x6c
 8000920:	2b00      	cmp	r3, #0
 8000922:	d101      	bne.n	8000928 <W25Q128_OSPI_Write+0xc6>
        return HAL_OK;
 8000924:	2300      	movs	r3, #0
 8000926:	e042      	b.n	80009ae <W25Q128_OSPI_Write+0x14c>
    }

    /* Enable write operations */
    if (W25Q128_OSPI_WriteEnable(hospi) != HAL_OK)
 8000928:	68f8      	ldr	r0, [r7, #12]
 800092a:	f7ff fe55 	bl	80005d8 <W25Q128_OSPI_WriteEnable>
 800092e:	4603      	mov	r3, r0
 8000930:	2b00      	cmp	r3, #0
 8000932:	d001      	beq.n	8000938 <W25Q128_OSPI_Write+0xd6>
    {
      return HAL_ERROR;
 8000934:	2301      	movs	r3, #1
 8000936:	e03a      	b.n	80009ae <W25Q128_OSPI_Write+0x14c>
    }

    /* Configure the command */
    if (HAL_OSPI_Command(hospi, &sCommand, HAL_OSPI_TIMEOUT_DEFAULT_VALUE) != HAL_OK)
 8000938:	f107 0310 	add.w	r3, r7, #16
 800093c:	f241 3288 	movw	r2, #5000	; 0x1388
 8000940:	4619      	mov	r1, r3
 8000942:	68f8      	ldr	r0, [r7, #12]
 8000944:	f001 fd11 	bl	800236a <HAL_OSPI_Command>
 8000948:	4603      	mov	r3, r0
 800094a:	2b00      	cmp	r3, #0
 800094c:	d001      	beq.n	8000952 <W25Q128_OSPI_Write+0xf0>
    {
      return HAL_ERROR;
 800094e:	2301      	movs	r3, #1
 8000950:	e02d      	b.n	80009ae <W25Q128_OSPI_Write+0x14c>
    }

    /* Transmission of the data */
    if (HAL_OSPI_Transmit(hospi, (uint8_t*)data_addr, HAL_OSPI_TIMEOUT_DEFAULT_VALUE) != HAL_OK)
 8000952:	6e7b      	ldr	r3, [r7, #100]	; 0x64
 8000954:	f241 3288 	movw	r2, #5000	; 0x1388
 8000958:	4619      	mov	r1, r3
 800095a:	68f8      	ldr	r0, [r7, #12]
 800095c:	f001 fd92 	bl	8002484 <HAL_OSPI_Transmit>
 8000960:	4603      	mov	r3, r0
 8000962:	2b00      	cmp	r3, #0
 8000964:	d001      	beq.n	800096a <W25Q128_OSPI_Write+0x108>
    {
      return HAL_ERROR;
 8000966:	2301      	movs	r3, #1
 8000968:	e021      	b.n	80009ae <W25Q128_OSPI_Write+0x14c>
    }

    /* Configure automatic polling mode to wait for end of program */
    if (W25Q128_OSPI_AutoPollingMemReady(hospi) != HAL_OK)
 800096a:	68f8      	ldr	r0, [r7, #12]
 800096c:	f7ff fec2 	bl	80006f4 <W25Q128_OSPI_AutoPollingMemReady>
 8000970:	4603      	mov	r3, r0
 8000972:	2b00      	cmp	r3, #0
 8000974:	d001      	beq.n	800097a <W25Q128_OSPI_Write+0x118>
    {
      return HAL_ERROR;
 8000976:	2301      	movs	r3, #1
 8000978:	e019      	b.n	80009ae <W25Q128_OSPI_Write+0x14c>
    }

    /* Update the address and size variables for next page programming */
    current_addr += current_size;
 800097a:	6eba      	ldr	r2, [r7, #104]	; 0x68
 800097c:	6efb      	ldr	r3, [r7, #108]	; 0x6c
 800097e:	4413      	add	r3, r2
 8000980:	66bb      	str	r3, [r7, #104]	; 0x68
    data_addr += current_size;
 8000982:	6e7a      	ldr	r2, [r7, #100]	; 0x64
 8000984:	6efb      	ldr	r3, [r7, #108]	; 0x6c
 8000986:	4413      	add	r3, r2
 8000988:	667b      	str	r3, [r7, #100]	; 0x64
    current_size = ((current_addr + W25Q_PAGE_SIZE) > end_addr) ? (end_addr - current_addr) : W25Q_PAGE_SIZE;
 800098a:	6ebb      	ldr	r3, [r7, #104]	; 0x68
 800098c:	f503 7380 	add.w	r3, r3, #256	; 0x100
 8000990:	6e3a      	ldr	r2, [r7, #96]	; 0x60
 8000992:	429a      	cmp	r2, r3
 8000994:	d203      	bcs.n	800099e <W25Q128_OSPI_Write+0x13c>
 8000996:	6e3a      	ldr	r2, [r7, #96]	; 0x60
 8000998:	6ebb      	ldr	r3, [r7, #104]	; 0x68
 800099a:	1ad3      	subs	r3, r2, r3
 800099c:	e001      	b.n	80009a2 <W25Q128_OSPI_Write+0x140>
 800099e:	f44f 7380 	mov.w	r3, #256	; 0x100
 80009a2:	66fb      	str	r3, [r7, #108]	; 0x6c
  } while (current_addr <= end_addr);
 80009a4:	6eba      	ldr	r2, [r7, #104]	; 0x68
 80009a6:	6e3b      	ldr	r3, [r7, #96]	; 0x60
 80009a8:	429a      	cmp	r2, r3
 80009aa:	d98d      	bls.n	80008c8 <W25Q128_OSPI_Write+0x66>

  return HAL_OK;
 80009ac:	2300      	movs	r3, #0
}
 80009ae:	4618      	mov	r0, r3
 80009b0:	3770      	adds	r7, #112	; 0x70
 80009b2:	46bd      	mov	sp, r7
 80009b4:	bd80      	pop	{r7, pc}

080009b6 <W25Q128_OSPI_Read>:

/* Read Function */
HAL_StatusTypeDef W25Q128_OSPI_Read(OSPI_HandleTypeDef* hospi,uint8_t* pData, uint32_t ReadAddr, uint32_t Size)
{
 80009b6:	b580      	push	{r7, lr}
 80009b8:	b098      	sub	sp, #96	; 0x60
 80009ba:	af00      	add	r7, sp, #0
 80009bc:	60f8      	str	r0, [r7, #12]
 80009be:	60b9      	str	r1, [r7, #8]
 80009c0:	607a      	str	r2, [r7, #4]
 80009c2:	603b      	str	r3, [r7, #0]
  OSPI_RegularCmdTypeDef sCommand={0};
 80009c4:	f107 0310 	add.w	r3, r7, #16
 80009c8:	2250      	movs	r2, #80	; 0x50
 80009ca:	2100      	movs	r1, #0
 80009cc:	4618      	mov	r0, r3
 80009ce:	f005 fb5b 	bl	8006088 <memset>
  /* Initialize the read command */
  /* Common Commands*/
  sCommand.OperationType      		= HAL_OSPI_OPTYPE_COMMON_CFG; 				/* Common configuration (indirect or auto-polling mode) */
 80009d2:	2300      	movs	r3, #0
 80009d4:	613b      	str	r3, [r7, #16]
  sCommand.FlashId            		= HAL_OSPI_FLASH_ID_1; 						/* Set The OCTO SPI Flash ID */
 80009d6:	2300      	movs	r3, #0
 80009d8:	617b      	str	r3, [r7, #20]
  sCommand.InstructionDtrMode 		= HAL_OSPI_INSTRUCTION_DTR_DISABLE; 		/* Disable Instruction DDR/DTR Mode */
 80009da:	2300      	movs	r3, #0
 80009dc:	627b      	str	r3, [r7, #36]	; 0x24
  sCommand.AddressDtrMode     		= HAL_OSPI_ADDRESS_DTR_DISABLE; 			/* Disable Address DDR/DTR Mode */
 80009de:	2300      	movs	r3, #0
 80009e0:	637b      	str	r3, [r7, #52]	; 0x34
  sCommand.DataDtrMode				= HAL_OSPI_DATA_DTR_DISABLE; 				/* Disable Data DDR/DTR Mode */
 80009e2:	2300      	movs	r3, #0
 80009e4:	653b      	str	r3, [r7, #80]	; 0x50
  sCommand.DQSMode            		= HAL_OSPI_DQS_DISABLE; 					/* Disable Data Strobe */
 80009e6:	2300      	movs	r3, #0
 80009e8:	65bb      	str	r3, [r7, #88]	; 0x58
  sCommand.SIOOMode          		= HAL_OSPI_SIOO_INST_EVERY_CMD; 			/* SIOO Mode: Send instruction on every transaction */
 80009ea:	2300      	movs	r3, #0
 80009ec:	65fb      	str	r3, [r7, #92]	; 0x5c
  sCommand.AlternateBytesMode 		= HAL_OSPI_ALTERNATE_BYTES_NONE; 			/* Disable Alternate Bytes Mode */
 80009ee:	2300      	movs	r3, #0
 80009f0:	63fb      	str	r3, [r7, #60]	; 0x3c
  sCommand.AlternateBytes			= HAL_OSPI_ALTERNATE_BYTES_NONE; 			/* Alternate Bytes = 0 */
 80009f2:	2300      	movs	r3, #0
 80009f4:	63bb      	str	r3, [r7, #56]	; 0x38
  sCommand.AlternateBytesSize		= HAL_OSPI_ALTERNATE_BYTES_NONE; 			/* Alternate Bytes Size = 0 */
 80009f6:	2300      	movs	r3, #0
 80009f8:	643b      	str	r3, [r7, #64]	; 0x40
  sCommand.AlternateBytesDtrMode	= HAL_OSPI_ALTERNATE_BYTES_DTR_DISABLE; 	/* Disable Alternate Bytes DDR/DTR Mode */
 80009fa:	2300      	movs	r3, #0
 80009fc:	647b      	str	r3, [r7, #68]	; 0x44
  sCommand.InstructionMode   		= HAL_OSPI_INSTRUCTION_1_LINE;				/* Instruction on a single line */
 80009fe:	2301      	movs	r3, #1
 8000a00:	61fb      	str	r3, [r7, #28]
  sCommand.InstructionSize    		= HAL_OSPI_INSTRUCTION_8_BITS;				/* 8-bit Instruction */
 8000a02:	2300      	movs	r3, #0
 8000a04:	623b      	str	r3, [r7, #32]
  sCommand.AddressSize 				= HAL_OSPI_ADDRESS_24_BITS;					/* 24-bit Address */
 8000a06:	f44f 5300 	mov.w	r3, #8192	; 0x2000
 8000a0a:	633b      	str	r3, [r7, #48]	; 0x30
  /* Instruction */
  sCommand.Instruction 				= W25Q_FAST_READ_QUAD_IO_CMD;				/* What We Do? */
 8000a0c:	23eb      	movs	r3, #235	; 0xeb
 8000a0e:	61bb      	str	r3, [r7, #24]
  /* Address */
  sCommand.AddressMode       		= HAL_OSPI_ADDRESS_4_LINES;					/* Define Address Lines: Address On Four Line */
 8000a10:	f44f 7340 	mov.w	r3, #768	; 0x300
 8000a14:	62fb      	str	r3, [r7, #44]	; 0x2c
  sCommand.Address					= ReadAddr;									/* Byte Address */
 8000a16:	687b      	ldr	r3, [r7, #4]
 8000a18:	62bb      	str	r3, [r7, #40]	; 0x28
  /* Data */
  sCommand.DataMode          		= HAL_OSPI_DATA_4_LINES;					/* Define Data Lines: Data On Four Lines */
 8000a1a:	f04f 7340 	mov.w	r3, #50331648	; 0x3000000
 8000a1e:	64bb      	str	r3, [r7, #72]	; 0x48
  sCommand.DummyCycles       		= W25Q_DUMMY_CYCLES_READ_QUAD;										/* Bytes Send With No Data */
 8000a20:	2306      	movs	r3, #6
 8000a22:	657b      	str	r3, [r7, #84]	; 0x54
  sCommand.NbData            		= Size;										/* Bytes Send With Data */
 8000a24:	683b      	ldr	r3, [r7, #0]
 8000a26:	64fb      	str	r3, [r7, #76]	; 0x4c

  /* Configure the command */
  if (HAL_OSPI_Command(hospi, &sCommand, HAL_OSPI_TIMEOUT_DEFAULT_VALUE) != HAL_OK)
 8000a28:	f107 0310 	add.w	r3, r7, #16
 8000a2c:	f241 3288 	movw	r2, #5000	; 0x1388
 8000a30:	4619      	mov	r1, r3
 8000a32:	68f8      	ldr	r0, [r7, #12]
 8000a34:	f001 fc99 	bl	800236a <HAL_OSPI_Command>
 8000a38:	4603      	mov	r3, r0
 8000a3a:	2b00      	cmp	r3, #0
 8000a3c:	d001      	beq.n	8000a42 <W25Q128_OSPI_Read+0x8c>
  {
    return HAL_ERROR;
 8000a3e:	2301      	movs	r3, #1
 8000a40:	e00b      	b.n	8000a5a <W25Q128_OSPI_Read+0xa4>
  }

  /* Reception of the data */
  if (HAL_OSPI_Receive(hospi, pData, HAL_OSPI_TIMEOUT_DEFAULT_VALUE) != HAL_OK)
 8000a42:	f241 3288 	movw	r2, #5000	; 0x1388
 8000a46:	68b9      	ldr	r1, [r7, #8]
 8000a48:	68f8      	ldr	r0, [r7, #12]
 8000a4a:	f001 fd8e 	bl	800256a <HAL_OSPI_Receive>
 8000a4e:	4603      	mov	r3, r0
 8000a50:	2b00      	cmp	r3, #0
 8000a52:	d001      	beq.n	8000a58 <W25Q128_OSPI_Read+0xa2>
  {
    return HAL_ERROR;
 8000a54:	2301      	movs	r3, #1
 8000a56:	e000      	b.n	8000a5a <W25Q128_OSPI_Read+0xa4>
  }

  return HAL_OK;
 8000a58:	2300      	movs	r3, #0
}
 8000a5a:	4618      	mov	r0, r3
 8000a5c:	3760      	adds	r7, #96	; 0x60
 8000a5e:	46bd      	mov	sp, r7
 8000a60:	bd80      	pop	{r7, pc}

08000a62 <W25Q128_OSPI_EnableMemoryMappedMode>:

/* Memory Map Enable Function */
HAL_StatusTypeDef W25Q128_OSPI_EnableMemoryMappedMode(OSPI_HandleTypeDef* hospi)
{
 8000a62:	b580      	push	{r7, lr}
 8000a64:	b098      	sub	sp, #96	; 0x60
 8000a66:	af00      	add	r7, sp, #0
 8000a68:	6078      	str	r0, [r7, #4]

    OSPI_RegularCmdTypeDef sCommand={0};
 8000a6a:	f107 0310 	add.w	r3, r7, #16
 8000a6e:	2250      	movs	r2, #80	; 0x50
 8000a70:	2100      	movs	r1, #0
 8000a72:	4618      	mov	r0, r3
 8000a74:	f005 fb08 	bl	8006088 <memset>
    OSPI_MemoryMappedTypeDef sMemMappedCfg={0};
 8000a78:	f107 0308 	add.w	r3, r7, #8
 8000a7c:	2200      	movs	r2, #0
 8000a7e:	601a      	str	r2, [r3, #0]
 8000a80:	605a      	str	r2, [r3, #4]

    /* Enable Memory-Mapped mode-------------------------------------------------- */
	/* Common Commands*/
    sCommand.OperationType      	= HAL_OSPI_OPTYPE_READ_CFG; 				/* Read Configuration (Memory-Mapped Mode) */
 8000a82:	2301      	movs	r3, #1
 8000a84:	613b      	str	r3, [r7, #16]
    sCommand.FlashId            	= HAL_OSPI_FLASH_ID_1; 						/* Set The OCTO SPI Flash ID */
 8000a86:	2300      	movs	r3, #0
 8000a88:	617b      	str	r3, [r7, #20]
    sCommand.InstructionDtrMode 	= HAL_OSPI_INSTRUCTION_DTR_DISABLE; 		/* Disable Instruction DDR/DTR Mode */
 8000a8a:	2300      	movs	r3, #0
 8000a8c:	627b      	str	r3, [r7, #36]	; 0x24
    sCommand.AddressDtrMode     	= HAL_OSPI_ADDRESS_DTR_DISABLE; 			/* Disable Address DDR/DTR Mode */
 8000a8e:	2300      	movs	r3, #0
 8000a90:	637b      	str	r3, [r7, #52]	; 0x34
    sCommand.DataDtrMode			= HAL_OSPI_DATA_DTR_DISABLE; 				/* Disable Data DDR/DTR Mode */
 8000a92:	2300      	movs	r3, #0
 8000a94:	653b      	str	r3, [r7, #80]	; 0x50
    sCommand.DQSMode            	= HAL_OSPI_DQS_DISABLE; 					/* Disable Data Strobe */
 8000a96:	2300      	movs	r3, #0
 8000a98:	65bb      	str	r3, [r7, #88]	; 0x58
    sCommand.SIOOMode          		= HAL_OSPI_SIOO_INST_EVERY_CMD; 			/* SIOO Mode: Send instruction on every transaction */
 8000a9a:	2300      	movs	r3, #0
 8000a9c:	65fb      	str	r3, [r7, #92]	; 0x5c
    sCommand.AlternateBytesMode 	= HAL_OSPI_ALTERNATE_BYTES_NONE; 			/* Disable Alternate Bytes Mode */
 8000a9e:	2300      	movs	r3, #0
 8000aa0:	63fb      	str	r3, [r7, #60]	; 0x3c
    sCommand.AlternateBytes			= HAL_OSPI_ALTERNATE_BYTES_NONE; 			/* Alternate Bytes = 0 */
 8000aa2:	2300      	movs	r3, #0
 8000aa4:	63bb      	str	r3, [r7, #56]	; 0x38
    sCommand.AlternateBytesSize		= HAL_OSPI_ALTERNATE_BYTES_NONE; 			/* Alternate Bytes Size = 0 */
 8000aa6:	2300      	movs	r3, #0
 8000aa8:	643b      	str	r3, [r7, #64]	; 0x40
    sCommand.AlternateBytesDtrMode	= HAL_OSPI_ALTERNATE_BYTES_DTR_DISABLE; 	/* Disable Alternate Bytes DDR/DTR Mode */
 8000aaa:	2300      	movs	r3, #0
 8000aac:	647b      	str	r3, [r7, #68]	; 0x44
    sCommand.InstructionMode   		= HAL_OSPI_INSTRUCTION_1_LINE;				/* Instruction on a single line */
 8000aae:	2301      	movs	r3, #1
 8000ab0:	61fb      	str	r3, [r7, #28]
    sCommand.InstructionSize    	= HAL_OSPI_INSTRUCTION_8_BITS;				/* 8-bit Instruction */
 8000ab2:	2300      	movs	r3, #0
 8000ab4:	623b      	str	r3, [r7, #32]
    sCommand.AddressSize 			= HAL_OSPI_ADDRESS_24_BITS;					/* 24-bit Address */
 8000ab6:	f44f 5300 	mov.w	r3, #8192	; 0x2000
 8000aba:	633b      	str	r3, [r7, #48]	; 0x30
    /* Instruction */
    sCommand.Instruction 			= W25Q_FAST_READ_QUAD_IO_CMD;				/* What We Do? */
 8000abc:	23eb      	movs	r3, #235	; 0xeb
 8000abe:	61bb      	str	r3, [r7, #24]
    /* Address */
    sCommand.AddressMode       		= HAL_OSPI_ADDRESS_4_LINES;					/* Define Address Lines: Address On Four Lines */
 8000ac0:	f44f 7340 	mov.w	r3, #768	; 0x300
 8000ac4:	62fb      	str	r3, [r7, #44]	; 0x2c
    sCommand.Address				= 0;										/* Byte Address */
 8000ac6:	2300      	movs	r3, #0
 8000ac8:	62bb      	str	r3, [r7, #40]	; 0x28
    /* Data */
    sCommand.DataMode          		= HAL_OSPI_DATA_4_LINES;					/* Define Data Lines: Data On Four Lines */
 8000aca:	f04f 7340 	mov.w	r3, #50331648	; 0x3000000
 8000ace:	64bb      	str	r3, [r7, #72]	; 0x48
    sCommand.DummyCycles       		= W25Q_DUMMY_CYCLES_READ_QUAD;				/* Bytes Send With No Data */
 8000ad0:	2306      	movs	r3, #6
 8000ad2:	657b      	str	r3, [r7, #84]	; 0x54
    sCommand.NbData            		= 0;										/* Bytes Send With Data */
 8000ad4:	2300      	movs	r3, #0
 8000ad6:	64fb      	str	r3, [r7, #76]	; 0x4c

    if (HAL_OSPI_Command(hospi, &sCommand, HAL_OSPI_TIMEOUT_DEFAULT_VALUE) != HAL_OK) {
 8000ad8:	f107 0310 	add.w	r3, r7, #16
 8000adc:	f241 3288 	movw	r2, #5000	; 0x1388
 8000ae0:	4619      	mov	r1, r3
 8000ae2:	6878      	ldr	r0, [r7, #4]
 8000ae4:	f001 fc41 	bl	800236a <HAL_OSPI_Command>
 8000ae8:	4603      	mov	r3, r0
 8000aea:	2b00      	cmp	r3, #0
 8000aec:	d001      	beq.n	8000af2 <W25Q128_OSPI_EnableMemoryMappedMode+0x90>
        return HAL_ERROR;
 8000aee:	2301      	movs	r3, #1
 8000af0:	e045      	b.n	8000b7e <W25Q128_OSPI_EnableMemoryMappedMode+0x11c>
    }

    /* Initialize the program command */
	/* Common Commands*/
    sCommand.OperationType      	= HAL_OSPI_OPTYPE_WRITE_CFG; 				/* Write Configuration (Memory-Mapped Mode)) */
 8000af2:	2302      	movs	r3, #2
 8000af4:	613b      	str	r3, [r7, #16]
    sCommand.FlashId            	= HAL_OSPI_FLASH_ID_1; 						/* Set The OCTO SPI Flash ID */
 8000af6:	2300      	movs	r3, #0
 8000af8:	617b      	str	r3, [r7, #20]
    sCommand.InstructionDtrMode 	= HAL_OSPI_INSTRUCTION_DTR_DISABLE; 		/* Disable Instruction DDR/DTR Mode */
 8000afa:	2300      	movs	r3, #0
 8000afc:	627b      	str	r3, [r7, #36]	; 0x24
    sCommand.AddressDtrMode     	= HAL_OSPI_ADDRESS_DTR_DISABLE; 			/* Disable Address DDR/DTR Mode */
 8000afe:	2300      	movs	r3, #0
 8000b00:	637b      	str	r3, [r7, #52]	; 0x34
    sCommand.DataDtrMode			= HAL_OSPI_DATA_DTR_DISABLE; 				/* Disable Data DDR/DTR Mode */
 8000b02:	2300      	movs	r3, #0
 8000b04:	653b      	str	r3, [r7, #80]	; 0x50
    sCommand.DQSMode            	= HAL_OSPI_DQS_DISABLE; 					/* Disable Data Strobe */
 8000b06:	2300      	movs	r3, #0
 8000b08:	65bb      	str	r3, [r7, #88]	; 0x58
    sCommand.SIOOMode          		= HAL_OSPI_SIOO_INST_EVERY_CMD; 			/* SIOO Mode: Send instruction on every transaction */
 8000b0a:	2300      	movs	r3, #0
 8000b0c:	65fb      	str	r3, [r7, #92]	; 0x5c
    sCommand.AlternateBytesMode 	= HAL_OSPI_ALTERNATE_BYTES_NONE; 			/* Disable Alternate Bytes Mode */
 8000b0e:	2300      	movs	r3, #0
 8000b10:	63fb      	str	r3, [r7, #60]	; 0x3c
    sCommand.AlternateBytes			= HAL_OSPI_ALTERNATE_BYTES_NONE; 			/* Alternate Bytes = 0 */
 8000b12:	2300      	movs	r3, #0
 8000b14:	63bb      	str	r3, [r7, #56]	; 0x38
    sCommand.AlternateBytesSize		= HAL_OSPI_ALTERNATE_BYTES_NONE; 			/* Alternate Bytes Size = 0 */
 8000b16:	2300      	movs	r3, #0
 8000b18:	643b      	str	r3, [r7, #64]	; 0x40
    sCommand.AlternateBytesDtrMode	= HAL_OSPI_ALTERNATE_BYTES_DTR_DISABLE; 	/* Disable Alternate Bytes DDR/DTR Mode */
 8000b1a:	2300      	movs	r3, #0
 8000b1c:	647b      	str	r3, [r7, #68]	; 0x44
    sCommand.InstructionMode   		= HAL_OSPI_INSTRUCTION_1_LINE;				/* Instruction on a single line */
 8000b1e:	2301      	movs	r3, #1
 8000b20:	61fb      	str	r3, [r7, #28]
    sCommand.InstructionSize    	= HAL_OSPI_INSTRUCTION_8_BITS;				/* 8-bit Instruction */
 8000b22:	2300      	movs	r3, #0
 8000b24:	623b      	str	r3, [r7, #32]
    sCommand.AddressSize 			= HAL_OSPI_ADDRESS_24_BITS;					/* 24-bit Address */
 8000b26:	f44f 5300 	mov.w	r3, #8192	; 0x2000
 8000b2a:	633b      	str	r3, [r7, #48]	; 0x30
    /* Instruction */
    sCommand.Instruction 			= W25Q_PAGE_PROGRAM_QUAD_INP_CMD;			/* What We Do? */
 8000b2c:	2332      	movs	r3, #50	; 0x32
 8000b2e:	61bb      	str	r3, [r7, #24]
    /* Address */
    sCommand.AddressMode       		= HAL_OSPI_ADDRESS_1_LINE;					/* Define Address Lines: Address On a Single Line */
 8000b30:	f44f 7380 	mov.w	r3, #256	; 0x100
 8000b34:	62fb      	str	r3, [r7, #44]	; 0x2c
    sCommand.Address				= 0;										/* Byte Address */
 8000b36:	2300      	movs	r3, #0
 8000b38:	62bb      	str	r3, [r7, #40]	; 0x28
    /* Data */
    sCommand.DataMode          		= HAL_OSPI_DATA_4_LINES;					/* Define Data Lines: Data On Four Lines */
 8000b3a:	f04f 7340 	mov.w	r3, #50331648	; 0x3000000
 8000b3e:	64bb      	str	r3, [r7, #72]	; 0x48
    sCommand.DummyCycles       		= 0;										/* Bytes Send With No Data */
 8000b40:	2300      	movs	r3, #0
 8000b42:	657b      	str	r3, [r7, #84]	; 0x54
    sCommand.NbData            		= 0;										/* Bytes Send With Data */
 8000b44:	2300      	movs	r3, #0
 8000b46:	64fb      	str	r3, [r7, #76]	; 0x4c

    if (HAL_OSPI_Command(hospi, &sCommand, HAL_OSPI_TIMEOUT_DEFAULT_VALUE) != HAL_OK) {
 8000b48:	f107 0310 	add.w	r3, r7, #16
 8000b4c:	f241 3288 	movw	r2, #5000	; 0x1388
 8000b50:	4619      	mov	r1, r3
 8000b52:	6878      	ldr	r0, [r7, #4]
 8000b54:	f001 fc09 	bl	800236a <HAL_OSPI_Command>
 8000b58:	4603      	mov	r3, r0
 8000b5a:	2b00      	cmp	r3, #0
 8000b5c:	d001      	beq.n	8000b62 <W25Q128_OSPI_EnableMemoryMappedMode+0x100>
        return HAL_ERROR;
 8000b5e:	2301      	movs	r3, #1
 8000b60:	e00d      	b.n	8000b7e <W25Q128_OSPI_EnableMemoryMappedMode+0x11c>
    }

    /* Initialize Memory Mapped Command */
    sMemMappedCfg.TimeOutActivation 	= HAL_OSPI_TIMEOUT_COUNTER_DISABLE;		/* Timeout counter disabled, nCS remains active */
 8000b62:	2300      	movs	r3, #0
 8000b64:	60bb      	str	r3, [r7, #8]

    if (HAL_OSPI_MemoryMapped(hospi, &sMemMappedCfg) != HAL_OK) {
 8000b66:	f107 0308 	add.w	r3, r7, #8
 8000b6a:	4619      	mov	r1, r3
 8000b6c:	6878      	ldr	r0, [r7, #4]
 8000b6e:	f001 fe27 	bl	80027c0 <HAL_OSPI_MemoryMapped>
 8000b72:	4603      	mov	r3, r0
 8000b74:	2b00      	cmp	r3, #0
 8000b76:	d001      	beq.n	8000b7c <W25Q128_OSPI_EnableMemoryMappedMode+0x11a>
        return HAL_ERROR;
 8000b78:	2301      	movs	r3, #1
 8000b7a:	e000      	b.n	8000b7e <W25Q128_OSPI_EnableMemoryMappedMode+0x11c>
    }

    return HAL_OK;
 8000b7c:	2300      	movs	r3, #0
}
 8000b7e:	4618      	mov	r0, r3
 8000b80:	3760      	adds	r7, #96	; 0x60
 8000b82:	46bd      	mov	sp, r7
 8000b84:	bd80      	pop	{r7, pc}

08000b86 <W25Q128_IsBusy>:

/* Check Chip is Busy Function */
HAL_StatusTypeDef W25Q128_IsBusy(OSPI_HandleTypeDef* hospi)
{
 8000b86:	b580      	push	{r7, lr}
 8000b88:	b084      	sub	sp, #16
 8000b8a:	af00      	add	r7, sp, #0
 8000b8c:	6078      	str	r0, [r7, #4]
	HAL_StatusTypeDef state;
	uint8_t status_rgister = {0};
 8000b8e:	2300      	movs	r3, #0
 8000b90:	73bb      	strb	r3, [r7, #14]

	state = W25Q128_Read_Status_Registers(hospi, &status_rgister, 1);
 8000b92:	f107 030e 	add.w	r3, r7, #14
 8000b96:	2201      	movs	r2, #1
 8000b98:	4619      	mov	r1, r3
 8000b9a:	6878      	ldr	r0, [r7, #4]
 8000b9c:	f000 f816 	bl	8000bcc <W25Q128_Read_Status_Registers>
 8000ba0:	4603      	mov	r3, r0
 8000ba2:	73fb      	strb	r3, [r7, #15]
	if (state != HAL_OK)
 8000ba4:	7bfb      	ldrb	r3, [r7, #15]
 8000ba6:	2b00      	cmp	r3, #0
 8000ba8:	d001      	beq.n	8000bae <W25Q128_IsBusy+0x28>
		return state;
 8000baa:	7bfb      	ldrb	r3, [r7, #15]
 8000bac:	e00a      	b.n	8000bc4 <W25Q128_IsBusy+0x3e>

	status_rgister = status_rgister & 0b1;
 8000bae:	7bbb      	ldrb	r3, [r7, #14]
 8000bb0:	f003 0301 	and.w	r3, r3, #1
 8000bb4:	b2db      	uxtb	r3, r3
 8000bb6:	73bb      	strb	r3, [r7, #14]

	return status_rgister ? HAL_ERROR : HAL_OK;
 8000bb8:	7bbb      	ldrb	r3, [r7, #14]
 8000bba:	2b00      	cmp	r3, #0
 8000bbc:	bf14      	ite	ne
 8000bbe:	2301      	movne	r3, #1
 8000bc0:	2300      	moveq	r3, #0
 8000bc2:	b2db      	uxtb	r3, r3
}
 8000bc4:	4618      	mov	r0, r3
 8000bc6:	3710      	adds	r7, #16
 8000bc8:	46bd      	mov	sp, r7
 8000bca:	bd80      	pop	{r7, pc}

08000bcc <W25Q128_Read_Status_Registers>:

/* Read Status Registers Function */
HAL_StatusTypeDef W25Q128_Read_Status_Registers(OSPI_HandleTypeDef* hospi, uint8_t* register_data, uint8_t register_num)
{
 8000bcc:	b580      	push	{r7, lr}
 8000bce:	b098      	sub	sp, #96	; 0x60
 8000bd0:	af00      	add	r7, sp, #0
 8000bd2:	60f8      	str	r0, [r7, #12]
 8000bd4:	60b9      	str	r1, [r7, #8]
 8000bd6:	4613      	mov	r3, r2
 8000bd8:	71fb      	strb	r3, [r7, #7]
	OSPI_RegularCmdTypeDef sCommand={0};
 8000bda:	f107 0310 	add.w	r3, r7, #16
 8000bde:	2250      	movs	r2, #80	; 0x50
 8000be0:	2100      	movs	r1, #0
 8000be2:	4618      	mov	r0, r3
 8000be4:	f005 fa50 	bl	8006088 <memset>

	/* Common Commands*/
    sCommand.OperationType      	= HAL_OSPI_OPTYPE_COMMON_CFG; 				/* Common configuration (indirect or auto-polling mode) */
 8000be8:	2300      	movs	r3, #0
 8000bea:	613b      	str	r3, [r7, #16]
    sCommand.FlashId            	= HAL_OSPI_FLASH_ID_1; 						/* Set The OCTO SPI Flash ID */
 8000bec:	2300      	movs	r3, #0
 8000bee:	617b      	str	r3, [r7, #20]
    sCommand.InstructionDtrMode 	= HAL_OSPI_INSTRUCTION_DTR_DISABLE; 		/* Disable Instruction DDR/DTR Mode */
 8000bf0:	2300      	movs	r3, #0
 8000bf2:	627b      	str	r3, [r7, #36]	; 0x24
    sCommand.AddressDtrMode     	= HAL_OSPI_ADDRESS_DTR_DISABLE; 			/* Disable Address DDR/DTR Mode */
 8000bf4:	2300      	movs	r3, #0
 8000bf6:	637b      	str	r3, [r7, #52]	; 0x34
    sCommand.DataDtrMode			= HAL_OSPI_DATA_DTR_DISABLE; 				/* Disable Data DDR/DTR Mode */
 8000bf8:	2300      	movs	r3, #0
 8000bfa:	653b      	str	r3, [r7, #80]	; 0x50
    sCommand.DQSMode            	= HAL_OSPI_DQS_DISABLE; 					/* Disable Data Strobe */
 8000bfc:	2300      	movs	r3, #0
 8000bfe:	65bb      	str	r3, [r7, #88]	; 0x58
    sCommand.SIOOMode          		= HAL_OSPI_SIOO_INST_EVERY_CMD; 			/* SIOO Mode: Send instruction on every transaction */
 8000c00:	2300      	movs	r3, #0
 8000c02:	65fb      	str	r3, [r7, #92]	; 0x5c
    sCommand.AlternateBytesMode 	= HAL_OSPI_ALTERNATE_BYTES_NONE; 			/* Disable Alternate Bytes Mode */
 8000c04:	2300      	movs	r3, #0
 8000c06:	63fb      	str	r3, [r7, #60]	; 0x3c
    sCommand.AlternateBytes			= HAL_OSPI_ALTERNATE_BYTES_NONE; 			/* Alternate Bytes = 0 */
 8000c08:	2300      	movs	r3, #0
 8000c0a:	63bb      	str	r3, [r7, #56]	; 0x38
    sCommand.AlternateBytesSize		= HAL_OSPI_ALTERNATE_BYTES_NONE; 			/* Alternate Bytes Size = 0 */
 8000c0c:	2300      	movs	r3, #0
 8000c0e:	643b      	str	r3, [r7, #64]	; 0x40
    sCommand.AlternateBytesDtrMode	= HAL_OSPI_ALTERNATE_BYTES_DTR_DISABLE; 	/* Disable Alternate Bytes DDR/DTR Mode */
 8000c10:	2300      	movs	r3, #0
 8000c12:	647b      	str	r3, [r7, #68]	; 0x44
    sCommand.InstructionMode   		= HAL_OSPI_INSTRUCTION_1_LINE;				/* Instruction on a single line */
 8000c14:	2301      	movs	r3, #1
 8000c16:	61fb      	str	r3, [r7, #28]
    sCommand.InstructionSize    	= HAL_OSPI_INSTRUCTION_8_BITS;				/* 8-bit Instruction */
 8000c18:	2300      	movs	r3, #0
 8000c1a:	623b      	str	r3, [r7, #32]
    sCommand.AddressSize 			= HAL_OSPI_ADDRESS_24_BITS;					/* 24-bit Address */
 8000c1c:	f44f 5300 	mov.w	r3, #8192	; 0x2000
 8000c20:	633b      	str	r3, [r7, #48]	; 0x30
    /* Instruction */
    sCommand.Instruction 			= 0;										/* What We Do? */
 8000c22:	2300      	movs	r3, #0
 8000c24:	61bb      	str	r3, [r7, #24]
    /* Address */
    sCommand.AddressMode       		= HAL_OSPI_ADDRESS_NONE;					/* Define Address Lines: No Address */
 8000c26:	2300      	movs	r3, #0
 8000c28:	62fb      	str	r3, [r7, #44]	; 0x2c
    sCommand.Address				= 0;										/* Byte Address */
 8000c2a:	2300      	movs	r3, #0
 8000c2c:	62bb      	str	r3, [r7, #40]	; 0x28
    /* Data */
    sCommand.DataMode          		= HAL_OSPI_DATA_1_LINE;						/* Define Data Lines: Data On a Single Line */
 8000c2e:	f04f 7380 	mov.w	r3, #16777216	; 0x1000000
 8000c32:	64bb      	str	r3, [r7, #72]	; 0x48
    sCommand.DummyCycles       		= 0;										/* Bytes Send With No Data */
 8000c34:	2300      	movs	r3, #0
 8000c36:	657b      	str	r3, [r7, #84]	; 0x54
    sCommand.NbData            		= 1;										/* Bytes Send With Data */
 8000c38:	2301      	movs	r3, #1
 8000c3a:	64fb      	str	r3, [r7, #76]	; 0x4c


	if (register_num == 1)
 8000c3c:	79fb      	ldrb	r3, [r7, #7]
 8000c3e:	2b01      	cmp	r3, #1
 8000c40:	d102      	bne.n	8000c48 <W25Q128_Read_Status_Registers+0x7c>
		sCommand.Instruction = W25Q_READ_SR1_CMD;
 8000c42:	2305      	movs	r3, #5
 8000c44:	61bb      	str	r3, [r7, #24]
 8000c46:	e00d      	b.n	8000c64 <W25Q128_Read_Status_Registers+0x98>
	else if (register_num == 2)
 8000c48:	79fb      	ldrb	r3, [r7, #7]
 8000c4a:	2b02      	cmp	r3, #2
 8000c4c:	d102      	bne.n	8000c54 <W25Q128_Read_Status_Registers+0x88>
		sCommand.Instruction = W25Q_READ_SR2_CMD;
 8000c4e:	2335      	movs	r3, #53	; 0x35
 8000c50:	61bb      	str	r3, [r7, #24]
 8000c52:	e007      	b.n	8000c64 <W25Q128_Read_Status_Registers+0x98>
	else if (register_num == 3)
 8000c54:	79fb      	ldrb	r3, [r7, #7]
 8000c56:	2b03      	cmp	r3, #3
 8000c58:	d102      	bne.n	8000c60 <W25Q128_Read_Status_Registers+0x94>
		sCommand.Instruction = W25Q_READ_SR3_CMD;
 8000c5a:	2315      	movs	r3, #21
 8000c5c:	61bb      	str	r3, [r7, #24]
 8000c5e:	e001      	b.n	8000c64 <W25Q128_Read_Status_Registers+0x98>
	else
		sCommand.Instruction = 0x9F; // read JEDEC ID
 8000c60:	239f      	movs	r3, #159	; 0x9f
 8000c62:	61bb      	str	r3, [r7, #24]

    if (HAL_OSPI_Command(hospi, &sCommand, HAL_OSPI_TIMEOUT_DEFAULT_VALUE) != HAL_OK)
 8000c64:	f107 0310 	add.w	r3, r7, #16
 8000c68:	f241 3288 	movw	r2, #5000	; 0x1388
 8000c6c:	4619      	mov	r1, r3
 8000c6e:	68f8      	ldr	r0, [r7, #12]
 8000c70:	f001 fb7b 	bl	800236a <HAL_OSPI_Command>
 8000c74:	4603      	mov	r3, r0
 8000c76:	2b00      	cmp	r3, #0
 8000c78:	d001      	beq.n	8000c7e <W25Q128_Read_Status_Registers+0xb2>
    {
        return HAL_ERROR;
 8000c7a:	2301      	movs	r3, #1
 8000c7c:	e00b      	b.n	8000c96 <W25Q128_Read_Status_Registers+0xca>
    }

    if (HAL_OSPI_Receive(hospi, register_data, HAL_OSPI_TIMEOUT_DEFAULT_VALUE) != HAL_OK)
 8000c7e:	f241 3288 	movw	r2, #5000	; 0x1388
 8000c82:	68b9      	ldr	r1, [r7, #8]
 8000c84:	68f8      	ldr	r0, [r7, #12]
 8000c86:	f001 fc70 	bl	800256a <HAL_OSPI_Receive>
 8000c8a:	4603      	mov	r3, r0
 8000c8c:	2b00      	cmp	r3, #0
 8000c8e:	d001      	beq.n	8000c94 <W25Q128_Read_Status_Registers+0xc8>
    {
        return HAL_ERROR;
 8000c90:	2301      	movs	r3, #1
 8000c92:	e000      	b.n	8000c96 <W25Q128_Read_Status_Registers+0xca>
    }

	return HAL_OK;
 8000c94:	2300      	movs	r3, #0
}
 8000c96:	4618      	mov	r0, r3
 8000c98:	3760      	adds	r7, #96	; 0x60
 8000c9a:	46bd      	mov	sp, r7
 8000c9c:	bd80      	pop	{r7, pc}

08000c9e <W25Q128_Read_JEDEC_ID>:


HAL_StatusTypeDef W25Q128_Read_JEDEC_ID(OSPI_HandleTypeDef* hospi, uint16_t* register_data, uint8_t register_num)
{
 8000c9e:	b580      	push	{r7, lr}
 8000ca0:	b098      	sub	sp, #96	; 0x60
 8000ca2:	af00      	add	r7, sp, #0
 8000ca4:	60f8      	str	r0, [r7, #12]
 8000ca6:	60b9      	str	r1, [r7, #8]
 8000ca8:	4613      	mov	r3, r2
 8000caa:	71fb      	strb	r3, [r7, #7]
	OSPI_RegularCmdTypeDef sCommand={0};
 8000cac:	f107 0310 	add.w	r3, r7, #16
 8000cb0:	2250      	movs	r2, #80	; 0x50
 8000cb2:	2100      	movs	r1, #0
 8000cb4:	4618      	mov	r0, r3
 8000cb6:	f005 f9e7 	bl	8006088 <memset>

	/* Common Commands*/
    sCommand.OperationType      	= HAL_OSPI_OPTYPE_COMMON_CFG; 				/* Common configuration (indirect or auto-polling mode) */
 8000cba:	2300      	movs	r3, #0
 8000cbc:	613b      	str	r3, [r7, #16]
    sCommand.FlashId            	= HAL_OSPI_FLASH_ID_1; 						/* Set The OCTO SPI Flash ID */
 8000cbe:	2300      	movs	r3, #0
 8000cc0:	617b      	str	r3, [r7, #20]
    sCommand.InstructionDtrMode 	= HAL_OSPI_INSTRUCTION_DTR_DISABLE; 		/* Disable Instruction DDR/DTR Mode */
 8000cc2:	2300      	movs	r3, #0
 8000cc4:	627b      	str	r3, [r7, #36]	; 0x24
    sCommand.AddressDtrMode     	= HAL_OSPI_ADDRESS_DTR_DISABLE; 			/* Disable Address DDR/DTR Mode */
 8000cc6:	2300      	movs	r3, #0
 8000cc8:	637b      	str	r3, [r7, #52]	; 0x34
    sCommand.DataDtrMode			= HAL_OSPI_DATA_DTR_DISABLE; 				/* Disable Data DDR/DTR Mode */
 8000cca:	2300      	movs	r3, #0
 8000ccc:	653b      	str	r3, [r7, #80]	; 0x50
    sCommand.DQSMode            	= HAL_OSPI_DQS_DISABLE; 					/* Disable Data Strobe */
 8000cce:	2300      	movs	r3, #0
 8000cd0:	65bb      	str	r3, [r7, #88]	; 0x58
    sCommand.SIOOMode          		= HAL_OSPI_SIOO_INST_EVERY_CMD; 			/* SIOO Mode: Send instruction on every transaction */
 8000cd2:	2300      	movs	r3, #0
 8000cd4:	65fb      	str	r3, [r7, #92]	; 0x5c
    sCommand.AlternateBytesMode 	= HAL_OSPI_ALTERNATE_BYTES_NONE; 			/* Disable Alternate Bytes Mode */
 8000cd6:	2300      	movs	r3, #0
 8000cd8:	63fb      	str	r3, [r7, #60]	; 0x3c
    sCommand.AlternateBytes			= HAL_OSPI_ALTERNATE_BYTES_NONE; 			/* Alternate Bytes = 0 */
 8000cda:	2300      	movs	r3, #0
 8000cdc:	63bb      	str	r3, [r7, #56]	; 0x38
    sCommand.AlternateBytesSize		= HAL_OSPI_ALTERNATE_BYTES_NONE; 			/* Alternate Bytes Size = 0 */
 8000cde:	2300      	movs	r3, #0
 8000ce0:	643b      	str	r3, [r7, #64]	; 0x40
    sCommand.AlternateBytesDtrMode	= HAL_OSPI_ALTERNATE_BYTES_DTR_DISABLE; 	/* Disable Alternate Bytes DDR/DTR Mode */
 8000ce2:	2300      	movs	r3, #0
 8000ce4:	647b      	str	r3, [r7, #68]	; 0x44
    sCommand.InstructionMode   		= HAL_OSPI_INSTRUCTION_1_LINE;				/* Instruction on a single line */
 8000ce6:	2301      	movs	r3, #1
 8000ce8:	61fb      	str	r3, [r7, #28]
    sCommand.InstructionSize    	= HAL_OSPI_INSTRUCTION_8_BITS;				/* 8-bit Instruction */
 8000cea:	2300      	movs	r3, #0
 8000cec:	623b      	str	r3, [r7, #32]
    sCommand.AddressSize 			= HAL_OSPI_ADDRESS_24_BITS;					/* 24-bit Address */
 8000cee:	f44f 5300 	mov.w	r3, #8192	; 0x2000
 8000cf2:	633b      	str	r3, [r7, #48]	; 0x30
    /* Instruction */
    sCommand.Instruction 			= 0;										/* What We Do? */
 8000cf4:	2300      	movs	r3, #0
 8000cf6:	61bb      	str	r3, [r7, #24]
    /* Address */
    sCommand.AddressMode       		= HAL_OSPI_ADDRESS_NONE;					/* Define Address Lines: No Address */
 8000cf8:	2300      	movs	r3, #0
 8000cfa:	62fb      	str	r3, [r7, #44]	; 0x2c
    sCommand.Address				= 0;										/* Byte Address */
 8000cfc:	2300      	movs	r3, #0
 8000cfe:	62bb      	str	r3, [r7, #40]	; 0x28
    /* Data */
    sCommand.DataMode          		= HAL_OSPI_DATA_1_LINE;						/* Define Data Lines: Data On a Single Line */
 8000d00:	f04f 7380 	mov.w	r3, #16777216	; 0x1000000
 8000d04:	64bb      	str	r3, [r7, #72]	; 0x48
    sCommand.DummyCycles       		= 0;										/* Bytes Send With No Data */
 8000d06:	2300      	movs	r3, #0
 8000d08:	657b      	str	r3, [r7, #84]	; 0x54
    sCommand.NbData            		= 1;										/* Bytes Send With Data */
 8000d0a:	2301      	movs	r3, #1
 8000d0c:	64fb      	str	r3, [r7, #76]	; 0x4c


	sCommand.Instruction = 0x9F; // read JEDEC ID
 8000d0e:	239f      	movs	r3, #159	; 0x9f
 8000d10:	61bb      	str	r3, [r7, #24]

    if (HAL_OSPI_Command(hospi, &sCommand, HAL_OSPI_TIMEOUT_DEFAULT_VALUE) != HAL_OK)
 8000d12:	f107 0310 	add.w	r3, r7, #16
 8000d16:	f241 3288 	movw	r2, #5000	; 0x1388
 8000d1a:	4619      	mov	r1, r3
 8000d1c:	68f8      	ldr	r0, [r7, #12]
 8000d1e:	f001 fb24 	bl	800236a <HAL_OSPI_Command>
 8000d22:	4603      	mov	r3, r0
 8000d24:	2b00      	cmp	r3, #0
 8000d26:	d001      	beq.n	8000d2c <W25Q128_Read_JEDEC_ID+0x8e>
    {
        return HAL_ERROR;
 8000d28:	2301      	movs	r3, #1
 8000d2a:	e00b      	b.n	8000d44 <W25Q128_Read_JEDEC_ID+0xa6>
    }

    if (HAL_OSPI_Receive(hospi, register_data, HAL_OSPI_TIMEOUT_DEFAULT_VALUE) != HAL_OK)
 8000d2c:	f241 3288 	movw	r2, #5000	; 0x1388
 8000d30:	68b9      	ldr	r1, [r7, #8]
 8000d32:	68f8      	ldr	r0, [r7, #12]
 8000d34:	f001 fc19 	bl	800256a <HAL_OSPI_Receive>
 8000d38:	4603      	mov	r3, r0
 8000d3a:	2b00      	cmp	r3, #0
 8000d3c:	d001      	beq.n	8000d42 <W25Q128_Read_JEDEC_ID+0xa4>
    {
        return HAL_ERROR;
 8000d3e:	2301      	movs	r3, #1
 8000d40:	e000      	b.n	8000d44 <W25Q128_Read_JEDEC_ID+0xa6>
    }

	return HAL_OK;
 8000d42:	2300      	movs	r3, #0
}
 8000d44:	4618      	mov	r0, r3
 8000d46:	3760      	adds	r7, #96	; 0x60
 8000d48:	46bd      	mov	sp, r7
 8000d4a:	bd80      	pop	{r7, pc}

08000d4c <W25Q128_Write_Status_Registers>:

/* Write Status Registers Function */
HAL_StatusTypeDef W25Q128_Write_Status_Registers(OSPI_HandleTypeDef* hospi, uint8_t reg_data, uint8_t reg_num, uint8_t isVolatile)
{
 8000d4c:	b580      	push	{r7, lr}
 8000d4e:	b096      	sub	sp, #88	; 0x58
 8000d50:	af00      	add	r7, sp, #0
 8000d52:	6078      	str	r0, [r7, #4]
 8000d54:	4608      	mov	r0, r1
 8000d56:	4611      	mov	r1, r2
 8000d58:	461a      	mov	r2, r3
 8000d5a:	4603      	mov	r3, r0
 8000d5c:	70fb      	strb	r3, [r7, #3]
 8000d5e:	460b      	mov	r3, r1
 8000d60:	70bb      	strb	r3, [r7, #2]
 8000d62:	4613      	mov	r3, r2
 8000d64:	707b      	strb	r3, [r7, #1]
	OSPI_RegularCmdTypeDef sCommand;

	/* Common Commands*/
    sCommand.OperationType      	= HAL_OSPI_OPTYPE_COMMON_CFG; 				/* Common configuration (indirect or auto-polling mode) */
 8000d66:	2300      	movs	r3, #0
 8000d68:	60bb      	str	r3, [r7, #8]
    sCommand.FlashId            	= HAL_OSPI_FLASH_ID_1; 						/* Set The OCTO SPI Flash ID */
 8000d6a:	2300      	movs	r3, #0
 8000d6c:	60fb      	str	r3, [r7, #12]
    sCommand.InstructionDtrMode 	= HAL_OSPI_INSTRUCTION_DTR_DISABLE; 		/* Disable Instruction DDR/DTR Mode */
 8000d6e:	2300      	movs	r3, #0
 8000d70:	61fb      	str	r3, [r7, #28]
    sCommand.AddressDtrMode     	= HAL_OSPI_ADDRESS_DTR_DISABLE; 			/* Disable Address DDR/DTR Mode */
 8000d72:	2300      	movs	r3, #0
 8000d74:	62fb      	str	r3, [r7, #44]	; 0x2c
    sCommand.DataDtrMode			= HAL_OSPI_DATA_DTR_DISABLE; 				/* Disable Data DDR/DTR Mode */
 8000d76:	2300      	movs	r3, #0
 8000d78:	64bb      	str	r3, [r7, #72]	; 0x48
    sCommand.DQSMode            	= HAL_OSPI_DQS_DISABLE; 					/* Disable Data Strobe */
 8000d7a:	2300      	movs	r3, #0
 8000d7c:	653b      	str	r3, [r7, #80]	; 0x50
    sCommand.SIOOMode          		= HAL_OSPI_SIOO_INST_EVERY_CMD; 			/* SIOO Mode: Send instruction on every transaction */
 8000d7e:	2300      	movs	r3, #0
 8000d80:	657b      	str	r3, [r7, #84]	; 0x54
    sCommand.AlternateBytesMode 	= HAL_OSPI_ALTERNATE_BYTES_NONE; 			/* Disable Alternate Bytes Mode */
 8000d82:	2300      	movs	r3, #0
 8000d84:	637b      	str	r3, [r7, #52]	; 0x34
    sCommand.AlternateBytes			= HAL_OSPI_ALTERNATE_BYTES_NONE; 			/* Alternate Bytes = 0 */
 8000d86:	2300      	movs	r3, #0
 8000d88:	633b      	str	r3, [r7, #48]	; 0x30
    sCommand.AlternateBytesSize		= HAL_OSPI_ALTERNATE_BYTES_NONE; 			/* Alternate Bytes Size = 0 */
 8000d8a:	2300      	movs	r3, #0
 8000d8c:	63bb      	str	r3, [r7, #56]	; 0x38
    sCommand.AlternateBytesDtrMode	= HAL_OSPI_ALTERNATE_BYTES_DTR_DISABLE; 	/* Disable Alternate Bytes DDR/DTR Mode */
 8000d8e:	2300      	movs	r3, #0
 8000d90:	63fb      	str	r3, [r7, #60]	; 0x3c
    sCommand.InstructionMode   		= HAL_OSPI_INSTRUCTION_1_LINE;				/* Instruction on a single line */
 8000d92:	2301      	movs	r3, #1
 8000d94:	617b      	str	r3, [r7, #20]
    sCommand.InstructionSize    	= HAL_OSPI_INSTRUCTION_8_BITS;				/* 8-bit Instruction */
 8000d96:	2300      	movs	r3, #0
 8000d98:	61bb      	str	r3, [r7, #24]
    sCommand.AddressSize 			= HAL_OSPI_ADDRESS_24_BITS;					/* 24-bit Address */
 8000d9a:	f44f 5300 	mov.w	r3, #8192	; 0x2000
 8000d9e:	62bb      	str	r3, [r7, #40]	; 0x28
    /* Instruction */
    sCommand.Instruction 			= W25Q_WRITE_DISABLE_CMD;					/* What We Do? */
 8000da0:	2304      	movs	r3, #4
 8000da2:	613b      	str	r3, [r7, #16]
    /* Address */
    sCommand.AddressMode       		= HAL_OSPI_ADDRESS_NONE;					/* Define Address Lines: No Address */
 8000da4:	2300      	movs	r3, #0
 8000da6:	627b      	str	r3, [r7, #36]	; 0x24
    sCommand.Address				= 0;										/* Byte Address */
 8000da8:	2300      	movs	r3, #0
 8000daa:	623b      	str	r3, [r7, #32]
    /* Data */
    sCommand.DataMode          		= HAL_OSPI_DATA_NONE;						/* Define Data Lines: No Data */
 8000dac:	2300      	movs	r3, #0
 8000dae:	643b      	str	r3, [r7, #64]	; 0x40
    sCommand.DummyCycles       		= 0;										/* Bytes Send With No Data */
 8000db0:	2300      	movs	r3, #0
 8000db2:	64fb      	str	r3, [r7, #76]	; 0x4c
    sCommand.NbData            		= 0;										/* Bytes Send With Data */
 8000db4:	2300      	movs	r3, #0
 8000db6:	647b      	str	r3, [r7, #68]	; 0x44

    if(isVolatile)
 8000db8:	787b      	ldrb	r3, [r7, #1]
 8000dba:	2b00      	cmp	r3, #0
 8000dbc:	d02b      	beq.n	8000e16 <W25Q128_Write_Status_Registers+0xca>
    {
		if (HAL_OSPI_Command(hospi, &sCommand, HAL_OSPI_TIMEOUT_DEFAULT_VALUE) != HAL_OK) {
 8000dbe:	f107 0308 	add.w	r3, r7, #8
 8000dc2:	f241 3288 	movw	r2, #5000	; 0x1388
 8000dc6:	4619      	mov	r1, r3
 8000dc8:	6878      	ldr	r0, [r7, #4]
 8000dca:	f001 face 	bl	800236a <HAL_OSPI_Command>
 8000dce:	4603      	mov	r3, r0
 8000dd0:	2b00      	cmp	r3, #0
 8000dd2:	d001      	beq.n	8000dd8 <W25Q128_Write_Status_Registers+0x8c>
			return HAL_ERROR;
 8000dd4:	2301      	movs	r3, #1
 8000dd6:	e064      	b.n	8000ea2 <W25Q128_Write_Status_Registers+0x156>
		}
		if (W25Q128_OSPI_AutoPollingMemReady(hospi) != HAL_OK) {
 8000dd8:	6878      	ldr	r0, [r7, #4]
 8000dda:	f7ff fc8b 	bl	80006f4 <W25Q128_OSPI_AutoPollingMemReady>
 8000dde:	4603      	mov	r3, r0
 8000de0:	2b00      	cmp	r3, #0
 8000de2:	d001      	beq.n	8000de8 <W25Q128_Write_Status_Registers+0x9c>
			return HAL_ERROR;
 8000de4:	2301      	movs	r3, #1
 8000de6:	e05c      	b.n	8000ea2 <W25Q128_Write_Status_Registers+0x156>
		}

		sCommand.Instruction 			= W25Q_ENABLE_VOLATILE_SR_CMD;				/* What We Do? */
 8000de8:	2350      	movs	r3, #80	; 0x50
 8000dea:	613b      	str	r3, [r7, #16]
		if (HAL_OSPI_Command(hospi, &sCommand, HAL_OSPI_TIMEOUT_DEFAULT_VALUE) != HAL_OK) {
 8000dec:	f107 0308 	add.w	r3, r7, #8
 8000df0:	f241 3288 	movw	r2, #5000	; 0x1388
 8000df4:	4619      	mov	r1, r3
 8000df6:	6878      	ldr	r0, [r7, #4]
 8000df8:	f001 fab7 	bl	800236a <HAL_OSPI_Command>
 8000dfc:	4603      	mov	r3, r0
 8000dfe:	2b00      	cmp	r3, #0
 8000e00:	d001      	beq.n	8000e06 <W25Q128_Write_Status_Registers+0xba>
			return HAL_ERROR;
 8000e02:	2301      	movs	r3, #1
 8000e04:	e04d      	b.n	8000ea2 <W25Q128_Write_Status_Registers+0x156>
		}
		if (W25Q128_OSPI_AutoPollingMemReady(hospi) != HAL_OK) {
 8000e06:	6878      	ldr	r0, [r7, #4]
 8000e08:	f7ff fc74 	bl	80006f4 <W25Q128_OSPI_AutoPollingMemReady>
 8000e0c:	4603      	mov	r3, r0
 8000e0e:	2b00      	cmp	r3, #0
 8000e10:	d004      	beq.n	8000e1c <W25Q128_Write_Status_Registers+0xd0>
			return HAL_ERROR;
 8000e12:	2301      	movs	r3, #1
 8000e14:	e045      	b.n	8000ea2 <W25Q128_Write_Status_Registers+0x156>
		}
    }
    else
    {
    	W25Q128_OSPI_WriteEnable(hospi);
 8000e16:	6878      	ldr	r0, [r7, #4]
 8000e18:	f7ff fbde 	bl	80005d8 <W25Q128_OSPI_WriteEnable>
    }

	if (reg_num == 1)
 8000e1c:	78bb      	ldrb	r3, [r7, #2]
 8000e1e:	2b01      	cmp	r3, #1
 8000e20:	d102      	bne.n	8000e28 <W25Q128_Write_Status_Registers+0xdc>
		sCommand.Instruction = W25Q_WRITE_SR1_CMD;
 8000e22:	2301      	movs	r3, #1
 8000e24:	613b      	str	r3, [r7, #16]
 8000e26:	e00d      	b.n	8000e44 <W25Q128_Write_Status_Registers+0xf8>
	else if (reg_num == 2)
 8000e28:	78bb      	ldrb	r3, [r7, #2]
 8000e2a:	2b02      	cmp	r3, #2
 8000e2c:	d102      	bne.n	8000e34 <W25Q128_Write_Status_Registers+0xe8>
		sCommand.Instruction = W25Q_WRITE_SR2_CMD;
 8000e2e:	2331      	movs	r3, #49	; 0x31
 8000e30:	613b      	str	r3, [r7, #16]
 8000e32:	e007      	b.n	8000e44 <W25Q128_Write_Status_Registers+0xf8>
	else if (reg_num == 3)
 8000e34:	78bb      	ldrb	r3, [r7, #2]
 8000e36:	2b03      	cmp	r3, #3
 8000e38:	d102      	bne.n	8000e40 <W25Q128_Write_Status_Registers+0xf4>
		sCommand.Instruction = W25Q_WRITE_SR3_CMD;
 8000e3a:	2311      	movs	r3, #17
 8000e3c:	613b      	str	r3, [r7, #16]
 8000e3e:	e001      	b.n	8000e44 <W25Q128_Write_Status_Registers+0xf8>
	else
		return HAL_ERROR;
 8000e40:	2301      	movs	r3, #1
 8000e42:	e02e      	b.n	8000ea2 <W25Q128_Write_Status_Registers+0x156>

	sCommand.DataMode          		= HAL_OSPI_DATA_1_LINE;
 8000e44:	f04f 7380 	mov.w	r3, #16777216	; 0x1000000
 8000e48:	643b      	str	r3, [r7, #64]	; 0x40
	sCommand.NbData            		= 1;
 8000e4a:	2301      	movs	r3, #1
 8000e4c:	647b      	str	r3, [r7, #68]	; 0x44

	if (W25Q128_OSPI_WriteEnable(hospi) != HAL_OK) {
 8000e4e:	6878      	ldr	r0, [r7, #4]
 8000e50:	f7ff fbc2 	bl	80005d8 <W25Q128_OSPI_WriteEnable>
 8000e54:	4603      	mov	r3, r0
 8000e56:	2b00      	cmp	r3, #0
 8000e58:	d001      	beq.n	8000e5e <W25Q128_Write_Status_Registers+0x112>
		return HAL_ERROR;
 8000e5a:	2301      	movs	r3, #1
 8000e5c:	e021      	b.n	8000ea2 <W25Q128_Write_Status_Registers+0x156>
	}

	if (HAL_OSPI_Command(hospi, &sCommand, HAL_OSPI_TIMEOUT_DEFAULT_VALUE) != HAL_OK) {
 8000e5e:	f107 0308 	add.w	r3, r7, #8
 8000e62:	f241 3288 	movw	r2, #5000	; 0x1388
 8000e66:	4619      	mov	r1, r3
 8000e68:	6878      	ldr	r0, [r7, #4]
 8000e6a:	f001 fa7e 	bl	800236a <HAL_OSPI_Command>
 8000e6e:	4603      	mov	r3, r0
 8000e70:	2b00      	cmp	r3, #0
 8000e72:	d001      	beq.n	8000e78 <W25Q128_Write_Status_Registers+0x12c>
		return HAL_ERROR;
 8000e74:	2301      	movs	r3, #1
 8000e76:	e014      	b.n	8000ea2 <W25Q128_Write_Status_Registers+0x156>
	}
	if (HAL_OSPI_Transmit(hospi, &reg_data, HAL_OSPI_TIMEOUT_DEFAULT_VALUE) != HAL_OK) {
 8000e78:	1cfb      	adds	r3, r7, #3
 8000e7a:	f241 3288 	movw	r2, #5000	; 0x1388
 8000e7e:	4619      	mov	r1, r3
 8000e80:	6878      	ldr	r0, [r7, #4]
 8000e82:	f001 faff 	bl	8002484 <HAL_OSPI_Transmit>
 8000e86:	4603      	mov	r3, r0
 8000e88:	2b00      	cmp	r3, #0
 8000e8a:	d001      	beq.n	8000e90 <W25Q128_Write_Status_Registers+0x144>
		return HAL_ERROR;
 8000e8c:	2301      	movs	r3, #1
 8000e8e:	e008      	b.n	8000ea2 <W25Q128_Write_Status_Registers+0x156>
	}
	if (W25Q128_OSPI_AutoPollingMemReady(hospi) != HAL_OK) {
 8000e90:	6878      	ldr	r0, [r7, #4]
 8000e92:	f7ff fc2f 	bl	80006f4 <W25Q128_OSPI_AutoPollingMemReady>
 8000e96:	4603      	mov	r3, r0
 8000e98:	2b00      	cmp	r3, #0
 8000e9a:	d001      	beq.n	8000ea0 <W25Q128_Write_Status_Registers+0x154>
        return HAL_ERROR;
 8000e9c:	2301      	movs	r3, #1
 8000e9e:	e000      	b.n	8000ea2 <W25Q128_Write_Status_Registers+0x156>
    }

	return HAL_OK;
 8000ea0:	2300      	movs	r3, #0
}
 8000ea2:	4618      	mov	r0, r3
 8000ea4:	3758      	adds	r7, #88	; 0x58
 8000ea6:	46bd      	mov	sp, r7
 8000ea8:	bd80      	pop	{r7, pc}
	...

08000eac <MX_GPIO_Init>:
        * Output
        * EVENT_OUT
        * EXTI
*/
void MX_GPIO_Init(void)
{
 8000eac:	b580      	push	{r7, lr}
 8000eae:	b08a      	sub	sp, #40	; 0x28
 8000eb0:	af00      	add	r7, sp, #0

  GPIO_InitTypeDef GPIO_InitStruct = {0};
 8000eb2:	f107 0314 	add.w	r3, r7, #20
 8000eb6:	2200      	movs	r2, #0
 8000eb8:	601a      	str	r2, [r3, #0]
 8000eba:	605a      	str	r2, [r3, #4]
 8000ebc:	609a      	str	r2, [r3, #8]
 8000ebe:	60da      	str	r2, [r3, #12]
 8000ec0:	611a      	str	r2, [r3, #16]

  /* GPIO Ports Clock Enable */
  __HAL_RCC_GPIOH_CLK_ENABLE();
 8000ec2:	4b31      	ldr	r3, [pc, #196]	; (8000f88 <MX_GPIO_Init+0xdc>)
 8000ec4:	f8d3 3140 	ldr.w	r3, [r3, #320]	; 0x140
 8000ec8:	4a2f      	ldr	r2, [pc, #188]	; (8000f88 <MX_GPIO_Init+0xdc>)
 8000eca:	f043 0380 	orr.w	r3, r3, #128	; 0x80
 8000ece:	f8c2 3140 	str.w	r3, [r2, #320]	; 0x140
 8000ed2:	4b2d      	ldr	r3, [pc, #180]	; (8000f88 <MX_GPIO_Init+0xdc>)
 8000ed4:	f8d3 3140 	ldr.w	r3, [r3, #320]	; 0x140
 8000ed8:	f003 0380 	and.w	r3, r3, #128	; 0x80
 8000edc:	613b      	str	r3, [r7, #16]
 8000ede:	693b      	ldr	r3, [r7, #16]
  __HAL_RCC_GPIOC_CLK_ENABLE();
 8000ee0:	4b29      	ldr	r3, [pc, #164]	; (8000f88 <MX_GPIO_Init+0xdc>)
 8000ee2:	f8d3 3140 	ldr.w	r3, [r3, #320]	; 0x140
 8000ee6:	4a28      	ldr	r2, [pc, #160]	; (8000f88 <MX_GPIO_Init+0xdc>)
 8000ee8:	f043 0304 	orr.w	r3, r3, #4
 8000eec:	f8c2 3140 	str.w	r3, [r2, #320]	; 0x140
 8000ef0:	4b25      	ldr	r3, [pc, #148]	; (8000f88 <MX_GPIO_Init+0xdc>)
 8000ef2:	f8d3 3140 	ldr.w	r3, [r3, #320]	; 0x140
 8000ef6:	f003 0304 	and.w	r3, r3, #4
 8000efa:	60fb      	str	r3, [r7, #12]
 8000efc:	68fb      	ldr	r3, [r7, #12]
  __HAL_RCC_GPIOA_CLK_ENABLE();
 8000efe:	4b22      	ldr	r3, [pc, #136]	; (8000f88 <MX_GPIO_Init+0xdc>)
 8000f00:	f8d3 3140 	ldr.w	r3, [r3, #320]	; 0x140
 8000f04:	4a20      	ldr	r2, [pc, #128]	; (8000f88 <MX_GPIO_Init+0xdc>)
 8000f06:	f043 0301 	orr.w	r3, r3, #1
 8000f0a:	f8c2 3140 	str.w	r3, [r2, #320]	; 0x140
 8000f0e:	4b1e      	ldr	r3, [pc, #120]	; (8000f88 <MX_GPIO_Init+0xdc>)
 8000f10:	f8d3 3140 	ldr.w	r3, [r3, #320]	; 0x140
 8000f14:	f003 0301 	and.w	r3, r3, #1
 8000f18:	60bb      	str	r3, [r7, #8]
 8000f1a:	68bb      	ldr	r3, [r7, #8]
  __HAL_RCC_GPIOB_CLK_ENABLE();
 8000f1c:	4b1a      	ldr	r3, [pc, #104]	; (8000f88 <MX_GPIO_Init+0xdc>)
 8000f1e:	f8d3 3140 	ldr.w	r3, [r3, #320]	; 0x140
 8000f22:	4a19      	ldr	r2, [pc, #100]	; (8000f88 <MX_GPIO_Init+0xdc>)
 8000f24:	f043 0302 	orr.w	r3, r3, #2
 8000f28:	f8c2 3140 	str.w	r3, [r2, #320]	; 0x140
 8000f2c:	4b16      	ldr	r3, [pc, #88]	; (8000f88 <MX_GPIO_Init+0xdc>)
 8000f2e:	f8d3 3140 	ldr.w	r3, [r3, #320]	; 0x140
 8000f32:	f003 0302 	and.w	r3, r3, #2
 8000f36:	607b      	str	r3, [r7, #4]
 8000f38:	687b      	ldr	r3, [r7, #4]
  __HAL_RCC_GPIOE_CLK_ENABLE();
 8000f3a:	4b13      	ldr	r3, [pc, #76]	; (8000f88 <MX_GPIO_Init+0xdc>)
 8000f3c:	f8d3 3140 	ldr.w	r3, [r3, #320]	; 0x140
 8000f40:	4a11      	ldr	r2, [pc, #68]	; (8000f88 <MX_GPIO_Init+0xdc>)
 8000f42:	f043 0310 	orr.w	r3, r3, #16
 8000f46:	f8c2 3140 	str.w	r3, [r2, #320]	; 0x140
 8000f4a:	4b0f      	ldr	r3, [pc, #60]	; (8000f88 <MX_GPIO_Init+0xdc>)
 8000f4c:	f8d3 3140 	ldr.w	r3, [r3, #320]	; 0x140
 8000f50:	f003 0310 	and.w	r3, r3, #16
 8000f54:	603b      	str	r3, [r7, #0]
 8000f56:	683b      	ldr	r3, [r7, #0]

  /*Configure GPIO pin Output Level */
  HAL_GPIO_WritePin(PWR_EN_GPIO_Port, PWR_EN_Pin, GPIO_PIN_RESET);
 8000f58:	2200      	movs	r2, #0
 8000f5a:	2102      	movs	r1, #2
 8000f5c:	480b      	ldr	r0, [pc, #44]	; (8000f8c <MX_GPIO_Init+0xe0>)
 8000f5e:	f001 f905 	bl	800216c <HAL_GPIO_WritePin>

  /*Configure GPIO pin : PtPin */
  GPIO_InitStruct.Pin = PWR_EN_Pin;
 8000f62:	2302      	movs	r3, #2
 8000f64:	617b      	str	r3, [r7, #20]
  GPIO_InitStruct.Mode = GPIO_MODE_OUTPUT_PP;
 8000f66:	2301      	movs	r3, #1
 8000f68:	61bb      	str	r3, [r7, #24]
  GPIO_InitStruct.Pull = GPIO_NOPULL;
 8000f6a:	2300      	movs	r3, #0
 8000f6c:	61fb      	str	r3, [r7, #28]
  GPIO_InitStruct.Speed = GPIO_SPEED_FREQ_LOW;
 8000f6e:	2300      	movs	r3, #0
 8000f70:	623b      	str	r3, [r7, #32]
  HAL_GPIO_Init(PWR_EN_GPIO_Port, &GPIO_InitStruct);
 8000f72:	f107 0314 	add.w	r3, r7, #20
 8000f76:	4619      	mov	r1, r3
 8000f78:	4804      	ldr	r0, [pc, #16]	; (8000f8c <MX_GPIO_Init+0xe0>)
 8000f7a:	f000 fe3d 	bl	8001bf8 <HAL_GPIO_Init>

}
 8000f7e:	bf00      	nop
 8000f80:	3728      	adds	r7, #40	; 0x28
 8000f82:	46bd      	mov	sp, r7
 8000f84:	bd80      	pop	{r7, pc}
 8000f86:	bf00      	nop
 8000f88:	58024400 	.word	0x58024400
 8000f8c:	58021000 	.word	0x58021000

08000f90 <main>:
/**
  * @brief  The application entry point.
  * @retval int
  */
int main(void)
{
 8000f90:	b580      	push	{r7, lr}
 8000f92:	b086      	sub	sp, #24
 8000f94:	af00      	add	r7, sp, #0
  /* USER CODE BEGIN 1 */

  /* USER CODE END 1 */

  /* MPU Configuration--------------------------------------------------------*/
  MPU_Config();
 8000f96:	f000 f8ff 	bl	8001198 <MPU_Config>

  /* MCU Configuration--------------------------------------------------------*/

  /* Reset of all peripherals, Initializes the Flash interface and the Systick. */
  HAL_Init();
 8000f9a:	f000 fc17 	bl	80017cc <HAL_Init>

  /* USER CODE BEGIN Init */
  /* USER CODE END Init */

  /* Configure the system clock */
  SystemClock_Config();
 8000f9e:	f000 f88d 	bl	80010bc <SystemClock_Config>
  /* USER CODE BEGIN SysInit */

  /* USER CODE END SysInit */

  /* Initialize all configured peripherals */
  MX_GPIO_Init();
 8000fa2:	f7ff ff83 	bl	8000eac <MX_GPIO_Init>
  MX_OCTOSPI1_Init();
 8000fa6:	f000 f935 	bl	8001214 <MX_OCTOSPI1_Init>
  MX_TIM5_Init();
 8000faa:	f000 fb63 	bl	8001674 <MX_TIM5_Init>
  /* USER CODE BEGIN 2 */
  HAL_Delay(1000);
 8000fae:	f44f 707a 	mov.w	r0, #1000	; 0x3e8
 8000fb2:	f000 fc9d 	bl	80018f0 <HAL_Delay>
  HAL_GPIO_WritePin(PWR_EN_GPIO_Port, PWR_EN_Pin, GPIO_PIN_SET); // hold power line
 8000fb6:	2201      	movs	r2, #1
 8000fb8:	2102      	movs	r1, #2
 8000fba:	4839      	ldr	r0, [pc, #228]	; (80010a0 <main+0x110>)
 8000fbc:	f001 f8d6 	bl	800216c <HAL_GPIO_WritePin>
  int WE = 0;
 8000fc0:	2300      	movs	r3, #0
 8000fc2:	613b      	str	r3, [r7, #16]
  W25Q128_OCTO_SPI_Init(&hospi1, WE);
 8000fc4:	693b      	ldr	r3, [r7, #16]
 8000fc6:	b2db      	uxtb	r3, r3
 8000fc8:	4619      	mov	r1, r3
 8000fca:	4836      	ldr	r0, [pc, #216]	; (80010a4 <main+0x114>)
 8000fcc:	f7ff f98e 	bl	80002ec <W25Q128_OCTO_SPI_Init>
  ret=W25Q128_OSPI_Erase_Chip(&hospi1);
 8000fd0:	4834      	ldr	r0, [pc, #208]	; (80010a4 <main+0x114>)
 8000fd2:	f7ff fbe7 	bl	80007a4 <W25Q128_OSPI_Erase_Chip>
 8000fd6:	4603      	mov	r3, r0
 8000fd8:	461a      	mov	r2, r3
 8000fda:	4b33      	ldr	r3, [pc, #204]	; (80010a8 <main+0x118>)
 8000fdc:	701a      	strb	r2, [r3, #0]
////  ret=W25Q128_OSPI_EraseSector(&hospi1,0,0x7FFFFF);
////  ret=W25Q128_OSPI_EraseSector(&hospi1,0x800000,0xFFFFFF);
  ret=W25Q128_OSPI_Read(&hospi1, rxbuf, 0, 100);
 8000fde:	2364      	movs	r3, #100	; 0x64
 8000fe0:	2200      	movs	r2, #0
 8000fe2:	4932      	ldr	r1, [pc, #200]	; (80010ac <main+0x11c>)
 8000fe4:	482f      	ldr	r0, [pc, #188]	; (80010a4 <main+0x114>)
 8000fe6:	f7ff fce6 	bl	80009b6 <W25Q128_OSPI_Read>
 8000fea:	4603      	mov	r3, r0
 8000fec:	461a      	mov	r2, r3
 8000fee:	4b2e      	ldr	r3, [pc, #184]	; (80010a8 <main+0x118>)
 8000ff0:	701a      	strb	r2, [r3, #0]
  ret=W25Q128_OSPI_Write(&hospi1,txbuf,0,sizeof(txbuf));
 8000ff2:	2305      	movs	r3, #5
 8000ff4:	2200      	movs	r2, #0
 8000ff6:	492e      	ldr	r1, [pc, #184]	; (80010b0 <main+0x120>)
 8000ff8:	482a      	ldr	r0, [pc, #168]	; (80010a4 <main+0x114>)
 8000ffa:	f7ff fc32 	bl	8000862 <W25Q128_OSPI_Write>
 8000ffe:	4603      	mov	r3, r0
 8001000:	461a      	mov	r2, r3
 8001002:	4b29      	ldr	r3, [pc, #164]	; (80010a8 <main+0x118>)
 8001004:	701a      	strb	r2, [r3, #0]
  ret=W25Q128_OSPI_Read(&hospi1, rxbuf, 0, 100);
 8001006:	2364      	movs	r3, #100	; 0x64
 8001008:	2200      	movs	r2, #0
 800100a:	4928      	ldr	r1, [pc, #160]	; (80010ac <main+0x11c>)
 800100c:	4825      	ldr	r0, [pc, #148]	; (80010a4 <main+0x114>)
 800100e:	f7ff fcd2 	bl	80009b6 <W25Q128_OSPI_Read>
 8001012:	4603      	mov	r3, r0
 8001014:	461a      	mov	r2, r3
 8001016:	4b24      	ldr	r3, [pc, #144]	; (80010a8 <main+0x118>)
 8001018:	701a      	strb	r2, [r3, #0]
  W25Q128_OSPI_Configuration(&hospi1);
 800101a:	4822      	ldr	r0, [pc, #136]	; (80010a4 <main+0x114>)
 800101c:	f7ff fa1e 	bl	800045c <W25Q128_OSPI_Configuration>
  W25Q128_OSPI_EnableMemoryMappedMode(&hospi1);
 8001020:	4820      	ldr	r0, [pc, #128]	; (80010a4 <main+0x114>)
 8001022:	f7ff fd1e 	bl	8000a62 <W25Q128_OSPI_EnableMemoryMappedMode>
//  HAL_Delay(100);


  // NOTE: +4 skips stack pointer at the first word, the address of ResetHandler is stored at +4
  // NOTE: jump to ResetHandler, not +4 itself
  fn_call_t callApplication = (fn_call_t)(*(__IO size_t*)(addrApplication + 4U));
 8001026:	f04f 4310 	mov.w	r3, #2415919104	; 0x90000000
 800102a:	3304      	adds	r3, #4
 800102c:	681b      	ldr	r3, [r3, #0]
 800102e:	60fb      	str	r3, [r7, #12]
  \details Disables IRQ interrupts by setting the I-bit in the CPSR.
           Can only be executed in Privileged modes.
 */
__STATIC_FORCEINLINE void __disable_irq(void)
{
  __ASM volatile ("cpsid i" : : : "memory");
 8001030:	b672      	cpsid	i
}
 8001032:	bf00      	nop


  /* call stack top address */

  __disable_irq();
  HAL_RCC_DeInit();
 8001034:	f002 fbde 	bl	80037f4 <HAL_RCC_DeInit>
  SysTick->CTRL = 0;
 8001038:	4b1e      	ldr	r3, [pc, #120]	; (80010b4 <main+0x124>)
 800103a:	2200      	movs	r2, #0
 800103c:	601a      	str	r2, [r3, #0]
  SysTick->LOAD = 0;
 800103e:	4b1d      	ldr	r3, [pc, #116]	; (80010b4 <main+0x124>)
 8001040:	2200      	movs	r2, #0
 8001042:	605a      	str	r2, [r3, #4]
  SysTick->VAL = 0;
 8001044:	4b1b      	ldr	r3, [pc, #108]	; (80010b4 <main+0x124>)
 8001046:	2200      	movs	r2, #0
 8001048:	609a      	str	r2, [r3, #8]

  for (uint8_t i = 0; i < 8; i++)
 800104a:	2300      	movs	r3, #0
 800104c:	75fb      	strb	r3, [r7, #23]
 800104e:	e010      	b.n	8001072 <main+0xe2>
  {
	  NVIC->ICER[i]=0xFFFFFFFF;
 8001050:	4a19      	ldr	r2, [pc, #100]	; (80010b8 <main+0x128>)
 8001052:	7dfb      	ldrb	r3, [r7, #23]
 8001054:	3320      	adds	r3, #32
 8001056:	f04f 31ff 	mov.w	r1, #4294967295
 800105a:	f842 1023 	str.w	r1, [r2, r3, lsl #2]
	  NVIC->ICPR[i]=0xFFFFFFFF;
 800105e:	4a16      	ldr	r2, [pc, #88]	; (80010b8 <main+0x128>)
 8001060:	7dfb      	ldrb	r3, [r7, #23]
 8001062:	3360      	adds	r3, #96	; 0x60
 8001064:	f04f 31ff 	mov.w	r1, #4294967295
 8001068:	f842 1023 	str.w	r1, [r2, r3, lsl #2]
  for (uint8_t i = 0; i < 8; i++)
 800106c:	7dfb      	ldrb	r3, [r7, #23]
 800106e:	3301      	adds	r3, #1
 8001070:	75fb      	strb	r3, [r7, #23]
 8001072:	7dfb      	ldrb	r3, [r7, #23]
 8001074:	2b07      	cmp	r3, #7
 8001076:	d9eb      	bls.n	8001050 <main+0xc0>
  __ASM volatile ("cpsie i" : : : "memory");
 8001078:	b662      	cpsie	i
}
 800107a:	bf00      	nop
 800107c:	2300      	movs	r3, #0
 800107e:	607b      	str	r3, [r7, #4]
  \details Writes the given value to the Control Register.
  \param [in]    control  Control Register value to set
 */
__STATIC_FORCEINLINE void __set_CONTROL(uint32_t control)
{
  __ASM volatile ("MSR control, %0" : : "r" (control) : "memory");
 8001080:	687b      	ldr	r3, [r7, #4]
 8001082:	f383 8814 	msr	CONTROL, r3
}
 8001086:	bf00      	nop
  }

  __enable_irq();
  __set_CONTROL(0); // privillage
  __set_MSP(*(size_t*)(addrApplication));
 8001088:	f04f 4310 	mov.w	r3, #2415919104	; 0x90000000
 800108c:	681b      	ldr	r3, [r3, #0]
 800108e:	60bb      	str	r3, [r7, #8]
  \details Assigns the given value to the Main Stack Pointer (MSP).
  \param [in]    topOfMainStack  Main Stack Pointer value to set
 */
__STATIC_FORCEINLINE void __set_MSP(uint32_t topOfMainStack)
{
  __ASM volatile ("MSR msp, %0" : : "r" (topOfMainStack) : );
 8001090:	68bb      	ldr	r3, [r7, #8]
 8001092:	f383 8808 	msr	MSP, r3
}
 8001096:	bf00      	nop
  callApplication();
 8001098:	68fb      	ldr	r3, [r7, #12]
 800109a:	4798      	blx	r3
  /* USER CODE END 2 */

  /* Infinite loop */
  /* USER CODE BEGIN WHILE */
  while (1)
 800109c:	e7fe      	b.n	800109c <main+0x10c>
 800109e:	bf00      	nop
 80010a0:	58021000 	.word	0x58021000
 80010a4:	2400009c 	.word	0x2400009c
 80010a8:	24000035 	.word	0x24000035
 80010ac:	24000038 	.word	0x24000038
 80010b0:	24000000 	.word	0x24000000
 80010b4:	e000e010 	.word	0xe000e010
 80010b8:	e000e100 	.word	0xe000e100

080010bc <SystemClock_Config>:
/**
  * @brief System Clock Configuration
  * @retval None
  */
void SystemClock_Config(void)
{
 80010bc:	b580      	push	{r7, lr}
 80010be:	b09c      	sub	sp, #112	; 0x70
 80010c0:	af00      	add	r7, sp, #0
  RCC_OscInitTypeDef RCC_OscInitStruct = {0};
 80010c2:	f107 0324 	add.w	r3, r7, #36	; 0x24
 80010c6:	224c      	movs	r2, #76	; 0x4c
 80010c8:	2100      	movs	r1, #0
 80010ca:	4618      	mov	r0, r3
 80010cc:	f004 ffdc 	bl	8006088 <memset>
  RCC_ClkInitTypeDef RCC_ClkInitStruct = {0};
 80010d0:	1d3b      	adds	r3, r7, #4
 80010d2:	2220      	movs	r2, #32
 80010d4:	2100      	movs	r1, #0
 80010d6:	4618      	mov	r0, r3
 80010d8:	f004 ffd6 	bl	8006088 <memset>

  /** Supply configuration update enable
  */
  HAL_PWREx_ConfigSupply(PWR_LDO_SUPPLY);
 80010dc:	2002      	movs	r0, #2
 80010de:	f002 fb4f 	bl	8003780 <HAL_PWREx_ConfigSupply>

  /** Configure the main internal regulator output voltage
  */
  __HAL_PWR_VOLTAGESCALING_CONFIG(PWR_REGULATOR_VOLTAGE_SCALE0);
 80010e2:	2300      	movs	r3, #0
 80010e4:	603b      	str	r3, [r7, #0]
 80010e6:	4b2b      	ldr	r3, [pc, #172]	; (8001194 <SystemClock_Config+0xd8>)
 80010e8:	699b      	ldr	r3, [r3, #24]
 80010ea:	4a2a      	ldr	r2, [pc, #168]	; (8001194 <SystemClock_Config+0xd8>)
 80010ec:	f443 4340 	orr.w	r3, r3, #49152	; 0xc000
 80010f0:	6193      	str	r3, [r2, #24]
 80010f2:	4b28      	ldr	r3, [pc, #160]	; (8001194 <SystemClock_Config+0xd8>)
 80010f4:	699b      	ldr	r3, [r3, #24]
 80010f6:	f403 4340 	and.w	r3, r3, #49152	; 0xc000
 80010fa:	603b      	str	r3, [r7, #0]
 80010fc:	683b      	ldr	r3, [r7, #0]

  while(!__HAL_PWR_GET_FLAG(PWR_FLAG_VOSRDY)) {}
 80010fe:	bf00      	nop
 8001100:	4b24      	ldr	r3, [pc, #144]	; (8001194 <SystemClock_Config+0xd8>)
 8001102:	699b      	ldr	r3, [r3, #24]
 8001104:	f403 5300 	and.w	r3, r3, #8192	; 0x2000
 8001108:	f5b3 5f00 	cmp.w	r3, #8192	; 0x2000
 800110c:	d1f8      	bne.n	8001100 <SystemClock_Config+0x44>

  /** Initializes the RCC Oscillators according to the specified parameters
  * in the RCC_OscInitTypeDef structure.
  */
  RCC_OscInitStruct.OscillatorType = RCC_OSCILLATORTYPE_HSE;
 800110e:	2301      	movs	r3, #1
 8001110:	627b      	str	r3, [r7, #36]	; 0x24
  RCC_OscInitStruct.HSEState = RCC_HSE_ON;
 8001112:	f44f 3380 	mov.w	r3, #65536	; 0x10000
 8001116:	62bb      	str	r3, [r7, #40]	; 0x28
  RCC_OscInitStruct.PLL.PLLState = RCC_PLL_ON;
 8001118:	2302      	movs	r3, #2
 800111a:	64bb      	str	r3, [r7, #72]	; 0x48
  RCC_OscInitStruct.PLL.PLLSource = RCC_PLLSOURCE_HSE;
 800111c:	2302      	movs	r3, #2
 800111e:	64fb      	str	r3, [r7, #76]	; 0x4c
  RCC_OscInitStruct.PLL.PLLM = 1;
 8001120:	2301      	movs	r3, #1
 8001122:	653b      	str	r3, [r7, #80]	; 0x50
  RCC_OscInitStruct.PLL.PLLN = 32;
 8001124:	2320      	movs	r3, #32
 8001126:	657b      	str	r3, [r7, #84]	; 0x54
  RCC_OscInitStruct.PLL.PLLP = 2;
 8001128:	2302      	movs	r3, #2
 800112a:	65bb      	str	r3, [r7, #88]	; 0x58
  RCC_OscInitStruct.PLL.PLLQ = 2;
 800112c:	2302      	movs	r3, #2
 800112e:	65fb      	str	r3, [r7, #92]	; 0x5c
  RCC_OscInitStruct.PLL.PLLR = 2;
 8001130:	2302      	movs	r3, #2
 8001132:	663b      	str	r3, [r7, #96]	; 0x60
  RCC_OscInitStruct.PLL.PLLRGE = RCC_PLL1VCIRANGE_3;
 8001134:	230c      	movs	r3, #12
 8001136:	667b      	str	r3, [r7, #100]	; 0x64
  RCC_OscInitStruct.PLL.PLLVCOSEL = RCC_PLL1VCOWIDE;
 8001138:	2300      	movs	r3, #0
 800113a:	66bb      	str	r3, [r7, #104]	; 0x68
  RCC_OscInitStruct.PLL.PLLFRACN = 0;
 800113c:	2300      	movs	r3, #0
 800113e:	66fb      	str	r3, [r7, #108]	; 0x6c
  if (HAL_RCC_OscConfig(&RCC_OscInitStruct) != HAL_OK)
 8001140:	f107 0324 	add.w	r3, r7, #36	; 0x24
 8001144:	4618      	mov	r0, r3
 8001146:	f002 fc85 	bl	8003a54 <HAL_RCC_OscConfig>
 800114a:	4603      	mov	r3, r0
 800114c:	2b00      	cmp	r3, #0
 800114e:	d001      	beq.n	8001154 <SystemClock_Config+0x98>
  {
    Error_Handler();
 8001150:	f000 f85a 	bl	8001208 <Error_Handler>
  }

  /** Initializes the CPU, AHB and APB buses clocks
  */
  RCC_ClkInitStruct.ClockType = RCC_CLOCKTYPE_HCLK|RCC_CLOCKTYPE_SYSCLK
 8001154:	233f      	movs	r3, #63	; 0x3f
 8001156:	607b      	str	r3, [r7, #4]
                              |RCC_CLOCKTYPE_PCLK1|RCC_CLOCKTYPE_PCLK2
                              |RCC_CLOCKTYPE_D3PCLK1|RCC_CLOCKTYPE_D1PCLK1;
  RCC_ClkInitStruct.SYSCLKSource = RCC_SYSCLKSOURCE_PLLCLK;
 8001158:	2303      	movs	r3, #3
 800115a:	60bb      	str	r3, [r7, #8]
  RCC_ClkInitStruct.SYSCLKDivider = RCC_SYSCLK_DIV1;
 800115c:	2300      	movs	r3, #0
 800115e:	60fb      	str	r3, [r7, #12]
  RCC_ClkInitStruct.AHBCLKDivider = RCC_HCLK_DIV1;
 8001160:	2300      	movs	r3, #0
 8001162:	613b      	str	r3, [r7, #16]
  RCC_ClkInitStruct.APB3CLKDivider = RCC_APB3_DIV2;
 8001164:	2340      	movs	r3, #64	; 0x40
 8001166:	617b      	str	r3, [r7, #20]
  RCC_ClkInitStruct.APB1CLKDivider = RCC_APB1_DIV2;
 8001168:	2340      	movs	r3, #64	; 0x40
 800116a:	61bb      	str	r3, [r7, #24]
  RCC_ClkInitStruct.APB2CLKDivider = RCC_APB2_DIV2;
 800116c:	f44f 6380 	mov.w	r3, #1024	; 0x400
 8001170:	61fb      	str	r3, [r7, #28]
  RCC_ClkInitStruct.APB4CLKDivider = RCC_APB4_DIV2;
 8001172:	2340      	movs	r3, #64	; 0x40
 8001174:	623b      	str	r3, [r7, #32]

  if (HAL_RCC_ClockConfig(&RCC_ClkInitStruct, FLASH_LATENCY_7) != HAL_OK)
 8001176:	1d3b      	adds	r3, r7, #4
 8001178:	2107      	movs	r1, #7
 800117a:	4618      	mov	r0, r3
 800117c:	f003 f86e 	bl	800425c <HAL_RCC_ClockConfig>
 8001180:	4603      	mov	r3, r0
 8001182:	2b00      	cmp	r3, #0
 8001184:	d001      	beq.n	800118a <SystemClock_Config+0xce>
  {
    Error_Handler();
 8001186:	f000 f83f 	bl	8001208 <Error_Handler>
  }
}
 800118a:	bf00      	nop
 800118c:	3770      	adds	r7, #112	; 0x70
 800118e:	46bd      	mov	sp, r7
 8001190:	bd80      	pop	{r7, pc}
 8001192:	bf00      	nop
 8001194:	58024800 	.word	0x58024800

08001198 <MPU_Config>:
/* USER CODE END 4 */

/* MPU Configuration */

void MPU_Config(void)
{
 8001198:	b580      	push	{r7, lr}
 800119a:	b084      	sub	sp, #16
 800119c:	af00      	add	r7, sp, #0
  MPU_Region_InitTypeDef MPU_InitStruct = {0};
 800119e:	463b      	mov	r3, r7
 80011a0:	2200      	movs	r2, #0
 80011a2:	601a      	str	r2, [r3, #0]
 80011a4:	605a      	str	r2, [r3, #4]
 80011a6:	609a      	str	r2, [r3, #8]
 80011a8:	60da      	str	r2, [r3, #12]

  /* Disables the MPU */
  HAL_MPU_Disable();
 80011aa:	f000 fca9 	bl	8001b00 <HAL_MPU_Disable>

  /** Initializes and configures the Region and the memory to be protected
  */
  MPU_InitStruct.Enable = MPU_REGION_ENABLE;
 80011ae:	2301      	movs	r3, #1
 80011b0:	703b      	strb	r3, [r7, #0]
  MPU_InitStruct.Number = MPU_REGION_NUMBER0;
 80011b2:	2300      	movs	r3, #0
 80011b4:	707b      	strb	r3, [r7, #1]
  MPU_InitStruct.BaseAddress = 0x90000000;
 80011b6:	f04f 4310 	mov.w	r3, #2415919104	; 0x90000000
 80011ba:	607b      	str	r3, [r7, #4]
  MPU_InitStruct.Size = MPU_REGION_SIZE_16MB;
 80011bc:	2317      	movs	r3, #23
 80011be:	723b      	strb	r3, [r7, #8]
  MPU_InitStruct.SubRegionDisable = 0x0;
 80011c0:	2300      	movs	r3, #0
 80011c2:	727b      	strb	r3, [r7, #9]
  MPU_InitStruct.TypeExtField = MPU_TEX_LEVEL0;
 80011c4:	2300      	movs	r3, #0
 80011c6:	72bb      	strb	r3, [r7, #10]
  MPU_InitStruct.AccessPermission = MPU_REGION_FULL_ACCESS;
 80011c8:	2303      	movs	r3, #3
 80011ca:	72fb      	strb	r3, [r7, #11]
  MPU_InitStruct.DisableExec = MPU_INSTRUCTION_ACCESS_ENABLE;
 80011cc:	2300      	movs	r3, #0
 80011ce:	733b      	strb	r3, [r7, #12]
  MPU_InitStruct.IsShareable = MPU_ACCESS_NOT_SHAREABLE;
 80011d0:	2300      	movs	r3, #0
 80011d2:	737b      	strb	r3, [r7, #13]
  MPU_InitStruct.IsCacheable = MPU_ACCESS_NOT_CACHEABLE;
 80011d4:	2300      	movs	r3, #0
 80011d6:	73bb      	strb	r3, [r7, #14]
  MPU_InitStruct.IsBufferable = MPU_ACCESS_NOT_BUFFERABLE;
 80011d8:	2300      	movs	r3, #0
 80011da:	73fb      	strb	r3, [r7, #15]

  HAL_MPU_ConfigRegion(&MPU_InitStruct);
 80011dc:	463b      	mov	r3, r7
 80011de:	4618      	mov	r0, r3
 80011e0:	f000 fcc6 	bl	8001b70 <HAL_MPU_ConfigRegion>

  /** Initializes and configures the Region and the memory to be protected
  */
  MPU_InitStruct.Number = MPU_REGION_NUMBER1;
 80011e4:	2301      	movs	r3, #1
 80011e6:	707b      	strb	r3, [r7, #1]
  MPU_InitStruct.BaseAddress = 0x08000000;
 80011e8:	f04f 6300 	mov.w	r3, #134217728	; 0x8000000
 80011ec:	607b      	str	r3, [r7, #4]
  MPU_InitStruct.Size = MPU_REGION_SIZE_128KB;
 80011ee:	2310      	movs	r3, #16
 80011f0:	723b      	strb	r3, [r7, #8]

  HAL_MPU_ConfigRegion(&MPU_InitStruct);
 80011f2:	463b      	mov	r3, r7
 80011f4:	4618      	mov	r0, r3
 80011f6:	f000 fcbb 	bl	8001b70 <HAL_MPU_ConfigRegion>
  /* Enables the MPU */
  HAL_MPU_Enable(MPU_PRIVILEGED_DEFAULT);
 80011fa:	2004      	movs	r0, #4
 80011fc:	f000 fc98 	bl	8001b30 <HAL_MPU_Enable>

}
 8001200:	bf00      	nop
 8001202:	3710      	adds	r7, #16
 8001204:	46bd      	mov	sp, r7
 8001206:	bd80      	pop	{r7, pc}

08001208 <Error_Handler>:
/**
  * @brief  This function is executed in case of error occurrence.
  * @retval None
  */
void Error_Handler(void)
{
 8001208:	b480      	push	{r7}
 800120a:	af00      	add	r7, sp, #0
  __ASM volatile ("cpsid i" : : : "memory");
 800120c:	b672      	cpsid	i
}
 800120e:	bf00      	nop
  /* USER CODE BEGIN Error_Handler_Debug */
  /* User can add his own implementation to report the HAL error return state */
  __disable_irq();
  while (1)
 8001210:	e7fe      	b.n	8001210 <Error_Handler+0x8>
	...

08001214 <MX_OCTOSPI1_Init>:

OSPI_HandleTypeDef hospi1;

/* OCTOSPI1 init function */
void MX_OCTOSPI1_Init(void)
{
 8001214:	b580      	push	{r7, lr}
 8001216:	b086      	sub	sp, #24
 8001218:	af00      	add	r7, sp, #0

  /* USER CODE BEGIN OCTOSPI1_Init 0 */

  /* USER CODE END OCTOSPI1_Init 0 */

  OSPIM_CfgTypeDef sOspiManagerCfg = {0};
 800121a:	463b      	mov	r3, r7
 800121c:	2200      	movs	r2, #0
 800121e:	601a      	str	r2, [r3, #0]
 8001220:	605a      	str	r2, [r3, #4]
 8001222:	609a      	str	r2, [r3, #8]
 8001224:	60da      	str	r2, [r3, #12]
 8001226:	611a      	str	r2, [r3, #16]
 8001228:	615a      	str	r2, [r3, #20]

  /* USER CODE BEGIN OCTOSPI1_Init 1 */

  /* USER CODE END OCTOSPI1_Init 1 */
  hospi1.Instance = OCTOSPI1;
 800122a:	4b27      	ldr	r3, [pc, #156]	; (80012c8 <MX_OCTOSPI1_Init+0xb4>)
 800122c:	4a27      	ldr	r2, [pc, #156]	; (80012cc <MX_OCTOSPI1_Init+0xb8>)
 800122e:	601a      	str	r2, [r3, #0]
  hospi1.Init.FifoThreshold = 1;
 8001230:	4b25      	ldr	r3, [pc, #148]	; (80012c8 <MX_OCTOSPI1_Init+0xb4>)
 8001232:	2201      	movs	r2, #1
 8001234:	605a      	str	r2, [r3, #4]
  hospi1.Init.DualQuad = HAL_OSPI_DUALQUAD_DISABLE;
 8001236:	4b24      	ldr	r3, [pc, #144]	; (80012c8 <MX_OCTOSPI1_Init+0xb4>)
 8001238:	2200      	movs	r2, #0
 800123a:	609a      	str	r2, [r3, #8]
  hospi1.Init.MemoryType = HAL_OSPI_MEMTYPE_MICRON;
 800123c:	4b22      	ldr	r3, [pc, #136]	; (80012c8 <MX_OCTOSPI1_Init+0xb4>)
 800123e:	2200      	movs	r2, #0
 8001240:	60da      	str	r2, [r3, #12]
  hospi1.Init.DeviceSize = 23;
 8001242:	4b21      	ldr	r3, [pc, #132]	; (80012c8 <MX_OCTOSPI1_Init+0xb4>)
 8001244:	2217      	movs	r2, #23
 8001246:	611a      	str	r2, [r3, #16]
  hospi1.Init.ChipSelectHighTime = 4;
 8001248:	4b1f      	ldr	r3, [pc, #124]	; (80012c8 <MX_OCTOSPI1_Init+0xb4>)
 800124a:	2204      	movs	r2, #4
 800124c:	615a      	str	r2, [r3, #20]
  hospi1.Init.FreeRunningClock = HAL_OSPI_FREERUNCLK_DISABLE;
 800124e:	4b1e      	ldr	r3, [pc, #120]	; (80012c8 <MX_OCTOSPI1_Init+0xb4>)
 8001250:	2200      	movs	r2, #0
 8001252:	619a      	str	r2, [r3, #24]
  hospi1.Init.ClockMode = HAL_OSPI_CLOCK_MODE_0;
 8001254:	4b1c      	ldr	r3, [pc, #112]	; (80012c8 <MX_OCTOSPI1_Init+0xb4>)
 8001256:	2200      	movs	r2, #0
 8001258:	61da      	str	r2, [r3, #28]
  hospi1.Init.WrapSize = HAL_OSPI_WRAP_NOT_SUPPORTED;
 800125a:	4b1b      	ldr	r3, [pc, #108]	; (80012c8 <MX_OCTOSPI1_Init+0xb4>)
 800125c:	2200      	movs	r2, #0
 800125e:	621a      	str	r2, [r3, #32]
  hospi1.Init.ClockPrescaler = 3;
 8001260:	4b19      	ldr	r3, [pc, #100]	; (80012c8 <MX_OCTOSPI1_Init+0xb4>)
 8001262:	2203      	movs	r2, #3
 8001264:	625a      	str	r2, [r3, #36]	; 0x24
  hospi1.Init.SampleShifting = HAL_OSPI_SAMPLE_SHIFTING_NONE;
 8001266:	4b18      	ldr	r3, [pc, #96]	; (80012c8 <MX_OCTOSPI1_Init+0xb4>)
 8001268:	2200      	movs	r2, #0
 800126a:	629a      	str	r2, [r3, #40]	; 0x28
  hospi1.Init.DelayHoldQuarterCycle = HAL_OSPI_DHQC_DISABLE;
 800126c:	4b16      	ldr	r3, [pc, #88]	; (80012c8 <MX_OCTOSPI1_Init+0xb4>)
 800126e:	2200      	movs	r2, #0
 8001270:	62da      	str	r2, [r3, #44]	; 0x2c
  hospi1.Init.ChipSelectBoundary = 0;
 8001272:	4b15      	ldr	r3, [pc, #84]	; (80012c8 <MX_OCTOSPI1_Init+0xb4>)
 8001274:	2200      	movs	r2, #0
 8001276:	631a      	str	r2, [r3, #48]	; 0x30
  hospi1.Init.DelayBlockBypass = HAL_OSPI_DELAY_BLOCK_BYPASSED;
 8001278:	4b13      	ldr	r3, [pc, #76]	; (80012c8 <MX_OCTOSPI1_Init+0xb4>)
 800127a:	2208      	movs	r2, #8
 800127c:	639a      	str	r2, [r3, #56]	; 0x38
  hospi1.Init.MaxTran = 0;
 800127e:	4b12      	ldr	r3, [pc, #72]	; (80012c8 <MX_OCTOSPI1_Init+0xb4>)
 8001280:	2200      	movs	r2, #0
 8001282:	63da      	str	r2, [r3, #60]	; 0x3c
  hospi1.Init.Refresh = 0;
 8001284:	4b10      	ldr	r3, [pc, #64]	; (80012c8 <MX_OCTOSPI1_Init+0xb4>)
 8001286:	2200      	movs	r2, #0
 8001288:	641a      	str	r2, [r3, #64]	; 0x40
  if (HAL_OSPI_Init(&hospi1) != HAL_OK)
 800128a:	480f      	ldr	r0, [pc, #60]	; (80012c8 <MX_OCTOSPI1_Init+0xb4>)
 800128c:	f000 ff88 	bl	80021a0 <HAL_OSPI_Init>
 8001290:	4603      	mov	r3, r0
 8001292:	2b00      	cmp	r3, #0
 8001294:	d001      	beq.n	800129a <MX_OCTOSPI1_Init+0x86>
  {
    Error_Handler();
 8001296:	f7ff ffb7 	bl	8001208 <Error_Handler>
  }
  sOspiManagerCfg.ClkPort = 1;
 800129a:	2301      	movs	r3, #1
 800129c:	603b      	str	r3, [r7, #0]
  sOspiManagerCfg.NCSPort = 1;
 800129e:	2301      	movs	r3, #1
 80012a0:	60bb      	str	r3, [r7, #8]
  sOspiManagerCfg.IOLowPort = HAL_OSPIM_IOPORT_1_LOW;
 80012a2:	f04f 1301 	mov.w	r3, #65537	; 0x10001
 80012a6:	60fb      	str	r3, [r7, #12]
  if (HAL_OSPIM_Config(&hospi1, &sOspiManagerCfg, HAL_OSPI_TIMEOUT_DEFAULT_VALUE) != HAL_OK)
 80012a8:	463b      	mov	r3, r7
 80012aa:	f241 3288 	movw	r2, #5000	; 0x1388
 80012ae:	4619      	mov	r1, r3
 80012b0:	4805      	ldr	r0, [pc, #20]	; (80012c8 <MX_OCTOSPI1_Init+0xb4>)
 80012b2:	f001 fae3 	bl	800287c <HAL_OSPIM_Config>
 80012b6:	4603      	mov	r3, r0
 80012b8:	2b00      	cmp	r3, #0
 80012ba:	d001      	beq.n	80012c0 <MX_OCTOSPI1_Init+0xac>
  {
    Error_Handler();
 80012bc:	f7ff ffa4 	bl	8001208 <Error_Handler>
  }
  /* USER CODE BEGIN OCTOSPI1_Init 2 */

  /* USER CODE END OCTOSPI1_Init 2 */

}
 80012c0:	bf00      	nop
 80012c2:	3718      	adds	r7, #24
 80012c4:	46bd      	mov	sp, r7
 80012c6:	bd80      	pop	{r7, pc}
 80012c8:	2400009c 	.word	0x2400009c
 80012cc:	52005000 	.word	0x52005000

080012d0 <HAL_OSPI_MspInit>:

void HAL_OSPI_MspInit(OSPI_HandleTypeDef* ospiHandle)
{
 80012d0:	b580      	push	{r7, lr}
 80012d2:	b0ba      	sub	sp, #232	; 0xe8
 80012d4:	af00      	add	r7, sp, #0
 80012d6:	6078      	str	r0, [r7, #4]

  GPIO_InitTypeDef GPIO_InitStruct = {0};
 80012d8:	f107 03d4 	add.w	r3, r7, #212	; 0xd4
 80012dc:	2200      	movs	r2, #0
 80012de:	601a      	str	r2, [r3, #0]
 80012e0:	605a      	str	r2, [r3, #4]
 80012e2:	609a      	str	r2, [r3, #8]
 80012e4:	60da      	str	r2, [r3, #12]
 80012e6:	611a      	str	r2, [r3, #16]
  RCC_PeriphCLKInitTypeDef PeriphClkInitStruct = {0};
 80012e8:	f107 031c 	add.w	r3, r7, #28
 80012ec:	22b8      	movs	r2, #184	; 0xb8
 80012ee:	2100      	movs	r1, #0
 80012f0:	4618      	mov	r0, r3
 80012f2:	f004 fec9 	bl	8006088 <memset>
  if(ospiHandle->Instance==OCTOSPI1)
 80012f6:	687b      	ldr	r3, [r7, #4]
 80012f8:	681b      	ldr	r3, [r3, #0]
 80012fa:	4a60      	ldr	r2, [pc, #384]	; (800147c <HAL_OSPI_MspInit+0x1ac>)
 80012fc:	4293      	cmp	r3, r2
 80012fe:	f040 80b8 	bne.w	8001472 <HAL_OSPI_MspInit+0x1a2>

  /* USER CODE END OCTOSPI1_MspInit 0 */

  /** Initializes the peripherals clock
  */
    PeriphClkInitStruct.PeriphClockSelection = RCC_PERIPHCLK_OSPI;
 8001302:	f04f 7300 	mov.w	r3, #33554432	; 0x2000000
 8001306:	61fb      	str	r3, [r7, #28]
    PeriphClkInitStruct.OspiClockSelection = RCC_OSPICLKSOURCE_D1HCLK;
 8001308:	2300      	movs	r3, #0
 800130a:	667b      	str	r3, [r7, #100]	; 0x64
    if (HAL_RCCEx_PeriphCLKConfig(&PeriphClkInitStruct) != HAL_OK)
 800130c:	f107 031c 	add.w	r3, r7, #28
 8001310:	4618      	mov	r0, r3
 8001312:	f003 fad3 	bl	80048bc <HAL_RCCEx_PeriphCLKConfig>
 8001316:	4603      	mov	r3, r0
 8001318:	2b00      	cmp	r3, #0
 800131a:	d001      	beq.n	8001320 <HAL_OSPI_MspInit+0x50>
    {
      Error_Handler();
 800131c:	f7ff ff74 	bl	8001208 <Error_Handler>
    }

    /* OCTOSPI1 clock enable */
    __HAL_RCC_OCTOSPIM_CLK_ENABLE();
 8001320:	4b57      	ldr	r3, [pc, #348]	; (8001480 <HAL_OSPI_MspInit+0x1b0>)
 8001322:	f8d3 3134 	ldr.w	r3, [r3, #308]	; 0x134
 8001326:	4a56      	ldr	r2, [pc, #344]	; (8001480 <HAL_OSPI_MspInit+0x1b0>)
 8001328:	f443 1300 	orr.w	r3, r3, #2097152	; 0x200000
 800132c:	f8c2 3134 	str.w	r3, [r2, #308]	; 0x134
 8001330:	4b53      	ldr	r3, [pc, #332]	; (8001480 <HAL_OSPI_MspInit+0x1b0>)
 8001332:	f8d3 3134 	ldr.w	r3, [r3, #308]	; 0x134
 8001336:	f403 1300 	and.w	r3, r3, #2097152	; 0x200000
 800133a:	61bb      	str	r3, [r7, #24]
 800133c:	69bb      	ldr	r3, [r7, #24]
    __HAL_RCC_OSPI1_CLK_ENABLE();
 800133e:	4b50      	ldr	r3, [pc, #320]	; (8001480 <HAL_OSPI_MspInit+0x1b0>)
 8001340:	f8d3 3134 	ldr.w	r3, [r3, #308]	; 0x134
 8001344:	4a4e      	ldr	r2, [pc, #312]	; (8001480 <HAL_OSPI_MspInit+0x1b0>)
 8001346:	f443 4380 	orr.w	r3, r3, #16384	; 0x4000
 800134a:	f8c2 3134 	str.w	r3, [r2, #308]	; 0x134
 800134e:	4b4c      	ldr	r3, [pc, #304]	; (8001480 <HAL_OSPI_MspInit+0x1b0>)
 8001350:	f8d3 3134 	ldr.w	r3, [r3, #308]	; 0x134
 8001354:	f403 4380 	and.w	r3, r3, #16384	; 0x4000
 8001358:	617b      	str	r3, [r7, #20]
 800135a:	697b      	ldr	r3, [r7, #20]

    __HAL_RCC_GPIOC_CLK_ENABLE();
 800135c:	4b48      	ldr	r3, [pc, #288]	; (8001480 <HAL_OSPI_MspInit+0x1b0>)
 800135e:	f8d3 3140 	ldr.w	r3, [r3, #320]	; 0x140
 8001362:	4a47      	ldr	r2, [pc, #284]	; (8001480 <HAL_OSPI_MspInit+0x1b0>)
 8001364:	f043 0304 	orr.w	r3, r3, #4
 8001368:	f8c2 3140 	str.w	r3, [r2, #320]	; 0x140
 800136c:	4b44      	ldr	r3, [pc, #272]	; (8001480 <HAL_OSPI_MspInit+0x1b0>)
 800136e:	f8d3 3140 	ldr.w	r3, [r3, #320]	; 0x140
 8001372:	f003 0304 	and.w	r3, r3, #4
 8001376:	613b      	str	r3, [r7, #16]
 8001378:	693b      	ldr	r3, [r7, #16]
    __HAL_RCC_GPIOA_CLK_ENABLE();
 800137a:	4b41      	ldr	r3, [pc, #260]	; (8001480 <HAL_OSPI_MspInit+0x1b0>)
 800137c:	f8d3 3140 	ldr.w	r3, [r3, #320]	; 0x140
 8001380:	4a3f      	ldr	r2, [pc, #252]	; (8001480 <HAL_OSPI_MspInit+0x1b0>)
 8001382:	f043 0301 	orr.w	r3, r3, #1
 8001386:	f8c2 3140 	str.w	r3, [r2, #320]	; 0x140
 800138a:	4b3d      	ldr	r3, [pc, #244]	; (8001480 <HAL_OSPI_MspInit+0x1b0>)
 800138c:	f8d3 3140 	ldr.w	r3, [r3, #320]	; 0x140
 8001390:	f003 0301 	and.w	r3, r3, #1
 8001394:	60fb      	str	r3, [r7, #12]
 8001396:	68fb      	ldr	r3, [r7, #12]
    __HAL_RCC_GPIOB_CLK_ENABLE();
 8001398:	4b39      	ldr	r3, [pc, #228]	; (8001480 <HAL_OSPI_MspInit+0x1b0>)
 800139a:	f8d3 3140 	ldr.w	r3, [r3, #320]	; 0x140
 800139e:	4a38      	ldr	r2, [pc, #224]	; (8001480 <HAL_OSPI_MspInit+0x1b0>)
 80013a0:	f043 0302 	orr.w	r3, r3, #2
 80013a4:	f8c2 3140 	str.w	r3, [r2, #320]	; 0x140
 80013a8:	4b35      	ldr	r3, [pc, #212]	; (8001480 <HAL_OSPI_MspInit+0x1b0>)
 80013aa:	f8d3 3140 	ldr.w	r3, [r3, #320]	; 0x140
 80013ae:	f003 0302 	and.w	r3, r3, #2
 80013b2:	60bb      	str	r3, [r7, #8]
 80013b4:	68bb      	ldr	r3, [r7, #8]
    PA1     ------> OCTOSPIM_P1_IO3
    PB2     ------> OCTOSPIM_P1_CLK
    PC10     ------> OCTOSPIM_P1_IO1
    PC11     ------> OCTOSPIM_P1_NCS
    */
    GPIO_InitStruct.Pin = GPIO_PIN_2|GPIO_PIN_3|GPIO_PIN_10|GPIO_PIN_11;
 80013b6:	f640 430c 	movw	r3, #3084	; 0xc0c
 80013ba:	f8c7 30d4 	str.w	r3, [r7, #212]	; 0xd4
    GPIO_InitStruct.Mode = GPIO_MODE_AF_PP;
 80013be:	2302      	movs	r3, #2
 80013c0:	f8c7 30d8 	str.w	r3, [r7, #216]	; 0xd8
    GPIO_InitStruct.Pull = GPIO_NOPULL;
 80013c4:	2300      	movs	r3, #0
 80013c6:	f8c7 30dc 	str.w	r3, [r7, #220]	; 0xdc
    GPIO_InitStruct.Speed = GPIO_SPEED_FREQ_VERY_HIGH;
 80013ca:	2303      	movs	r3, #3
 80013cc:	f8c7 30e0 	str.w	r3, [r7, #224]	; 0xe0
    GPIO_InitStruct.Alternate = GPIO_AF9_OCTOSPIM_P1;
 80013d0:	2309      	movs	r3, #9
 80013d2:	f8c7 30e4 	str.w	r3, [r7, #228]	; 0xe4
    HAL_GPIO_Init(GPIOC, &GPIO_InitStruct);
 80013d6:	f107 03d4 	add.w	r3, r7, #212	; 0xd4
 80013da:	4619      	mov	r1, r3
 80013dc:	4829      	ldr	r0, [pc, #164]	; (8001484 <HAL_OSPI_MspInit+0x1b4>)
 80013de:	f000 fc0b 	bl	8001bf8 <HAL_GPIO_Init>

    GPIO_InitStruct.Pin = GPIO_PIN_1;
 80013e2:	2302      	movs	r3, #2
 80013e4:	f8c7 30d4 	str.w	r3, [r7, #212]	; 0xd4
    GPIO_InitStruct.Mode = GPIO_MODE_AF_PP;
 80013e8:	2302      	movs	r3, #2
 80013ea:	f8c7 30d8 	str.w	r3, [r7, #216]	; 0xd8
    GPIO_InitStruct.Pull = GPIO_NOPULL;
 80013ee:	2300      	movs	r3, #0
 80013f0:	f8c7 30dc 	str.w	r3, [r7, #220]	; 0xdc
    GPIO_InitStruct.Speed = GPIO_SPEED_FREQ_VERY_HIGH;
 80013f4:	2303      	movs	r3, #3
 80013f6:	f8c7 30e0 	str.w	r3, [r7, #224]	; 0xe0
    GPIO_InitStruct.Alternate = GPIO_AF9_OCTOSPIM_P1;
 80013fa:	2309      	movs	r3, #9
 80013fc:	f8c7 30e4 	str.w	r3, [r7, #228]	; 0xe4
    HAL_GPIO_Init(GPIOA, &GPIO_InitStruct);
 8001400:	f107 03d4 	add.w	r3, r7, #212	; 0xd4
 8001404:	4619      	mov	r1, r3
 8001406:	4820      	ldr	r0, [pc, #128]	; (8001488 <HAL_OSPI_MspInit+0x1b8>)
 8001408:	f000 fbf6 	bl	8001bf8 <HAL_GPIO_Init>

    GPIO_InitStruct.Pin = GPIO_PIN_2;
 800140c:	2304      	movs	r3, #4
 800140e:	f8c7 30d4 	str.w	r3, [r7, #212]	; 0xd4
    GPIO_InitStruct.Mode = GPIO_MODE_AF_PP;
 8001412:	2302      	movs	r3, #2
 8001414:	f8c7 30d8 	str.w	r3, [r7, #216]	; 0xd8
    GPIO_InitStruct.Pull = GPIO_NOPULL;
 8001418:	2300      	movs	r3, #0
 800141a:	f8c7 30dc 	str.w	r3, [r7, #220]	; 0xdc
    GPIO_InitStruct.Speed = GPIO_SPEED_FREQ_VERY_HIGH;
 800141e:	2303      	movs	r3, #3
 8001420:	f8c7 30e0 	str.w	r3, [r7, #224]	; 0xe0
    GPIO_InitStruct.Alternate = GPIO_AF9_OCTOSPIM_P1;
 8001424:	2309      	movs	r3, #9
 8001426:	f8c7 30e4 	str.w	r3, [r7, #228]	; 0xe4
    HAL_GPIO_Init(GPIOB, &GPIO_InitStruct);
 800142a:	f107 03d4 	add.w	r3, r7, #212	; 0xd4
 800142e:	4619      	mov	r1, r3
 8001430:	4816      	ldr	r0, [pc, #88]	; (800148c <HAL_OSPI_MspInit+0x1bc>)
 8001432:	f000 fbe1 	bl	8001bf8 <HAL_GPIO_Init>

  /* USER CODE BEGIN OCTOSPI1_MspInit 1 */
	if(flash_locked)
 8001436:	4b16      	ldr	r3, [pc, #88]	; (8001490 <HAL_OSPI_MspInit+0x1c0>)
 8001438:	781b      	ldrb	r3, [r3, #0]
 800143a:	2b00      	cmp	r3, #0
 800143c:	d019      	beq.n	8001472 <HAL_OSPI_MspInit+0x1a2>
	{
		// pull up WP# pin
		GPIO_InitStruct.Pin = GPIO_PIN_2;
 800143e:	2304      	movs	r3, #4
 8001440:	f8c7 30d4 	str.w	r3, [r7, #212]	; 0xd4
		GPIO_InitStruct.Mode = GPIO_MODE_OUTPUT_OD;
 8001444:	2311      	movs	r3, #17
 8001446:	f8c7 30d8 	str.w	r3, [r7, #216]	; 0xd8
		GPIO_InitStruct.Pull = GPIO_PULLUP;
 800144a:	2301      	movs	r3, #1
 800144c:	f8c7 30dc 	str.w	r3, [r7, #220]	; 0xdc
		GPIO_InitStruct.Speed = GPIO_SPEED_FREQ_VERY_HIGH;
 8001450:	2303      	movs	r3, #3
 8001452:	f8c7 30e0 	str.w	r3, [r7, #224]	; 0xe0
		GPIO_InitStruct.Alternate = 0;
 8001456:	2300      	movs	r3, #0
 8001458:	f8c7 30e4 	str.w	r3, [r7, #228]	; 0xe4
		HAL_GPIO_Init(GPIOC, &GPIO_InitStruct);
 800145c:	f107 03d4 	add.w	r3, r7, #212	; 0xd4
 8001460:	4619      	mov	r1, r3
 8001462:	4808      	ldr	r0, [pc, #32]	; (8001484 <HAL_OSPI_MspInit+0x1b4>)
 8001464:	f000 fbc8 	bl	8001bf8 <HAL_GPIO_Init>
		HAL_GPIO_WritePin(GPIOC, GPIO_PIN_2, 1);
 8001468:	2201      	movs	r2, #1
 800146a:	2104      	movs	r1, #4
 800146c:	4805      	ldr	r0, [pc, #20]	; (8001484 <HAL_OSPI_MspInit+0x1b4>)
 800146e:	f000 fe7d 	bl	800216c <HAL_GPIO_WritePin>
	}
  /* USER CODE END OCTOSPI1_MspInit 1 */
  }
}
 8001472:	bf00      	nop
 8001474:	37e8      	adds	r7, #232	; 0xe8
 8001476:	46bd      	mov	sp, r7
 8001478:	bd80      	pop	{r7, pc}
 800147a:	bf00      	nop
 800147c:	52005000 	.word	0x52005000
 8001480:	58024400 	.word	0x58024400
 8001484:	58020800 	.word	0x58020800
 8001488:	58020000 	.word	0x58020000
 800148c:	58020400 	.word	0x58020400
 8001490:	24000034 	.word	0x24000034

08001494 <HAL_OSPI_MspDeInit>:

void HAL_OSPI_MspDeInit(OSPI_HandleTypeDef* ospiHandle)
{
 8001494:	b580      	push	{r7, lr}
 8001496:	b082      	sub	sp, #8
 8001498:	af00      	add	r7, sp, #0
 800149a:	6078      	str	r0, [r7, #4]

  if(ospiHandle->Instance==OCTOSPI1)
 800149c:	687b      	ldr	r3, [r7, #4]
 800149e:	681b      	ldr	r3, [r3, #0]
 80014a0:	4a11      	ldr	r2, [pc, #68]	; (80014e8 <HAL_OSPI_MspDeInit+0x54>)
 80014a2:	4293      	cmp	r3, r2
 80014a4:	d11c      	bne.n	80014e0 <HAL_OSPI_MspDeInit+0x4c>
  {
  /* USER CODE BEGIN OCTOSPI1_MspDeInit 0 */

  /* USER CODE END OCTOSPI1_MspDeInit 0 */
    /* Peripheral clock disable */
    __HAL_RCC_OCTOSPIM_CLK_DISABLE();
 80014a6:	4b11      	ldr	r3, [pc, #68]	; (80014ec <HAL_OSPI_MspDeInit+0x58>)
 80014a8:	f8d3 3134 	ldr.w	r3, [r3, #308]	; 0x134
 80014ac:	4a0f      	ldr	r2, [pc, #60]	; (80014ec <HAL_OSPI_MspDeInit+0x58>)
 80014ae:	f423 1300 	bic.w	r3, r3, #2097152	; 0x200000
 80014b2:	f8c2 3134 	str.w	r3, [r2, #308]	; 0x134
    __HAL_RCC_OSPI1_CLK_DISABLE();
 80014b6:	4b0d      	ldr	r3, [pc, #52]	; (80014ec <HAL_OSPI_MspDeInit+0x58>)
 80014b8:	f8d3 3134 	ldr.w	r3, [r3, #308]	; 0x134
 80014bc:	4a0b      	ldr	r2, [pc, #44]	; (80014ec <HAL_OSPI_MspDeInit+0x58>)
 80014be:	f423 4380 	bic.w	r3, r3, #16384	; 0x4000
 80014c2:	f8c2 3134 	str.w	r3, [r2, #308]	; 0x134
    PA1     ------> OCTOSPIM_P1_IO3
    PB2     ------> OCTOSPIM_P1_CLK
    PC10     ------> OCTOSPIM_P1_IO1
    PC11     ------> OCTOSPIM_P1_NCS
    */
    HAL_GPIO_DeInit(GPIOC, GPIO_PIN_2|GPIO_PIN_3|GPIO_PIN_10|GPIO_PIN_11);
 80014c6:	f640 410c 	movw	r1, #3084	; 0xc0c
 80014ca:	4809      	ldr	r0, [pc, #36]	; (80014f0 <HAL_OSPI_MspDeInit+0x5c>)
 80014cc:	f000 fd44 	bl	8001f58 <HAL_GPIO_DeInit>

    HAL_GPIO_DeInit(GPIOA, GPIO_PIN_1);
 80014d0:	2102      	movs	r1, #2
 80014d2:	4808      	ldr	r0, [pc, #32]	; (80014f4 <HAL_OSPI_MspDeInit+0x60>)
 80014d4:	f000 fd40 	bl	8001f58 <HAL_GPIO_DeInit>

    HAL_GPIO_DeInit(GPIOB, GPIO_PIN_2);
 80014d8:	2104      	movs	r1, #4
 80014da:	4807      	ldr	r0, [pc, #28]	; (80014f8 <HAL_OSPI_MspDeInit+0x64>)
 80014dc:	f000 fd3c 	bl	8001f58 <HAL_GPIO_DeInit>

  /* USER CODE BEGIN OCTOSPI1_MspDeInit 1 */

  /* USER CODE END OCTOSPI1_MspDeInit 1 */
  }
}
 80014e0:	bf00      	nop
 80014e2:	3708      	adds	r7, #8
 80014e4:	46bd      	mov	sp, r7
 80014e6:	bd80      	pop	{r7, pc}
 80014e8:	52005000 	.word	0x52005000
 80014ec:	58024400 	.word	0x58024400
 80014f0:	58020800 	.word	0x58020800
 80014f4:	58020000 	.word	0x58020000
 80014f8:	58020400 	.word	0x58020400

080014fc <HAL_MspInit>:
/* USER CODE END 0 */
/**
  * Initializes the Global MSP.
  */
void HAL_MspInit(void)
{
 80014fc:	b480      	push	{r7}
 80014fe:	b083      	sub	sp, #12
 8001500:	af00      	add	r7, sp, #0
  /* USER CODE BEGIN MspInit 0 */

  /* USER CODE END MspInit 0 */

  __HAL_RCC_SYSCFG_CLK_ENABLE();
 8001502:	4b0a      	ldr	r3, [pc, #40]	; (800152c <HAL_MspInit+0x30>)
 8001504:	f8d3 3154 	ldr.w	r3, [r3, #340]	; 0x154
 8001508:	4a08      	ldr	r2, [pc, #32]	; (800152c <HAL_MspInit+0x30>)
 800150a:	f043 0302 	orr.w	r3, r3, #2
 800150e:	f8c2 3154 	str.w	r3, [r2, #340]	; 0x154
 8001512:	4b06      	ldr	r3, [pc, #24]	; (800152c <HAL_MspInit+0x30>)
 8001514:	f8d3 3154 	ldr.w	r3, [r3, #340]	; 0x154
 8001518:	f003 0302 	and.w	r3, r3, #2
 800151c:	607b      	str	r3, [r7, #4]
 800151e:	687b      	ldr	r3, [r7, #4]
  /* System interrupt init*/

  /* USER CODE BEGIN MspInit 1 */

  /* USER CODE END MspInit 1 */
}
 8001520:	bf00      	nop
 8001522:	370c      	adds	r7, #12
 8001524:	46bd      	mov	sp, r7
 8001526:	f85d 7b04 	ldr.w	r7, [sp], #4
 800152a:	4770      	bx	lr
 800152c:	58024400 	.word	0x58024400

08001530 <NMI_Handler>:
/******************************************************************************/
/**
  * @brief This function handles Non maskable interrupt.
  */
void NMI_Handler(void)
{
 8001530:	b480      	push	{r7}
 8001532:	af00      	add	r7, sp, #0
  /* USER CODE BEGIN NonMaskableInt_IRQn 0 */

  /* USER CODE END NonMaskableInt_IRQn 0 */
  /* USER CODE BEGIN NonMaskableInt_IRQn 1 */
  while (1)
 8001534:	e7fe      	b.n	8001534 <NMI_Handler+0x4>

08001536 <HardFault_Handler>:

/**
  * @brief This function handles Hard fault interrupt.
  */
void HardFault_Handler(void)
{
 8001536:	b480      	push	{r7}
 8001538:	af00      	add	r7, sp, #0
  /* USER CODE BEGIN HardFault_IRQn 0 */

  /* USER CODE END HardFault_IRQn 0 */
  while (1)
 800153a:	e7fe      	b.n	800153a <HardFault_Handler+0x4>

0800153c <MemManage_Handler>:

/**
  * @brief This function handles Memory management fault.
  */
void MemManage_Handler(void)
{
 800153c:	b480      	push	{r7}
 800153e:	af00      	add	r7, sp, #0
  /* USER CODE BEGIN MemoryManagement_IRQn 0 */

  /* USER CODE END MemoryManagement_IRQn 0 */
  while (1)
 8001540:	e7fe      	b.n	8001540 <MemManage_Handler+0x4>

08001542 <BusFault_Handler>:

/**
  * @brief This function handles Pre-fetch fault, memory access fault.
  */
void BusFault_Handler(void)
{
 8001542:	b480      	push	{r7}
 8001544:	af00      	add	r7, sp, #0
  /* USER CODE BEGIN BusFault_IRQn 0 */

  /* USER CODE END BusFault_IRQn 0 */
  while (1)
 8001546:	e7fe      	b.n	8001546 <BusFault_Handler+0x4>

08001548 <UsageFault_Handler>:

/**
  * @brief This function handles Undefined instruction or illegal state.
  */
void UsageFault_Handler(void)
{
 8001548:	b480      	push	{r7}
 800154a:	af00      	add	r7, sp, #0
  /* USER CODE BEGIN UsageFault_IRQn 0 */

  /* USER CODE END UsageFault_IRQn 0 */
  while (1)
 800154c:	e7fe      	b.n	800154c <UsageFault_Handler+0x4>

0800154e <SVC_Handler>:

/**
  * @brief This function handles System service call via SWI instruction.
  */
void SVC_Handler(void)
{
 800154e:	b480      	push	{r7}
 8001550:	af00      	add	r7, sp, #0

  /* USER CODE END SVCall_IRQn 0 */
  /* USER CODE BEGIN SVCall_IRQn 1 */

  /* USER CODE END SVCall_IRQn 1 */
}
 8001552:	bf00      	nop
 8001554:	46bd      	mov	sp, r7
 8001556:	f85d 7b04 	ldr.w	r7, [sp], #4
 800155a:	4770      	bx	lr

0800155c <DebugMon_Handler>:

/**
  * @brief This function handles Debug monitor.
  */
void DebugMon_Handler(void)
{
 800155c:	b480      	push	{r7}
 800155e:	af00      	add	r7, sp, #0

  /* USER CODE END DebugMonitor_IRQn 0 */
  /* USER CODE BEGIN DebugMonitor_IRQn 1 */

  /* USER CODE END DebugMonitor_IRQn 1 */
}
 8001560:	bf00      	nop
 8001562:	46bd      	mov	sp, r7
 8001564:	f85d 7b04 	ldr.w	r7, [sp], #4
 8001568:	4770      	bx	lr

0800156a <PendSV_Handler>:

/**
  * @brief This function handles Pendable request for system service.
  */
void PendSV_Handler(void)
{
 800156a:	b480      	push	{r7}
 800156c:	af00      	add	r7, sp, #0

  /* USER CODE END PendSV_IRQn 0 */
  /* USER CODE BEGIN PendSV_IRQn 1 */

  /* USER CODE END PendSV_IRQn 1 */
}
 800156e:	bf00      	nop
 8001570:	46bd      	mov	sp, r7
 8001572:	f85d 7b04 	ldr.w	r7, [sp], #4
 8001576:	4770      	bx	lr

08001578 <SysTick_Handler>:

/**
  * @brief This function handles System tick timer.
  */
void SysTick_Handler(void)
{
 8001578:	b580      	push	{r7, lr}
 800157a:	af00      	add	r7, sp, #0
  /* USER CODE BEGIN SysTick_IRQn 0 */

  /* USER CODE END SysTick_IRQn 0 */
  HAL_IncTick();
 800157c:	f000 f998 	bl	80018b0 <HAL_IncTick>
  /* USER CODE BEGIN SysTick_IRQn 1 */

  /* USER CODE END SysTick_IRQn 1 */
}
 8001580:	bf00      	nop
 8001582:	bd80      	pop	{r7, pc}

08001584 <SystemInit>:
  *         configuration.
  * @param  None
  * @retval None
  */
void SystemInit (void)
{
 8001584:	b480      	push	{r7}
 8001586:	af00      	add	r7, sp, #0
 __IO uint32_t tmpreg;
#endif /* DATA_IN_D2_SRAM */

  /* FPU settings ------------------------------------------------------------*/
  #if (__FPU_PRESENT == 1) && (__FPU_USED == 1)
    SCB->CPACR |= ((3UL << (10*2))|(3UL << (11*2)));  /* set CP10 and CP11 Full Access */
 8001588:	4b32      	ldr	r3, [pc, #200]	; (8001654 <SystemInit+0xd0>)
 800158a:	f8d3 3088 	ldr.w	r3, [r3, #136]	; 0x88
 800158e:	4a31      	ldr	r2, [pc, #196]	; (8001654 <SystemInit+0xd0>)
 8001590:	f443 0370 	orr.w	r3, r3, #15728640	; 0xf00000
 8001594:	f8c2 3088 	str.w	r3, [r2, #136]	; 0x88
  #endif
  /* Reset the RCC clock configuration to the default reset state ------------*/

   /* Increasing the CPU frequency */
  if(FLASH_LATENCY_DEFAULT  > (READ_BIT((FLASH->ACR), FLASH_ACR_LATENCY)))
 8001598:	4b2f      	ldr	r3, [pc, #188]	; (8001658 <SystemInit+0xd4>)
 800159a:	681b      	ldr	r3, [r3, #0]
 800159c:	f003 030f 	and.w	r3, r3, #15
 80015a0:	2b02      	cmp	r3, #2
 80015a2:	d807      	bhi.n	80015b4 <SystemInit+0x30>
  {
    /* Program the new number of wait states to the LATENCY bits in the FLASH_ACR register */
	MODIFY_REG(FLASH->ACR, FLASH_ACR_LATENCY, (uint32_t)(FLASH_LATENCY_DEFAULT));
 80015a4:	4b2c      	ldr	r3, [pc, #176]	; (8001658 <SystemInit+0xd4>)
 80015a6:	681b      	ldr	r3, [r3, #0]
 80015a8:	f023 030f 	bic.w	r3, r3, #15
 80015ac:	4a2a      	ldr	r2, [pc, #168]	; (8001658 <SystemInit+0xd4>)
 80015ae:	f043 0303 	orr.w	r3, r3, #3
 80015b2:	6013      	str	r3, [r2, #0]
  }

  /* Set HSION bit */
  RCC->CR |= RCC_CR_HSION;
 80015b4:	4b29      	ldr	r3, [pc, #164]	; (800165c <SystemInit+0xd8>)
 80015b6:	681b      	ldr	r3, [r3, #0]
 80015b8:	4a28      	ldr	r2, [pc, #160]	; (800165c <SystemInit+0xd8>)
 80015ba:	f043 0301 	orr.w	r3, r3, #1
 80015be:	6013      	str	r3, [r2, #0]

  /* Reset CFGR register */
  RCC->CFGR = 0x00000000;
 80015c0:	4b26      	ldr	r3, [pc, #152]	; (800165c <SystemInit+0xd8>)
 80015c2:	2200      	movs	r2, #0
 80015c4:	611a      	str	r2, [r3, #16]

  /* Reset HSEON, HSECSSON, CSION, HSI48ON, CSIKERON, PLL1ON, PLL2ON and PLL3ON bits */
  RCC->CR &= 0xEAF6ED7FU;
 80015c6:	4b25      	ldr	r3, [pc, #148]	; (800165c <SystemInit+0xd8>)
 80015c8:	681a      	ldr	r2, [r3, #0]
 80015ca:	4924      	ldr	r1, [pc, #144]	; (800165c <SystemInit+0xd8>)
 80015cc:	4b24      	ldr	r3, [pc, #144]	; (8001660 <SystemInit+0xdc>)
 80015ce:	4013      	ands	r3, r2
 80015d0:	600b      	str	r3, [r1, #0]
  
   /* Decreasing the number of wait states because of lower CPU frequency */
  if(FLASH_LATENCY_DEFAULT  < (READ_BIT((FLASH->ACR), FLASH_ACR_LATENCY)))
 80015d2:	4b21      	ldr	r3, [pc, #132]	; (8001658 <SystemInit+0xd4>)
 80015d4:	681b      	ldr	r3, [r3, #0]
 80015d6:	f003 030c 	and.w	r3, r3, #12
 80015da:	2b00      	cmp	r3, #0
 80015dc:	d007      	beq.n	80015ee <SystemInit+0x6a>
  {
    /* Program the new number of wait states to the LATENCY bits in the FLASH_ACR register */
	MODIFY_REG(FLASH->ACR, FLASH_ACR_LATENCY, (uint32_t)(FLASH_LATENCY_DEFAULT));
 80015de:	4b1e      	ldr	r3, [pc, #120]	; (8001658 <SystemInit+0xd4>)
 80015e0:	681b      	ldr	r3, [r3, #0]
 80015e2:	f023 030f 	bic.w	r3, r3, #15
 80015e6:	4a1c      	ldr	r2, [pc, #112]	; (8001658 <SystemInit+0xd4>)
 80015e8:	f043 0303 	orr.w	r3, r3, #3
 80015ec:	6013      	str	r3, [r2, #0]

  /* Reset D3CFGR register */
  RCC->D3CFGR = 0x00000000;
#else
  /* Reset CDCFGR1 register */
  RCC->CDCFGR1 = 0x00000000;
 80015ee:	4b1b      	ldr	r3, [pc, #108]	; (800165c <SystemInit+0xd8>)
 80015f0:	2200      	movs	r2, #0
 80015f2:	619a      	str	r2, [r3, #24]

  /* Reset CDCFGR2 register */
  RCC->CDCFGR2 = 0x00000000;
 80015f4:	4b19      	ldr	r3, [pc, #100]	; (800165c <SystemInit+0xd8>)
 80015f6:	2200      	movs	r2, #0
 80015f8:	61da      	str	r2, [r3, #28]

  /* Reset SRDCFGR register */
  RCC->SRDCFGR = 0x00000000;
 80015fa:	4b18      	ldr	r3, [pc, #96]	; (800165c <SystemInit+0xd8>)
 80015fc:	2200      	movs	r2, #0
 80015fe:	621a      	str	r2, [r3, #32]
#endif
  /* Reset PLLCKSELR register */
  RCC->PLLCKSELR = 0x02020200;
 8001600:	4b16      	ldr	r3, [pc, #88]	; (800165c <SystemInit+0xd8>)
 8001602:	4a18      	ldr	r2, [pc, #96]	; (8001664 <SystemInit+0xe0>)
 8001604:	629a      	str	r2, [r3, #40]	; 0x28

  /* Reset PLLCFGR register */
  RCC->PLLCFGR = 0x01FF0000;
 8001606:	4b15      	ldr	r3, [pc, #84]	; (800165c <SystemInit+0xd8>)
 8001608:	4a17      	ldr	r2, [pc, #92]	; (8001668 <SystemInit+0xe4>)
 800160a:	62da      	str	r2, [r3, #44]	; 0x2c
  /* Reset PLL1DIVR register */
  RCC->PLL1DIVR = 0x01010280;
 800160c:	4b13      	ldr	r3, [pc, #76]	; (800165c <SystemInit+0xd8>)
 800160e:	4a17      	ldr	r2, [pc, #92]	; (800166c <SystemInit+0xe8>)
 8001610:	631a      	str	r2, [r3, #48]	; 0x30
  /* Reset PLL1FRACR register */
  RCC->PLL1FRACR = 0x00000000;
 8001612:	4b12      	ldr	r3, [pc, #72]	; (800165c <SystemInit+0xd8>)
 8001614:	2200      	movs	r2, #0
 8001616:	635a      	str	r2, [r3, #52]	; 0x34

  /* Reset PLL2DIVR register */
  RCC->PLL2DIVR = 0x01010280;
 8001618:	4b10      	ldr	r3, [pc, #64]	; (800165c <SystemInit+0xd8>)
 800161a:	4a14      	ldr	r2, [pc, #80]	; (800166c <SystemInit+0xe8>)
 800161c:	639a      	str	r2, [r3, #56]	; 0x38

  /* Reset PLL2FRACR register */

  RCC->PLL2FRACR = 0x00000000;
 800161e:	4b0f      	ldr	r3, [pc, #60]	; (800165c <SystemInit+0xd8>)
 8001620:	2200      	movs	r2, #0
 8001622:	63da      	str	r2, [r3, #60]	; 0x3c
  /* Reset PLL3DIVR register */
  RCC->PLL3DIVR = 0x01010280;
 8001624:	4b0d      	ldr	r3, [pc, #52]	; (800165c <SystemInit+0xd8>)
 8001626:	4a11      	ldr	r2, [pc, #68]	; (800166c <SystemInit+0xe8>)
 8001628:	641a      	str	r2, [r3, #64]	; 0x40

  /* Reset PLL3FRACR register */
  RCC->PLL3FRACR = 0x00000000;
 800162a:	4b0c      	ldr	r3, [pc, #48]	; (800165c <SystemInit+0xd8>)
 800162c:	2200      	movs	r2, #0
 800162e:	645a      	str	r2, [r3, #68]	; 0x44

  /* Reset HSEBYP bit */
  RCC->CR &= 0xFFFBFFFFU;
 8001630:	4b0a      	ldr	r3, [pc, #40]	; (800165c <SystemInit+0xd8>)
 8001632:	681b      	ldr	r3, [r3, #0]
 8001634:	4a09      	ldr	r2, [pc, #36]	; (800165c <SystemInit+0xd8>)
 8001636:	f423 2380 	bic.w	r3, r3, #262144	; 0x40000
 800163a:	6013      	str	r3, [r2, #0]

  /* Disable all interrupts */
  RCC->CIER = 0x00000000;
 800163c:	4b07      	ldr	r3, [pc, #28]	; (800165c <SystemInit+0xd8>)
 800163e:	2200      	movs	r2, #0
 8001640:	661a      	str	r2, [r3, #96]	; 0x60
  /*
   * Disable the FMC bank1 (enabled after reset).
   * This, prevents CPU speculation access on this bank which blocks the use of FMC during
   * 24us. During this time the others FMC master (such as LTDC) cannot use it!
   */
  FMC_Bank1_R->BTCR[0] = 0x000030D2;
 8001642:	4b0b      	ldr	r3, [pc, #44]	; (8001670 <SystemInit+0xec>)
 8001644:	f243 02d2 	movw	r2, #12498	; 0x30d2
 8001648:	601a      	str	r2, [r3, #0]
  SCB->VTOR = VECT_TAB_BASE_ADDRESS | VECT_TAB_OFFSET; /* Vector Table Relocation in Internal D1 AXI-RAM or in Internal FLASH */
#endif /* USER_VECT_TAB_ADDRESS */

#endif /*DUAL_CORE && CORE_CM4*/

}
 800164a:	bf00      	nop
 800164c:	46bd      	mov	sp, r7
 800164e:	f85d 7b04 	ldr.w	r7, [sp], #4
 8001652:	4770      	bx	lr
 8001654:	e000ed00 	.word	0xe000ed00
 8001658:	52002000 	.word	0x52002000
 800165c:	58024400 	.word	0x58024400
 8001660:	eaf6ed7f 	.word	0xeaf6ed7f
 8001664:	02020200 	.word	0x02020200
 8001668:	01ff0000 	.word	0x01ff0000
 800166c:	01010280 	.word	0x01010280
 8001670:	52004000 	.word	0x52004000

08001674 <MX_TIM5_Init>:

TIM_HandleTypeDef htim5;

/* TIM5 init function */
void MX_TIM5_Init(void)
{
 8001674:	b580      	push	{r7, lr}
 8001676:	b088      	sub	sp, #32
 8001678:	af00      	add	r7, sp, #0

  /* USER CODE BEGIN TIM5_Init 0 */

  /* USER CODE END TIM5_Init 0 */

  TIM_SlaveConfigTypeDef sSlaveConfig = {0};
 800167a:	f107 030c 	add.w	r3, r7, #12
 800167e:	2200      	movs	r2, #0
 8001680:	601a      	str	r2, [r3, #0]
 8001682:	605a      	str	r2, [r3, #4]
 8001684:	609a      	str	r2, [r3, #8]
 8001686:	60da      	str	r2, [r3, #12]
 8001688:	611a      	str	r2, [r3, #16]
  TIM_MasterConfigTypeDef sMasterConfig = {0};
 800168a:	463b      	mov	r3, r7
 800168c:	2200      	movs	r2, #0
 800168e:	601a      	str	r2, [r3, #0]
 8001690:	605a      	str	r2, [r3, #4]
 8001692:	609a      	str	r2, [r3, #8]

  /* USER CODE BEGIN TIM5_Init 1 */

  /* USER CODE END TIM5_Init 1 */
  htim5.Instance = TIM5;
 8001694:	4b25      	ldr	r3, [pc, #148]	; (800172c <MX_TIM5_Init+0xb8>)
 8001696:	4a26      	ldr	r2, [pc, #152]	; (8001730 <MX_TIM5_Init+0xbc>)
 8001698:	601a      	str	r2, [r3, #0]
  htim5.Init.Prescaler = 0;
 800169a:	4b24      	ldr	r3, [pc, #144]	; (800172c <MX_TIM5_Init+0xb8>)
 800169c:	2200      	movs	r2, #0
 800169e:	605a      	str	r2, [r3, #4]
  htim5.Init.CounterMode = TIM_COUNTERMODE_UP;
 80016a0:	4b22      	ldr	r3, [pc, #136]	; (800172c <MX_TIM5_Init+0xb8>)
 80016a2:	2200      	movs	r2, #0
 80016a4:	609a      	str	r2, [r3, #8]
  htim5.Init.Period = 4294967295;
 80016a6:	4b21      	ldr	r3, [pc, #132]	; (800172c <MX_TIM5_Init+0xb8>)
 80016a8:	f04f 32ff 	mov.w	r2, #4294967295
 80016ac:	60da      	str	r2, [r3, #12]
  htim5.Init.ClockDivision = TIM_CLOCKDIVISION_DIV1;
 80016ae:	4b1f      	ldr	r3, [pc, #124]	; (800172c <MX_TIM5_Init+0xb8>)
 80016b0:	2200      	movs	r2, #0
 80016b2:	611a      	str	r2, [r3, #16]
  htim5.Init.AutoReloadPreload = TIM_AUTORELOAD_PRELOAD_DISABLE;
 80016b4:	4b1d      	ldr	r3, [pc, #116]	; (800172c <MX_TIM5_Init+0xb8>)
 80016b6:	2200      	movs	r2, #0
 80016b8:	619a      	str	r2, [r3, #24]
  if (HAL_TIM_Base_Init(&htim5) != HAL_OK)
 80016ba:	481c      	ldr	r0, [pc, #112]	; (800172c <MX_TIM5_Init+0xb8>)
 80016bc:	f004 f96e 	bl	800599c <HAL_TIM_Base_Init>
 80016c0:	4603      	mov	r3, r0
 80016c2:	2b00      	cmp	r3, #0
 80016c4:	d001      	beq.n	80016ca <MX_TIM5_Init+0x56>
  {
    Error_Handler();
 80016c6:	f7ff fd9f 	bl	8001208 <Error_Handler>
  }
  sSlaveConfig.SlaveMode = TIM_SLAVEMODE_EXTERNAL1;
 80016ca:	2307      	movs	r3, #7
 80016cc:	60fb      	str	r3, [r7, #12]
  sSlaveConfig.InputTrigger = TIM_TS_ETRF;
 80016ce:	2370      	movs	r3, #112	; 0x70
 80016d0:	613b      	str	r3, [r7, #16]
  sSlaveConfig.TriggerPolarity = TIM_TRIGGERPOLARITY_NONINVERTED;
 80016d2:	2300      	movs	r3, #0
 80016d4:	617b      	str	r3, [r7, #20]
  sSlaveConfig.TriggerPrescaler = TIM_TRIGGERPRESCALER_DIV1;
 80016d6:	2300      	movs	r3, #0
 80016d8:	61bb      	str	r3, [r7, #24]
  sSlaveConfig.TriggerFilter = 4;
 80016da:	2304      	movs	r3, #4
 80016dc:	61fb      	str	r3, [r7, #28]
  if (HAL_TIM_SlaveConfigSynchro(&htim5, &sSlaveConfig) != HAL_OK)
 80016de:	f107 030c 	add.w	r3, r7, #12
 80016e2:	4619      	mov	r1, r3
 80016e4:	4811      	ldr	r0, [pc, #68]	; (800172c <MX_TIM5_Init+0xb8>)
 80016e6:	f004 f9b0 	bl	8005a4a <HAL_TIM_SlaveConfigSynchro>
 80016ea:	4603      	mov	r3, r0
 80016ec:	2b00      	cmp	r3, #0
 80016ee:	d001      	beq.n	80016f4 <MX_TIM5_Init+0x80>
  {
    Error_Handler();
 80016f0:	f7ff fd8a 	bl	8001208 <Error_Handler>
  }
  sMasterConfig.MasterOutputTrigger = TIM_TRGO_RESET;
 80016f4:	2300      	movs	r3, #0
 80016f6:	603b      	str	r3, [r7, #0]
  sMasterConfig.MasterSlaveMode = TIM_MASTERSLAVEMODE_DISABLE;
 80016f8:	2300      	movs	r3, #0
 80016fa:	60bb      	str	r3, [r7, #8]
  if (HAL_TIMEx_MasterConfigSynchronization(&htim5, &sMasterConfig) != HAL_OK)
 80016fc:	463b      	mov	r3, r7
 80016fe:	4619      	mov	r1, r3
 8001700:	480a      	ldr	r0, [pc, #40]	; (800172c <MX_TIM5_Init+0xb8>)
 8001702:	f004 fbe9 	bl	8005ed8 <HAL_TIMEx_MasterConfigSynchronization>
 8001706:	4603      	mov	r3, r0
 8001708:	2b00      	cmp	r3, #0
 800170a:	d001      	beq.n	8001710 <MX_TIM5_Init+0x9c>
  {
    Error_Handler();
 800170c:	f7ff fd7c 	bl	8001208 <Error_Handler>
  }
  if (HAL_TIMEx_RemapConfig(&htim5, TIM_TIM5_ETR_SAI2_FSA) != HAL_OK)
 8001710:	f44f 4180 	mov.w	r1, #16384	; 0x4000
 8001714:	4805      	ldr	r0, [pc, #20]	; (800172c <MX_TIM5_Init+0xb8>)
 8001716:	f004 fc6d 	bl	8005ff4 <HAL_TIMEx_RemapConfig>
 800171a:	4603      	mov	r3, r0
 800171c:	2b00      	cmp	r3, #0
 800171e:	d001      	beq.n	8001724 <MX_TIM5_Init+0xb0>
  {
    Error_Handler();
 8001720:	f7ff fd72 	bl	8001208 <Error_Handler>
  }
  /* USER CODE BEGIN TIM5_Init 2 */

  /* USER CODE END TIM5_Init 2 */

}
 8001724:	bf00      	nop
 8001726:	3720      	adds	r7, #32
 8001728:	46bd      	mov	sp, r7
 800172a:	bd80      	pop	{r7, pc}
 800172c:	240000fc 	.word	0x240000fc
 8001730:	40000c00 	.word	0x40000c00

08001734 <HAL_TIM_Base_MspInit>:

void HAL_TIM_Base_MspInit(TIM_HandleTypeDef* tim_baseHandle)
{
 8001734:	b480      	push	{r7}
 8001736:	b085      	sub	sp, #20
 8001738:	af00      	add	r7, sp, #0
 800173a:	6078      	str	r0, [r7, #4]

  if(tim_baseHandle->Instance==TIM5)
 800173c:	687b      	ldr	r3, [r7, #4]
 800173e:	681b      	ldr	r3, [r3, #0]
 8001740:	4a0b      	ldr	r2, [pc, #44]	; (8001770 <HAL_TIM_Base_MspInit+0x3c>)
 8001742:	4293      	cmp	r3, r2
 8001744:	d10e      	bne.n	8001764 <HAL_TIM_Base_MspInit+0x30>
  {
  /* USER CODE BEGIN TIM5_MspInit 0 */

  /* USER CODE END TIM5_MspInit 0 */
    /* TIM5 clock enable */
    __HAL_RCC_TIM5_CLK_ENABLE();
 8001746:	4b0b      	ldr	r3, [pc, #44]	; (8001774 <HAL_TIM_Base_MspInit+0x40>)
 8001748:	f8d3 3148 	ldr.w	r3, [r3, #328]	; 0x148
 800174c:	4a09      	ldr	r2, [pc, #36]	; (8001774 <HAL_TIM_Base_MspInit+0x40>)
 800174e:	f043 0308 	orr.w	r3, r3, #8
 8001752:	f8c2 3148 	str.w	r3, [r2, #328]	; 0x148
 8001756:	4b07      	ldr	r3, [pc, #28]	; (8001774 <HAL_TIM_Base_MspInit+0x40>)
 8001758:	f8d3 3148 	ldr.w	r3, [r3, #328]	; 0x148
 800175c:	f003 0308 	and.w	r3, r3, #8
 8001760:	60fb      	str	r3, [r7, #12]
 8001762:	68fb      	ldr	r3, [r7, #12]
  /* USER CODE BEGIN TIM5_MspInit 1 */

  /* USER CODE END TIM5_MspInit 1 */
  }
}
 8001764:	bf00      	nop
 8001766:	3714      	adds	r7, #20
 8001768:	46bd      	mov	sp, r7
 800176a:	f85d 7b04 	ldr.w	r7, [sp], #4
 800176e:	4770      	bx	lr
 8001770:	40000c00 	.word	0x40000c00
 8001774:	58024400 	.word	0x58024400

08001778 <Reset_Handler>:

    .section  .text.Reset_Handler
  .weak  Reset_Handler
  .type  Reset_Handler, %function
Reset_Handler:  
  ldr   sp, =_estack      /* set stack pointer */
 8001778:	f8df d034 	ldr.w	sp, [pc, #52]	; 80017b0 <LoopFillZerobss+0xe>
  
/* Call the clock system initialization function.*/
  bl  SystemInit
 800177c:	f7ff ff02 	bl	8001584 <SystemInit>
  
/* Copy the data segment initializers from flash to SRAM */  
  ldr r0, =_sdata
 8001780:	480c      	ldr	r0, [pc, #48]	; (80017b4 <LoopFillZerobss+0x12>)
  ldr r1, =_edata
 8001782:	490d      	ldr	r1, [pc, #52]	; (80017b8 <LoopFillZerobss+0x16>)
  ldr r2, =_sidata
 8001784:	4a0d      	ldr	r2, [pc, #52]	; (80017bc <LoopFillZerobss+0x1a>)
  movs r3, #0
 8001786:	2300      	movs	r3, #0
  b LoopCopyDataInit
 8001788:	e002      	b.n	8001790 <LoopCopyDataInit>

0800178a <CopyDataInit>:

CopyDataInit:
  ldr r4, [r2, r3]
 800178a:	58d4      	ldr	r4, [r2, r3]
  str r4, [r0, r3]
 800178c:	50c4      	str	r4, [r0, r3]
  adds r3, r3, #4
 800178e:	3304      	adds	r3, #4

08001790 <LoopCopyDataInit>:
    
LoopCopyDataInit:
  adds r4, r0, r3
 8001790:	18c4      	adds	r4, r0, r3
  cmp r4, r1
 8001792:	428c      	cmp	r4, r1
  bcc CopyDataInit
 8001794:	d3f9      	bcc.n	800178a <CopyDataInit>
/* Zero fill the bss segment. */
  ldr r2, =_sbss
 8001796:	4a0a      	ldr	r2, [pc, #40]	; (80017c0 <LoopFillZerobss+0x1e>)
  ldr r4, =_ebss
 8001798:	4c0a      	ldr	r4, [pc, #40]	; (80017c4 <LoopFillZerobss+0x22>)
  movs r3, #0
 800179a:	2300      	movs	r3, #0
  b LoopFillZerobss
 800179c:	e001      	b.n	80017a2 <LoopFillZerobss>

0800179e <FillZerobss>:

FillZerobss:
  str  r3, [r2]
 800179e:	6013      	str	r3, [r2, #0]
  adds r2, r2, #4
 80017a0:	3204      	adds	r2, #4

080017a2 <LoopFillZerobss>:

LoopFillZerobss:
  cmp r2, r4
 80017a2:	42a2      	cmp	r2, r4
  bcc FillZerobss
 80017a4:	d3fb      	bcc.n	800179e <FillZerobss>
  
/* Call static constructors */
    bl __libc_init_array
 80017a6:	f004 fc4b 	bl	8006040 <__libc_init_array>
/* Call the application's entry point.*/
  bl  main
 80017aa:	f7ff fbf1 	bl	8000f90 <main>
  bx  lr
 80017ae:	4770      	bx	lr
  ldr   sp, =_estack      /* set stack pointer */
 80017b0:	24100000 	.word	0x24100000
  ldr r0, =_sdata
 80017b4:	24000000 	.word	0x24000000
  ldr r1, =_edata
 80017b8:	24000018 	.word	0x24000018
  ldr r2, =_sidata
 80017bc:	080060c8 	.word	0x080060c8
  ldr r2, =_sbss
 80017c0:	24000018 	.word	0x24000018
  ldr r4, =_ebss
 80017c4:	2400014c 	.word	0x2400014c

080017c8 <ADC_IRQHandler>:
 * @retval None       
*/
    .section  .text.Default_Handler,"ax",%progbits
Default_Handler:
Infinite_Loop:
  b  Infinite_Loop
 80017c8:	e7fe      	b.n	80017c8 <ADC_IRQHandler>
	...

080017cc <HAL_Init>:
  *         need to ensure that the SysTick time base is always set to 1 millisecond
  *         to have correct HAL operation.
  * @retval HAL status
  */
HAL_StatusTypeDef HAL_Init(void)
{
 80017cc:	b580      	push	{r7, lr}
 80017ce:	b082      	sub	sp, #8
 80017d0:	af00      	add	r7, sp, #0
   __HAL_ART_CONFIG_BASE_ADDRESS(0x08100000UL);  /* Configure the Cortex-M4 ART Base address to the Flash Bank 2 : */
   __HAL_ART_ENABLE();                           /* Enable the Cortex-M4 ART */
#endif /* DUAL_CORE &&  CORE_CM4 */

  /* Set Interrupt Group Priority */
  HAL_NVIC_SetPriorityGrouping(NVIC_PRIORITYGROUP_4);
 80017d2:	2003      	movs	r0, #3
 80017d4:	f000 f962 	bl	8001a9c <HAL_NVIC_SetPriorityGrouping>

  /* Update the SystemCoreClock global variable */
#if defined(RCC_D1CFGR_D1CPRE)
  common_system_clock = HAL_RCC_GetSysClockFreq() >> ((D1CorePrescTable[(RCC->D1CFGR & RCC_D1CFGR_D1CPRE)>> RCC_D1CFGR_D1CPRE_Pos]) & 0x1FU);
#else
  common_system_clock = HAL_RCC_GetSysClockFreq() >> ((D1CorePrescTable[(RCC->CDCFGR1 & RCC_CDCFGR1_CDCPRE)>> RCC_CDCFGR1_CDCPRE_Pos]) & 0x1FU);
 80017d8:	f002 fef6 	bl	80045c8 <HAL_RCC_GetSysClockFreq>
 80017dc:	4602      	mov	r2, r0
 80017de:	4b15      	ldr	r3, [pc, #84]	; (8001834 <HAL_Init+0x68>)
 80017e0:	699b      	ldr	r3, [r3, #24]
 80017e2:	0a1b      	lsrs	r3, r3, #8
 80017e4:	f003 030f 	and.w	r3, r3, #15
 80017e8:	4913      	ldr	r1, [pc, #76]	; (8001838 <HAL_Init+0x6c>)
 80017ea:	5ccb      	ldrb	r3, [r1, r3]
 80017ec:	f003 031f 	and.w	r3, r3, #31
 80017f0:	fa22 f303 	lsr.w	r3, r2, r3
 80017f4:	607b      	str	r3, [r7, #4]

  /* Update the SystemD2Clock global variable */
#if defined(RCC_D1CFGR_HPRE)
  SystemD2Clock = (common_system_clock >> ((D1CorePrescTable[(RCC->D1CFGR & RCC_D1CFGR_HPRE)>> RCC_D1CFGR_HPRE_Pos]) & 0x1FU));
#else
  SystemD2Clock = (common_system_clock >> ((D1CorePrescTable[(RCC->CDCFGR1 & RCC_CDCFGR1_HPRE)>> RCC_CDCFGR1_HPRE_Pos]) & 0x1FU));
 80017f6:	4b0f      	ldr	r3, [pc, #60]	; (8001834 <HAL_Init+0x68>)
 80017f8:	699b      	ldr	r3, [r3, #24]
 80017fa:	f003 030f 	and.w	r3, r3, #15
 80017fe:	4a0e      	ldr	r2, [pc, #56]	; (8001838 <HAL_Init+0x6c>)
 8001800:	5cd3      	ldrb	r3, [r2, r3]
 8001802:	f003 031f 	and.w	r3, r3, #31
 8001806:	687a      	ldr	r2, [r7, #4]
 8001808:	fa22 f303 	lsr.w	r3, r2, r3
 800180c:	4a0b      	ldr	r2, [pc, #44]	; (800183c <HAL_Init+0x70>)
 800180e:	6013      	str	r3, [r2, #0]
#endif

#if defined(DUAL_CORE) && defined(CORE_CM4)
  SystemCoreClock = SystemD2Clock;
#else
  SystemCoreClock = common_system_clock;
 8001810:	4a0b      	ldr	r2, [pc, #44]	; (8001840 <HAL_Init+0x74>)
 8001812:	687b      	ldr	r3, [r7, #4]
 8001814:	6013      	str	r3, [r2, #0]
#endif /* DUAL_CORE && CORE_CM4 */

  /* Use systick as time base source and configure 1ms tick (default clock after Reset is HSI) */
  if(HAL_InitTick(TICK_INT_PRIORITY) != HAL_OK)
 8001816:	200f      	movs	r0, #15
 8001818:	f000 f814 	bl	8001844 <HAL_InitTick>
 800181c:	4603      	mov	r3, r0
 800181e:	2b00      	cmp	r3, #0
 8001820:	d001      	beq.n	8001826 <HAL_Init+0x5a>
  {
    return HAL_ERROR;
 8001822:	2301      	movs	r3, #1
 8001824:	e002      	b.n	800182c <HAL_Init+0x60>
  }

  /* Init the low level hardware */
  HAL_MspInit();
 8001826:	f7ff fe69 	bl	80014fc <HAL_MspInit>

  /* Return function status */
  return HAL_OK;
 800182a:	2300      	movs	r3, #0
}
 800182c:	4618      	mov	r0, r3
 800182e:	3708      	adds	r7, #8
 8001830:	46bd      	mov	sp, r7
 8001832:	bd80      	pop	{r7, pc}
 8001834:	58024400 	.word	0x58024400
 8001838:	080060b0 	.word	0x080060b0
 800183c:	2400000c 	.word	0x2400000c
 8001840:	24000008 	.word	0x24000008

08001844 <HAL_InitTick>:
  *       implementation  in user file.
  * @param TickPriority: Tick interrupt priority.
  * @retval HAL status
  */
__weak HAL_StatusTypeDef HAL_InitTick(uint32_t TickPriority)
{
 8001844:	b580      	push	{r7, lr}
 8001846:	b082      	sub	sp, #8
 8001848:	af00      	add	r7, sp, #0
 800184a:	6078      	str	r0, [r7, #4]
  /* Check uwTickFreq for MisraC 2012 (even if uwTickFreq is a enum type that don't take the value zero)*/
  if((uint32_t)uwTickFreq == 0UL)
 800184c:	4b15      	ldr	r3, [pc, #84]	; (80018a4 <HAL_InitTick+0x60>)
 800184e:	781b      	ldrb	r3, [r3, #0]
 8001850:	2b00      	cmp	r3, #0
 8001852:	d101      	bne.n	8001858 <HAL_InitTick+0x14>
  {
    return HAL_ERROR;
 8001854:	2301      	movs	r3, #1
 8001856:	e021      	b.n	800189c <HAL_InitTick+0x58>
  }

    /* Configure the SysTick to have interrupt in 1ms time basis*/
    if (HAL_SYSTICK_Config(SystemCoreClock / (1000UL / (uint32_t)uwTickFreq)) > 0U)
 8001858:	4b13      	ldr	r3, [pc, #76]	; (80018a8 <HAL_InitTick+0x64>)
 800185a:	681a      	ldr	r2, [r3, #0]
 800185c:	4b11      	ldr	r3, [pc, #68]	; (80018a4 <HAL_InitTick+0x60>)
 800185e:	781b      	ldrb	r3, [r3, #0]
 8001860:	4619      	mov	r1, r3
 8001862:	f44f 737a 	mov.w	r3, #1000	; 0x3e8
 8001866:	fbb3 f3f1 	udiv	r3, r3, r1
 800186a:	fbb2 f3f3 	udiv	r3, r2, r3
 800186e:	4618      	mov	r0, r3
 8001870:	f000 f939 	bl	8001ae6 <HAL_SYSTICK_Config>
 8001874:	4603      	mov	r3, r0
 8001876:	2b00      	cmp	r3, #0
 8001878:	d001      	beq.n	800187e <HAL_InitTick+0x3a>
    {
      return HAL_ERROR;
 800187a:	2301      	movs	r3, #1
 800187c:	e00e      	b.n	800189c <HAL_InitTick+0x58>
    }

  /* Configure the SysTick IRQ priority */
  if (TickPriority < (1UL << __NVIC_PRIO_BITS))
 800187e:	687b      	ldr	r3, [r7, #4]
 8001880:	2b0f      	cmp	r3, #15
 8001882:	d80a      	bhi.n	800189a <HAL_InitTick+0x56>
  {
    HAL_NVIC_SetPriority(SysTick_IRQn, TickPriority, 0U);
 8001884:	2200      	movs	r2, #0
 8001886:	6879      	ldr	r1, [r7, #4]
 8001888:	f04f 30ff 	mov.w	r0, #4294967295
 800188c:	f000 f911 	bl	8001ab2 <HAL_NVIC_SetPriority>
    uwTickPrio = TickPriority;
 8001890:	4a06      	ldr	r2, [pc, #24]	; (80018ac <HAL_InitTick+0x68>)
 8001892:	687b      	ldr	r3, [r7, #4]
 8001894:	6013      	str	r3, [r2, #0]
  {
    return HAL_ERROR;
  }

  /* Return function status */
  return HAL_OK;
 8001896:	2300      	movs	r3, #0
 8001898:	e000      	b.n	800189c <HAL_InitTick+0x58>
    return HAL_ERROR;
 800189a:	2301      	movs	r3, #1
}
 800189c:	4618      	mov	r0, r3
 800189e:	3708      	adds	r7, #8
 80018a0:	46bd      	mov	sp, r7
 80018a2:	bd80      	pop	{r7, pc}
 80018a4:	24000014 	.word	0x24000014
 80018a8:	24000008 	.word	0x24000008
 80018ac:	24000010 	.word	0x24000010

080018b0 <HAL_IncTick>:
 * @note This function is declared as __weak to be overwritten in case of other
  *      implementations in user file.
  * @retval None
  */
__weak void HAL_IncTick(void)
{
 80018b0:	b480      	push	{r7}
 80018b2:	af00      	add	r7, sp, #0
  uwTick += (uint32_t)uwTickFreq;
 80018b4:	4b06      	ldr	r3, [pc, #24]	; (80018d0 <HAL_IncTick+0x20>)
 80018b6:	781b      	ldrb	r3, [r3, #0]
 80018b8:	461a      	mov	r2, r3
 80018ba:	4b06      	ldr	r3, [pc, #24]	; (80018d4 <HAL_IncTick+0x24>)
 80018bc:	681b      	ldr	r3, [r3, #0]
 80018be:	4413      	add	r3, r2
 80018c0:	4a04      	ldr	r2, [pc, #16]	; (80018d4 <HAL_IncTick+0x24>)
 80018c2:	6013      	str	r3, [r2, #0]
}
 80018c4:	bf00      	nop
 80018c6:	46bd      	mov	sp, r7
 80018c8:	f85d 7b04 	ldr.w	r7, [sp], #4
 80018cc:	4770      	bx	lr
 80018ce:	bf00      	nop
 80018d0:	24000014 	.word	0x24000014
 80018d4:	24000148 	.word	0x24000148

080018d8 <HAL_GetTick>:
  * @note This function is declared as __weak to be overwritten in case of other
  *       implementations in user file.
  * @retval tick value
  */
__weak uint32_t HAL_GetTick(void)
{
 80018d8:	b480      	push	{r7}
 80018da:	af00      	add	r7, sp, #0
  return uwTick;
 80018dc:	4b03      	ldr	r3, [pc, #12]	; (80018ec <HAL_GetTick+0x14>)
 80018de:	681b      	ldr	r3, [r3, #0]
}
 80018e0:	4618      	mov	r0, r3
 80018e2:	46bd      	mov	sp, r7
 80018e4:	f85d 7b04 	ldr.w	r7, [sp], #4
 80018e8:	4770      	bx	lr
 80018ea:	bf00      	nop
 80018ec:	24000148 	.word	0x24000148

080018f0 <HAL_Delay>:
  *       implementations in user file.
  * @param Delay  specifies the delay time length, in milliseconds.
  * @retval None
  */
__weak void HAL_Delay(uint32_t Delay)
{
 80018f0:	b580      	push	{r7, lr}
 80018f2:	b084      	sub	sp, #16
 80018f4:	af00      	add	r7, sp, #0
 80018f6:	6078      	str	r0, [r7, #4]
  uint32_t tickstart = HAL_GetTick();
 80018f8:	f7ff ffee 	bl	80018d8 <HAL_GetTick>
 80018fc:	60b8      	str	r0, [r7, #8]
  uint32_t wait = Delay;
 80018fe:	687b      	ldr	r3, [r7, #4]
 8001900:	60fb      	str	r3, [r7, #12]

  /* Add a freq to guarantee minimum wait */
  if (wait < HAL_MAX_DELAY)
 8001902:	68fb      	ldr	r3, [r7, #12]
 8001904:	f1b3 3fff 	cmp.w	r3, #4294967295
 8001908:	d005      	beq.n	8001916 <HAL_Delay+0x26>
  {
    wait += (uint32_t)(uwTickFreq);
 800190a:	4b0a      	ldr	r3, [pc, #40]	; (8001934 <HAL_Delay+0x44>)
 800190c:	781b      	ldrb	r3, [r3, #0]
 800190e:	461a      	mov	r2, r3
 8001910:	68fb      	ldr	r3, [r7, #12]
 8001912:	4413      	add	r3, r2
 8001914:	60fb      	str	r3, [r7, #12]
  }

  while ((HAL_GetTick() - tickstart) < wait)
 8001916:	bf00      	nop
 8001918:	f7ff ffde 	bl	80018d8 <HAL_GetTick>
 800191c:	4602      	mov	r2, r0
 800191e:	68bb      	ldr	r3, [r7, #8]
 8001920:	1ad3      	subs	r3, r2, r3
 8001922:	68fa      	ldr	r2, [r7, #12]
 8001924:	429a      	cmp	r2, r3
 8001926:	d8f7      	bhi.n	8001918 <HAL_Delay+0x28>
  {
  }
}
 8001928:	bf00      	nop
 800192a:	bf00      	nop
 800192c:	3710      	adds	r7, #16
 800192e:	46bd      	mov	sp, r7
 8001930:	bd80      	pop	{r7, pc}
 8001932:	bf00      	nop
 8001934:	24000014 	.word	0x24000014

08001938 <__NVIC_SetPriorityGrouping>:
           In case of a conflict between priority grouping and available
           priority bits (__NVIC_PRIO_BITS), the smallest possible priority group is set.
  \param [in]      PriorityGroup  Priority grouping field.
 */
__STATIC_INLINE void __NVIC_SetPriorityGrouping(uint32_t PriorityGroup)
{
 8001938:	b480      	push	{r7}
 800193a:	b085      	sub	sp, #20
 800193c:	af00      	add	r7, sp, #0
 800193e:	6078      	str	r0, [r7, #4]
  uint32_t reg_value;
  uint32_t PriorityGroupTmp = (PriorityGroup & (uint32_t)0x07UL);             /* only values 0..7 are used          */
 8001940:	687b      	ldr	r3, [r7, #4]
 8001942:	f003 0307 	and.w	r3, r3, #7
 8001946:	60fb      	str	r3, [r7, #12]

  reg_value  =  SCB->AIRCR;                                                   /* read old register configuration    */
 8001948:	4b0b      	ldr	r3, [pc, #44]	; (8001978 <__NVIC_SetPriorityGrouping+0x40>)
 800194a:	68db      	ldr	r3, [r3, #12]
 800194c:	60bb      	str	r3, [r7, #8]
  reg_value &= ~((uint32_t)(SCB_AIRCR_VECTKEY_Msk | SCB_AIRCR_PRIGROUP_Msk)); /* clear bits to change               */
 800194e:	68ba      	ldr	r2, [r7, #8]
 8001950:	f64f 03ff 	movw	r3, #63743	; 0xf8ff
 8001954:	4013      	ands	r3, r2
 8001956:	60bb      	str	r3, [r7, #8]
  reg_value  =  (reg_value                                   |
                ((uint32_t)0x5FAUL << SCB_AIRCR_VECTKEY_Pos) |
                (PriorityGroupTmp << SCB_AIRCR_PRIGROUP_Pos)  );              /* Insert write key and priority group */
 8001958:	68fb      	ldr	r3, [r7, #12]
 800195a:	021a      	lsls	r2, r3, #8
                ((uint32_t)0x5FAUL << SCB_AIRCR_VECTKEY_Pos) |
 800195c:	68bb      	ldr	r3, [r7, #8]
 800195e:	431a      	orrs	r2, r3
  reg_value  =  (reg_value                                   |
 8001960:	4b06      	ldr	r3, [pc, #24]	; (800197c <__NVIC_SetPriorityGrouping+0x44>)
 8001962:	4313      	orrs	r3, r2
 8001964:	60bb      	str	r3, [r7, #8]
  SCB->AIRCR =  reg_value;
 8001966:	4a04      	ldr	r2, [pc, #16]	; (8001978 <__NVIC_SetPriorityGrouping+0x40>)
 8001968:	68bb      	ldr	r3, [r7, #8]
 800196a:	60d3      	str	r3, [r2, #12]
}
 800196c:	bf00      	nop
 800196e:	3714      	adds	r7, #20
 8001970:	46bd      	mov	sp, r7
 8001972:	f85d 7b04 	ldr.w	r7, [sp], #4
 8001976:	4770      	bx	lr
 8001978:	e000ed00 	.word	0xe000ed00
 800197c:	05fa0000 	.word	0x05fa0000

08001980 <__NVIC_GetPriorityGrouping>:
  \brief   Get Priority Grouping
  \details Reads the priority grouping field from the NVIC Interrupt Controller.
  \return                Priority grouping field (SCB->AIRCR [10:8] PRIGROUP field).
 */
__STATIC_INLINE uint32_t __NVIC_GetPriorityGrouping(void)
{
 8001980:	b480      	push	{r7}
 8001982:	af00      	add	r7, sp, #0
  return ((uint32_t)((SCB->AIRCR & SCB_AIRCR_PRIGROUP_Msk) >> SCB_AIRCR_PRIGROUP_Pos));
 8001984:	4b04      	ldr	r3, [pc, #16]	; (8001998 <__NVIC_GetPriorityGrouping+0x18>)
 8001986:	68db      	ldr	r3, [r3, #12]
 8001988:	0a1b      	lsrs	r3, r3, #8
 800198a:	f003 0307 	and.w	r3, r3, #7
}
 800198e:	4618      	mov	r0, r3
 8001990:	46bd      	mov	sp, r7
 8001992:	f85d 7b04 	ldr.w	r7, [sp], #4
 8001996:	4770      	bx	lr
 8001998:	e000ed00 	.word	0xe000ed00

0800199c <__NVIC_SetPriority>:
  \param [in]      IRQn  Interrupt number.
  \param [in]  priority  Priority to set.
  \note    The priority cannot be set for every processor exception.
 */
__STATIC_INLINE void __NVIC_SetPriority(IRQn_Type IRQn, uint32_t priority)
{
 800199c:	b480      	push	{r7}
 800199e:	b083      	sub	sp, #12
 80019a0:	af00      	add	r7, sp, #0
 80019a2:	4603      	mov	r3, r0
 80019a4:	6039      	str	r1, [r7, #0]
 80019a6:	80fb      	strh	r3, [r7, #6]
  if ((int32_t)(IRQn) >= 0)
 80019a8:	f9b7 3006 	ldrsh.w	r3, [r7, #6]
 80019ac:	2b00      	cmp	r3, #0
 80019ae:	db0a      	blt.n	80019c6 <__NVIC_SetPriority+0x2a>
  {
    NVIC->IP[((uint32_t)IRQn)]                = (uint8_t)((priority << (8U - __NVIC_PRIO_BITS)) & (uint32_t)0xFFUL);
 80019b0:	683b      	ldr	r3, [r7, #0]
 80019b2:	b2da      	uxtb	r2, r3
 80019b4:	490c      	ldr	r1, [pc, #48]	; (80019e8 <__NVIC_SetPriority+0x4c>)
 80019b6:	f9b7 3006 	ldrsh.w	r3, [r7, #6]
 80019ba:	0112      	lsls	r2, r2, #4
 80019bc:	b2d2      	uxtb	r2, r2
 80019be:	440b      	add	r3, r1
 80019c0:	f883 2300 	strb.w	r2, [r3, #768]	; 0x300
  }
  else
  {
    SCB->SHPR[(((uint32_t)IRQn) & 0xFUL)-4UL] = (uint8_t)((priority << (8U - __NVIC_PRIO_BITS)) & (uint32_t)0xFFUL);
  }
}
 80019c4:	e00a      	b.n	80019dc <__NVIC_SetPriority+0x40>
    SCB->SHPR[(((uint32_t)IRQn) & 0xFUL)-4UL] = (uint8_t)((priority << (8U - __NVIC_PRIO_BITS)) & (uint32_t)0xFFUL);
 80019c6:	683b      	ldr	r3, [r7, #0]
 80019c8:	b2da      	uxtb	r2, r3
 80019ca:	4908      	ldr	r1, [pc, #32]	; (80019ec <__NVIC_SetPriority+0x50>)
 80019cc:	88fb      	ldrh	r3, [r7, #6]
 80019ce:	f003 030f 	and.w	r3, r3, #15
 80019d2:	3b04      	subs	r3, #4
 80019d4:	0112      	lsls	r2, r2, #4
 80019d6:	b2d2      	uxtb	r2, r2
 80019d8:	440b      	add	r3, r1
 80019da:	761a      	strb	r2, [r3, #24]
}
 80019dc:	bf00      	nop
 80019de:	370c      	adds	r7, #12
 80019e0:	46bd      	mov	sp, r7
 80019e2:	f85d 7b04 	ldr.w	r7, [sp], #4
 80019e6:	4770      	bx	lr
 80019e8:	e000e100 	.word	0xe000e100
 80019ec:	e000ed00 	.word	0xe000ed00

080019f0 <NVIC_EncodePriority>:
  \param [in]   PreemptPriority  Preemptive priority value (starting from 0).
  \param [in]       SubPriority  Subpriority value (starting from 0).
  \return                        Encoded priority. Value can be used in the function \ref NVIC_SetPriority().
 */
__STATIC_INLINE uint32_t NVIC_EncodePriority (uint32_t PriorityGroup, uint32_t PreemptPriority, uint32_t SubPriority)
{
 80019f0:	b480      	push	{r7}
 80019f2:	b089      	sub	sp, #36	; 0x24
 80019f4:	af00      	add	r7, sp, #0
 80019f6:	60f8      	str	r0, [r7, #12]
 80019f8:	60b9      	str	r1, [r7, #8]
 80019fa:	607a      	str	r2, [r7, #4]
  uint32_t PriorityGroupTmp = (PriorityGroup & (uint32_t)0x07UL);   /* only values 0..7 are used          */
 80019fc:	68fb      	ldr	r3, [r7, #12]
 80019fe:	f003 0307 	and.w	r3, r3, #7
 8001a02:	61fb      	str	r3, [r7, #28]
  uint32_t PreemptPriorityBits;
  uint32_t SubPriorityBits;

  PreemptPriorityBits = ((7UL - PriorityGroupTmp) > (uint32_t)(__NVIC_PRIO_BITS)) ? (uint32_t)(__NVIC_PRIO_BITS) : (uint32_t)(7UL - PriorityGroupTmp);
 8001a04:	69fb      	ldr	r3, [r7, #28]
 8001a06:	f1c3 0307 	rsb	r3, r3, #7
 8001a0a:	2b04      	cmp	r3, #4
 8001a0c:	bf28      	it	cs
 8001a0e:	2304      	movcs	r3, #4
 8001a10:	61bb      	str	r3, [r7, #24]
  SubPriorityBits     = ((PriorityGroupTmp + (uint32_t)(__NVIC_PRIO_BITS)) < (uint32_t)7UL) ? (uint32_t)0UL : (uint32_t)((PriorityGroupTmp - 7UL) + (uint32_t)(__NVIC_PRIO_BITS));
 8001a12:	69fb      	ldr	r3, [r7, #28]
 8001a14:	3304      	adds	r3, #4
 8001a16:	2b06      	cmp	r3, #6
 8001a18:	d902      	bls.n	8001a20 <NVIC_EncodePriority+0x30>
 8001a1a:	69fb      	ldr	r3, [r7, #28]
 8001a1c:	3b03      	subs	r3, #3
 8001a1e:	e000      	b.n	8001a22 <NVIC_EncodePriority+0x32>
 8001a20:	2300      	movs	r3, #0
 8001a22:	617b      	str	r3, [r7, #20]

  return (
           ((PreemptPriority & (uint32_t)((1UL << (PreemptPriorityBits)) - 1UL)) << SubPriorityBits) |
 8001a24:	f04f 32ff 	mov.w	r2, #4294967295
 8001a28:	69bb      	ldr	r3, [r7, #24]
 8001a2a:	fa02 f303 	lsl.w	r3, r2, r3
 8001a2e:	43da      	mvns	r2, r3
 8001a30:	68bb      	ldr	r3, [r7, #8]
 8001a32:	401a      	ands	r2, r3
 8001a34:	697b      	ldr	r3, [r7, #20]
 8001a36:	409a      	lsls	r2, r3
           ((SubPriority     & (uint32_t)((1UL << (SubPriorityBits    )) - 1UL)))
 8001a38:	f04f 31ff 	mov.w	r1, #4294967295
 8001a3c:	697b      	ldr	r3, [r7, #20]
 8001a3e:	fa01 f303 	lsl.w	r3, r1, r3
 8001a42:	43d9      	mvns	r1, r3
 8001a44:	687b      	ldr	r3, [r7, #4]
 8001a46:	400b      	ands	r3, r1
           ((PreemptPriority & (uint32_t)((1UL << (PreemptPriorityBits)) - 1UL)) << SubPriorityBits) |
 8001a48:	4313      	orrs	r3, r2
         );
}
 8001a4a:	4618      	mov	r0, r3
 8001a4c:	3724      	adds	r7, #36	; 0x24
 8001a4e:	46bd      	mov	sp, r7
 8001a50:	f85d 7b04 	ldr.w	r7, [sp], #4
 8001a54:	4770      	bx	lr
	...

08001a58 <SysTick_Config>:
  \note    When the variable <b>__Vendor_SysTickConfig</b> is set to 1, then the
           function <b>SysTick_Config</b> is not included. In this case, the file <b><i>device</i>.h</b>
           must contain a vendor-specific implementation of this function.
 */
__STATIC_INLINE uint32_t SysTick_Config(uint32_t ticks)
{
 8001a58:	b580      	push	{r7, lr}
 8001a5a:	b082      	sub	sp, #8
 8001a5c:	af00      	add	r7, sp, #0
 8001a5e:	6078      	str	r0, [r7, #4]
  if ((ticks - 1UL) > SysTick_LOAD_RELOAD_Msk)
 8001a60:	687b      	ldr	r3, [r7, #4]
 8001a62:	3b01      	subs	r3, #1
 8001a64:	f1b3 7f80 	cmp.w	r3, #16777216	; 0x1000000
 8001a68:	d301      	bcc.n	8001a6e <SysTick_Config+0x16>
  {
    return (1UL);                                                   /* Reload value impossible */
 8001a6a:	2301      	movs	r3, #1
 8001a6c:	e00f      	b.n	8001a8e <SysTick_Config+0x36>
  }

  SysTick->LOAD  = (uint32_t)(ticks - 1UL);                         /* set reload register */
 8001a6e:	4a0a      	ldr	r2, [pc, #40]	; (8001a98 <SysTick_Config+0x40>)
 8001a70:	687b      	ldr	r3, [r7, #4]
 8001a72:	3b01      	subs	r3, #1
 8001a74:	6053      	str	r3, [r2, #4]
  NVIC_SetPriority (SysTick_IRQn, (1UL << __NVIC_PRIO_BITS) - 1UL); /* set Priority for Systick Interrupt */
 8001a76:	210f      	movs	r1, #15
 8001a78:	f04f 30ff 	mov.w	r0, #4294967295
 8001a7c:	f7ff ff8e 	bl	800199c <__NVIC_SetPriority>
  SysTick->VAL   = 0UL;                                             /* Load the SysTick Counter Value */
 8001a80:	4b05      	ldr	r3, [pc, #20]	; (8001a98 <SysTick_Config+0x40>)
 8001a82:	2200      	movs	r2, #0
 8001a84:	609a      	str	r2, [r3, #8]
  SysTick->CTRL  = SysTick_CTRL_CLKSOURCE_Msk |
 8001a86:	4b04      	ldr	r3, [pc, #16]	; (8001a98 <SysTick_Config+0x40>)
 8001a88:	2207      	movs	r2, #7
 8001a8a:	601a      	str	r2, [r3, #0]
                   SysTick_CTRL_TICKINT_Msk   |
                   SysTick_CTRL_ENABLE_Msk;                         /* Enable SysTick IRQ and SysTick Timer */
  return (0UL);                                                     /* Function successful */
 8001a8c:	2300      	movs	r3, #0
}
 8001a8e:	4618      	mov	r0, r3
 8001a90:	3708      	adds	r7, #8
 8001a92:	46bd      	mov	sp, r7
 8001a94:	bd80      	pop	{r7, pc}
 8001a96:	bf00      	nop
 8001a98:	e000e010 	.word	0xe000e010

08001a9c <HAL_NVIC_SetPriorityGrouping>:
  * @note   When the NVIC_PriorityGroup_0 is selected, IRQ preemption is no more possible.
  *         The pending IRQ priority will be managed only by the subpriority.
  * @retval None
  */
void HAL_NVIC_SetPriorityGrouping(uint32_t PriorityGroup)
{
 8001a9c:	b580      	push	{r7, lr}
 8001a9e:	b082      	sub	sp, #8
 8001aa0:	af00      	add	r7, sp, #0
 8001aa2:	6078      	str	r0, [r7, #4]
  /* Check the parameters */
  assert_param(IS_NVIC_PRIORITY_GROUP(PriorityGroup));

  /* Set the PRIGROUP[10:8] bits according to the PriorityGroup parameter value */
  NVIC_SetPriorityGrouping(PriorityGroup);
 8001aa4:	6878      	ldr	r0, [r7, #4]
 8001aa6:	f7ff ff47 	bl	8001938 <__NVIC_SetPriorityGrouping>
}
 8001aaa:	bf00      	nop
 8001aac:	3708      	adds	r7, #8
 8001aae:	46bd      	mov	sp, r7
 8001ab0:	bd80      	pop	{r7, pc}

08001ab2 <HAL_NVIC_SetPriority>:
  *         This parameter can be a value between 0 and 15
  *         A lower priority value indicates a higher priority.
  * @retval None
  */
void HAL_NVIC_SetPriority(IRQn_Type IRQn, uint32_t PreemptPriority, uint32_t SubPriority)
{
 8001ab2:	b580      	push	{r7, lr}
 8001ab4:	b086      	sub	sp, #24
 8001ab6:	af00      	add	r7, sp, #0
 8001ab8:	4603      	mov	r3, r0
 8001aba:	60b9      	str	r1, [r7, #8]
 8001abc:	607a      	str	r2, [r7, #4]
 8001abe:	81fb      	strh	r3, [r7, #14]

  /* Check the parameters */
  assert_param(IS_NVIC_SUB_PRIORITY(SubPriority));
  assert_param(IS_NVIC_PREEMPTION_PRIORITY(PreemptPriority));

  prioritygroup = NVIC_GetPriorityGrouping();
 8001ac0:	f7ff ff5e 	bl	8001980 <__NVIC_GetPriorityGrouping>
 8001ac4:	6178      	str	r0, [r7, #20]

  NVIC_SetPriority(IRQn, NVIC_EncodePriority(prioritygroup, PreemptPriority, SubPriority));
 8001ac6:	687a      	ldr	r2, [r7, #4]
 8001ac8:	68b9      	ldr	r1, [r7, #8]
 8001aca:	6978      	ldr	r0, [r7, #20]
 8001acc:	f7ff ff90 	bl	80019f0 <NVIC_EncodePriority>
 8001ad0:	4602      	mov	r2, r0
 8001ad2:	f9b7 300e 	ldrsh.w	r3, [r7, #14]
 8001ad6:	4611      	mov	r1, r2
 8001ad8:	4618      	mov	r0, r3
 8001ada:	f7ff ff5f 	bl	800199c <__NVIC_SetPriority>
}
 8001ade:	bf00      	nop
 8001ae0:	3718      	adds	r7, #24
 8001ae2:	46bd      	mov	sp, r7
 8001ae4:	bd80      	pop	{r7, pc}

08001ae6 <HAL_SYSTICK_Config>:
  * @param  TicksNumb Specifies the ticks Number of ticks between two interrupts.
  * @retval status   - 0  Function succeeded.
  *                  - 1  Function failed.
  */
uint32_t HAL_SYSTICK_Config(uint32_t TicksNumb)
{
 8001ae6:	b580      	push	{r7, lr}
 8001ae8:	b082      	sub	sp, #8
 8001aea:	af00      	add	r7, sp, #0
 8001aec:	6078      	str	r0, [r7, #4]
   return SysTick_Config(TicksNumb);
 8001aee:	6878      	ldr	r0, [r7, #4]
 8001af0:	f7ff ffb2 	bl	8001a58 <SysTick_Config>
 8001af4:	4603      	mov	r3, r0
}
 8001af6:	4618      	mov	r0, r3
 8001af8:	3708      	adds	r7, #8
 8001afa:	46bd      	mov	sp, r7
 8001afc:	bd80      	pop	{r7, pc}
	...

08001b00 <HAL_MPU_Disable>:
/**
  * @brief  Disables the MPU
  * @retval None
  */
void HAL_MPU_Disable(void)
{
 8001b00:	b480      	push	{r7}
 8001b02:	af00      	add	r7, sp, #0
  \details Ensures the apparent order of the explicit memory operations before
           and after the instruction, without ensuring their completion.
 */
__STATIC_FORCEINLINE void __DMB(void)
{
  __ASM volatile ("dmb 0xF":::"memory");
 8001b04:	f3bf 8f5f 	dmb	sy
}
 8001b08:	bf00      	nop
  /* Make sure outstanding transfers are done */
  __DMB();

  /* Disable fault exceptions */
  SCB->SHCSR &= ~SCB_SHCSR_MEMFAULTENA_Msk;
 8001b0a:	4b07      	ldr	r3, [pc, #28]	; (8001b28 <HAL_MPU_Disable+0x28>)
 8001b0c:	6a5b      	ldr	r3, [r3, #36]	; 0x24
 8001b0e:	4a06      	ldr	r2, [pc, #24]	; (8001b28 <HAL_MPU_Disable+0x28>)
 8001b10:	f423 3380 	bic.w	r3, r3, #65536	; 0x10000
 8001b14:	6253      	str	r3, [r2, #36]	; 0x24

  /* Disable the MPU and clear the control register*/
  MPU->CTRL = 0;
 8001b16:	4b05      	ldr	r3, [pc, #20]	; (8001b2c <HAL_MPU_Disable+0x2c>)
 8001b18:	2200      	movs	r2, #0
 8001b1a:	605a      	str	r2, [r3, #4]
}
 8001b1c:	bf00      	nop
 8001b1e:	46bd      	mov	sp, r7
 8001b20:	f85d 7b04 	ldr.w	r7, [sp], #4
 8001b24:	4770      	bx	lr
 8001b26:	bf00      	nop
 8001b28:	e000ed00 	.word	0xe000ed00
 8001b2c:	e000ed90 	.word	0xe000ed90

08001b30 <HAL_MPU_Enable>:
  *            @arg MPU_PRIVILEGED_DEFAULT
  *            @arg MPU_HFNMI_PRIVDEF
  * @retval None
  */
void HAL_MPU_Enable(uint32_t MPU_Control)
{
 8001b30:	b480      	push	{r7}
 8001b32:	b083      	sub	sp, #12
 8001b34:	af00      	add	r7, sp, #0
 8001b36:	6078      	str	r0, [r7, #4]
  /* Enable the MPU */
  MPU->CTRL = MPU_Control | MPU_CTRL_ENABLE_Msk;
 8001b38:	4a0b      	ldr	r2, [pc, #44]	; (8001b68 <HAL_MPU_Enable+0x38>)
 8001b3a:	687b      	ldr	r3, [r7, #4]
 8001b3c:	f043 0301 	orr.w	r3, r3, #1
 8001b40:	6053      	str	r3, [r2, #4]

  /* Enable fault exceptions */
  SCB->SHCSR |= SCB_SHCSR_MEMFAULTENA_Msk;
 8001b42:	4b0a      	ldr	r3, [pc, #40]	; (8001b6c <HAL_MPU_Enable+0x3c>)
 8001b44:	6a5b      	ldr	r3, [r3, #36]	; 0x24
 8001b46:	4a09      	ldr	r2, [pc, #36]	; (8001b6c <HAL_MPU_Enable+0x3c>)
 8001b48:	f443 3380 	orr.w	r3, r3, #65536	; 0x10000
 8001b4c:	6253      	str	r3, [r2, #36]	; 0x24
  __ASM volatile ("dsb 0xF":::"memory");
 8001b4e:	f3bf 8f4f 	dsb	sy
}
 8001b52:	bf00      	nop
  __ASM volatile ("isb 0xF":::"memory");
 8001b54:	f3bf 8f6f 	isb	sy
}
 8001b58:	bf00      	nop

  /* Ensure MPU setting take effects */
  __DSB();
  __ISB();
}
 8001b5a:	bf00      	nop
 8001b5c:	370c      	adds	r7, #12
 8001b5e:	46bd      	mov	sp, r7
 8001b60:	f85d 7b04 	ldr.w	r7, [sp], #4
 8001b64:	4770      	bx	lr
 8001b66:	bf00      	nop
 8001b68:	e000ed90 	.word	0xe000ed90
 8001b6c:	e000ed00 	.word	0xe000ed00

08001b70 <HAL_MPU_ConfigRegion>:
  * @param  MPU_Init Pointer to a MPU_Region_InitTypeDef structure that contains
  *                  the initialization and configuration information.
  * @retval None
  */
void HAL_MPU_ConfigRegion(MPU_Region_InitTypeDef *MPU_Init)
{
 8001b70:	b480      	push	{r7}
 8001b72:	b083      	sub	sp, #12
 8001b74:	af00      	add	r7, sp, #0
 8001b76:	6078      	str	r0, [r7, #4]
  /* Check the parameters */
  assert_param(IS_MPU_REGION_NUMBER(MPU_Init->Number));
  assert_param(IS_MPU_REGION_ENABLE(MPU_Init->Enable));

  /* Set the Region number */
  MPU->RNR = MPU_Init->Number;
 8001b78:	687b      	ldr	r3, [r7, #4]
 8001b7a:	785a      	ldrb	r2, [r3, #1]
 8001b7c:	4b1d      	ldr	r3, [pc, #116]	; (8001bf4 <HAL_MPU_ConfigRegion+0x84>)
 8001b7e:	609a      	str	r2, [r3, #8]

  if ((MPU_Init->Enable) != 0UL)
 8001b80:	687b      	ldr	r3, [r7, #4]
 8001b82:	781b      	ldrb	r3, [r3, #0]
 8001b84:	2b00      	cmp	r3, #0
 8001b86:	d029      	beq.n	8001bdc <HAL_MPU_ConfigRegion+0x6c>
    assert_param(IS_MPU_ACCESS_CACHEABLE(MPU_Init->IsCacheable));
    assert_param(IS_MPU_ACCESS_BUFFERABLE(MPU_Init->IsBufferable));
    assert_param(IS_MPU_SUB_REGION_DISABLE(MPU_Init->SubRegionDisable));
    assert_param(IS_MPU_REGION_SIZE(MPU_Init->Size));

    MPU->RBAR = MPU_Init->BaseAddress;
 8001b88:	4a1a      	ldr	r2, [pc, #104]	; (8001bf4 <HAL_MPU_ConfigRegion+0x84>)
 8001b8a:	687b      	ldr	r3, [r7, #4]
 8001b8c:	685b      	ldr	r3, [r3, #4]
 8001b8e:	60d3      	str	r3, [r2, #12]
    MPU->RASR = ((uint32_t)MPU_Init->DisableExec             << MPU_RASR_XN_Pos)   |
 8001b90:	687b      	ldr	r3, [r7, #4]
 8001b92:	7b1b      	ldrb	r3, [r3, #12]
 8001b94:	071a      	lsls	r2, r3, #28
                ((uint32_t)MPU_Init->AccessPermission        << MPU_RASR_AP_Pos)   |
 8001b96:	687b      	ldr	r3, [r7, #4]
 8001b98:	7adb      	ldrb	r3, [r3, #11]
 8001b9a:	061b      	lsls	r3, r3, #24
    MPU->RASR = ((uint32_t)MPU_Init->DisableExec             << MPU_RASR_XN_Pos)   |
 8001b9c:	431a      	orrs	r2, r3
                ((uint32_t)MPU_Init->TypeExtField            << MPU_RASR_TEX_Pos)  |
 8001b9e:	687b      	ldr	r3, [r7, #4]
 8001ba0:	7a9b      	ldrb	r3, [r3, #10]
 8001ba2:	04db      	lsls	r3, r3, #19
                ((uint32_t)MPU_Init->AccessPermission        << MPU_RASR_AP_Pos)   |
 8001ba4:	431a      	orrs	r2, r3
                ((uint32_t)MPU_Init->IsShareable             << MPU_RASR_S_Pos)    |
 8001ba6:	687b      	ldr	r3, [r7, #4]
 8001ba8:	7b5b      	ldrb	r3, [r3, #13]
 8001baa:	049b      	lsls	r3, r3, #18
                ((uint32_t)MPU_Init->TypeExtField            << MPU_RASR_TEX_Pos)  |
 8001bac:	431a      	orrs	r2, r3
                ((uint32_t)MPU_Init->IsCacheable             << MPU_RASR_C_Pos)    |
 8001bae:	687b      	ldr	r3, [r7, #4]
 8001bb0:	7b9b      	ldrb	r3, [r3, #14]
 8001bb2:	045b      	lsls	r3, r3, #17
                ((uint32_t)MPU_Init->IsShareable             << MPU_RASR_S_Pos)    |
 8001bb4:	431a      	orrs	r2, r3
                ((uint32_t)MPU_Init->IsBufferable            << MPU_RASR_B_Pos)    |
 8001bb6:	687b      	ldr	r3, [r7, #4]
 8001bb8:	7bdb      	ldrb	r3, [r3, #15]
 8001bba:	041b      	lsls	r3, r3, #16
                ((uint32_t)MPU_Init->IsCacheable             << MPU_RASR_C_Pos)    |
 8001bbc:	431a      	orrs	r2, r3
                ((uint32_t)MPU_Init->SubRegionDisable        << MPU_RASR_SRD_Pos)  |
 8001bbe:	687b      	ldr	r3, [r7, #4]
 8001bc0:	7a5b      	ldrb	r3, [r3, #9]
 8001bc2:	021b      	lsls	r3, r3, #8
                ((uint32_t)MPU_Init->IsBufferable            << MPU_RASR_B_Pos)    |
 8001bc4:	431a      	orrs	r2, r3
                ((uint32_t)MPU_Init->Size                    << MPU_RASR_SIZE_Pos) |
 8001bc6:	687b      	ldr	r3, [r7, #4]
 8001bc8:	7a1b      	ldrb	r3, [r3, #8]
 8001bca:	005b      	lsls	r3, r3, #1
                ((uint32_t)MPU_Init->SubRegionDisable        << MPU_RASR_SRD_Pos)  |
 8001bcc:	4313      	orrs	r3, r2
                ((uint32_t)MPU_Init->Enable                  << MPU_RASR_ENABLE_Pos);
 8001bce:	687a      	ldr	r2, [r7, #4]
 8001bd0:	7812      	ldrb	r2, [r2, #0]
 8001bd2:	4611      	mov	r1, r2
    MPU->RASR = ((uint32_t)MPU_Init->DisableExec             << MPU_RASR_XN_Pos)   |
 8001bd4:	4a07      	ldr	r2, [pc, #28]	; (8001bf4 <HAL_MPU_ConfigRegion+0x84>)
                ((uint32_t)MPU_Init->Size                    << MPU_RASR_SIZE_Pos) |
 8001bd6:	430b      	orrs	r3, r1
    MPU->RASR = ((uint32_t)MPU_Init->DisableExec             << MPU_RASR_XN_Pos)   |
 8001bd8:	6113      	str	r3, [r2, #16]
  else
  {
    MPU->RBAR = 0x00;
    MPU->RASR = 0x00;
  }
}
 8001bda:	e005      	b.n	8001be8 <HAL_MPU_ConfigRegion+0x78>
    MPU->RBAR = 0x00;
 8001bdc:	4b05      	ldr	r3, [pc, #20]	; (8001bf4 <HAL_MPU_ConfigRegion+0x84>)
 8001bde:	2200      	movs	r2, #0
 8001be0:	60da      	str	r2, [r3, #12]
    MPU->RASR = 0x00;
 8001be2:	4b04      	ldr	r3, [pc, #16]	; (8001bf4 <HAL_MPU_ConfigRegion+0x84>)
 8001be4:	2200      	movs	r2, #0
 8001be6:	611a      	str	r2, [r3, #16]
}
 8001be8:	bf00      	nop
 8001bea:	370c      	adds	r7, #12
 8001bec:	46bd      	mov	sp, r7
 8001bee:	f85d 7b04 	ldr.w	r7, [sp], #4
 8001bf2:	4770      	bx	lr
 8001bf4:	e000ed90 	.word	0xe000ed90

08001bf8 <HAL_GPIO_Init>:
  * @param  GPIO_Init: pointer to a GPIO_InitTypeDef structure that contains
  *         the configuration information for the specified GPIO peripheral.
  * @retval None
  */
void HAL_GPIO_Init(GPIO_TypeDef  *GPIOx, GPIO_InitTypeDef *GPIO_Init)
{
 8001bf8:	b480      	push	{r7}
 8001bfa:	b089      	sub	sp, #36	; 0x24
 8001bfc:	af00      	add	r7, sp, #0
 8001bfe:	6078      	str	r0, [r7, #4]
 8001c00:	6039      	str	r1, [r7, #0]
  uint32_t position = 0x00U;
 8001c02:	2300      	movs	r3, #0
 8001c04:	61fb      	str	r3, [r7, #28]
  EXTI_Core_TypeDef *EXTI_CurrentCPU;

#if defined(DUAL_CORE) && defined(CORE_CM4)
  EXTI_CurrentCPU = EXTI_D2; /* EXTI for CM4 CPU */
#else
  EXTI_CurrentCPU = EXTI_D1; /* EXTI for CM7 CPU */
 8001c06:	4b89      	ldr	r3, [pc, #548]	; (8001e2c <HAL_GPIO_Init+0x234>)
 8001c08:	617b      	str	r3, [r7, #20]
  assert_param(IS_GPIO_ALL_INSTANCE(GPIOx));
  assert_param(IS_GPIO_PIN(GPIO_Init->Pin));
  assert_param(IS_GPIO_MODE(GPIO_Init->Mode));

  /* Configure the port pins */
  while (((GPIO_Init->Pin) >> position) != 0x00U)
 8001c0a:	e194      	b.n	8001f36 <HAL_GPIO_Init+0x33e>
  {
    /* Get current io position */
    iocurrent = (GPIO_Init->Pin) & (1UL << position);
 8001c0c:	683b      	ldr	r3, [r7, #0]
 8001c0e:	681a      	ldr	r2, [r3, #0]
 8001c10:	2101      	movs	r1, #1
 8001c12:	69fb      	ldr	r3, [r7, #28]
 8001c14:	fa01 f303 	lsl.w	r3, r1, r3
 8001c18:	4013      	ands	r3, r2
 8001c1a:	613b      	str	r3, [r7, #16]

    if (iocurrent != 0x00U)
 8001c1c:	693b      	ldr	r3, [r7, #16]
 8001c1e:	2b00      	cmp	r3, #0
 8001c20:	f000 8186 	beq.w	8001f30 <HAL_GPIO_Init+0x338>
    {
      /*--------------------- GPIO Mode Configuration ------------------------*/
      /* In case of Output or Alternate function mode selection */
      if (((GPIO_Init->Mode & GPIO_MODE) == MODE_OUTPUT) || ((GPIO_Init->Mode & GPIO_MODE) == MODE_AF))
 8001c24:	683b      	ldr	r3, [r7, #0]
 8001c26:	685b      	ldr	r3, [r3, #4]
 8001c28:	f003 0303 	and.w	r3, r3, #3
 8001c2c:	2b01      	cmp	r3, #1
 8001c2e:	d005      	beq.n	8001c3c <HAL_GPIO_Init+0x44>
 8001c30:	683b      	ldr	r3, [r7, #0]
 8001c32:	685b      	ldr	r3, [r3, #4]
 8001c34:	f003 0303 	and.w	r3, r3, #3
 8001c38:	2b02      	cmp	r3, #2
 8001c3a:	d130      	bne.n	8001c9e <HAL_GPIO_Init+0xa6>
      {
        /* Check the Speed parameter */
        assert_param(IS_GPIO_SPEED(GPIO_Init->Speed));

        /* Configure the IO Speed */
        temp = GPIOx->OSPEEDR;
 8001c3c:	687b      	ldr	r3, [r7, #4]
 8001c3e:	689b      	ldr	r3, [r3, #8]
 8001c40:	61bb      	str	r3, [r7, #24]
        temp &= ~(GPIO_OSPEEDR_OSPEED0 << (position * 2U));
 8001c42:	69fb      	ldr	r3, [r7, #28]
 8001c44:	005b      	lsls	r3, r3, #1
 8001c46:	2203      	movs	r2, #3
 8001c48:	fa02 f303 	lsl.w	r3, r2, r3
 8001c4c:	43db      	mvns	r3, r3
 8001c4e:	69ba      	ldr	r2, [r7, #24]
 8001c50:	4013      	ands	r3, r2
 8001c52:	61bb      	str	r3, [r7, #24]
        temp |= (GPIO_Init->Speed << (position * 2U));
 8001c54:	683b      	ldr	r3, [r7, #0]
 8001c56:	68da      	ldr	r2, [r3, #12]
 8001c58:	69fb      	ldr	r3, [r7, #28]
 8001c5a:	005b      	lsls	r3, r3, #1
 8001c5c:	fa02 f303 	lsl.w	r3, r2, r3
 8001c60:	69ba      	ldr	r2, [r7, #24]
 8001c62:	4313      	orrs	r3, r2
 8001c64:	61bb      	str	r3, [r7, #24]
        GPIOx->OSPEEDR = temp;
 8001c66:	687b      	ldr	r3, [r7, #4]
 8001c68:	69ba      	ldr	r2, [r7, #24]
 8001c6a:	609a      	str	r2, [r3, #8]

        /* Configure the IO Output Type */
        temp = GPIOx->OTYPER;
 8001c6c:	687b      	ldr	r3, [r7, #4]
 8001c6e:	685b      	ldr	r3, [r3, #4]
 8001c70:	61bb      	str	r3, [r7, #24]
        temp &= ~(GPIO_OTYPER_OT0 << position) ;
 8001c72:	2201      	movs	r2, #1
 8001c74:	69fb      	ldr	r3, [r7, #28]
 8001c76:	fa02 f303 	lsl.w	r3, r2, r3
 8001c7a:	43db      	mvns	r3, r3
 8001c7c:	69ba      	ldr	r2, [r7, #24]
 8001c7e:	4013      	ands	r3, r2
 8001c80:	61bb      	str	r3, [r7, #24]
        temp |= (((GPIO_Init->Mode & OUTPUT_TYPE) >> OUTPUT_TYPE_Pos) << position);
 8001c82:	683b      	ldr	r3, [r7, #0]
 8001c84:	685b      	ldr	r3, [r3, #4]
 8001c86:	091b      	lsrs	r3, r3, #4
 8001c88:	f003 0201 	and.w	r2, r3, #1
 8001c8c:	69fb      	ldr	r3, [r7, #28]
 8001c8e:	fa02 f303 	lsl.w	r3, r2, r3
 8001c92:	69ba      	ldr	r2, [r7, #24]
 8001c94:	4313      	orrs	r3, r2
 8001c96:	61bb      	str	r3, [r7, #24]
        GPIOx->OTYPER = temp;
 8001c98:	687b      	ldr	r3, [r7, #4]
 8001c9a:	69ba      	ldr	r2, [r7, #24]
 8001c9c:	605a      	str	r2, [r3, #4]
      }

      if ((GPIO_Init->Mode & GPIO_MODE) != MODE_ANALOG)
 8001c9e:	683b      	ldr	r3, [r7, #0]
 8001ca0:	685b      	ldr	r3, [r3, #4]
 8001ca2:	f003 0303 	and.w	r3, r3, #3
 8001ca6:	2b03      	cmp	r3, #3
 8001ca8:	d017      	beq.n	8001cda <HAL_GPIO_Init+0xe2>
      {
       /* Check the Pull parameter */
       assert_param(IS_GPIO_PULL(GPIO_Init->Pull));

      /* Activate the Pull-up or Pull down resistor for the current IO */
      temp = GPIOx->PUPDR;
 8001caa:	687b      	ldr	r3, [r7, #4]
 8001cac:	68db      	ldr	r3, [r3, #12]
 8001cae:	61bb      	str	r3, [r7, #24]
      temp &= ~(GPIO_PUPDR_PUPD0 << (position * 2U));
 8001cb0:	69fb      	ldr	r3, [r7, #28]
 8001cb2:	005b      	lsls	r3, r3, #1
 8001cb4:	2203      	movs	r2, #3
 8001cb6:	fa02 f303 	lsl.w	r3, r2, r3
 8001cba:	43db      	mvns	r3, r3
 8001cbc:	69ba      	ldr	r2, [r7, #24]
 8001cbe:	4013      	ands	r3, r2
 8001cc0:	61bb      	str	r3, [r7, #24]
      temp |= ((GPIO_Init->Pull) << (position * 2U));
 8001cc2:	683b      	ldr	r3, [r7, #0]
 8001cc4:	689a      	ldr	r2, [r3, #8]
 8001cc6:	69fb      	ldr	r3, [r7, #28]
 8001cc8:	005b      	lsls	r3, r3, #1
 8001cca:	fa02 f303 	lsl.w	r3, r2, r3
 8001cce:	69ba      	ldr	r2, [r7, #24]
 8001cd0:	4313      	orrs	r3, r2
 8001cd2:	61bb      	str	r3, [r7, #24]
      GPIOx->PUPDR = temp;
 8001cd4:	687b      	ldr	r3, [r7, #4]
 8001cd6:	69ba      	ldr	r2, [r7, #24]
 8001cd8:	60da      	str	r2, [r3, #12]
      }

      /* In case of Alternate function mode selection */
      if ((GPIO_Init->Mode & GPIO_MODE) == MODE_AF)
 8001cda:	683b      	ldr	r3, [r7, #0]
 8001cdc:	685b      	ldr	r3, [r3, #4]
 8001cde:	f003 0303 	and.w	r3, r3, #3
 8001ce2:	2b02      	cmp	r3, #2
 8001ce4:	d123      	bne.n	8001d2e <HAL_GPIO_Init+0x136>
        /* Check the Alternate function parameters */
        assert_param(IS_GPIO_AF_INSTANCE(GPIOx));
        assert_param(IS_GPIO_AF(GPIO_Init->Alternate));

        /* Configure Alternate function mapped with the current IO */
        temp = GPIOx->AFR[position >> 3U];
 8001ce6:	69fb      	ldr	r3, [r7, #28]
 8001ce8:	08da      	lsrs	r2, r3, #3
 8001cea:	687b      	ldr	r3, [r7, #4]
 8001cec:	3208      	adds	r2, #8
 8001cee:	f853 3022 	ldr.w	r3, [r3, r2, lsl #2]
 8001cf2:	61bb      	str	r3, [r7, #24]
        temp &= ~(0xFU << ((position & 0x07U) * 4U));
 8001cf4:	69fb      	ldr	r3, [r7, #28]
 8001cf6:	f003 0307 	and.w	r3, r3, #7
 8001cfa:	009b      	lsls	r3, r3, #2
 8001cfc:	220f      	movs	r2, #15
 8001cfe:	fa02 f303 	lsl.w	r3, r2, r3
 8001d02:	43db      	mvns	r3, r3
 8001d04:	69ba      	ldr	r2, [r7, #24]
 8001d06:	4013      	ands	r3, r2
 8001d08:	61bb      	str	r3, [r7, #24]
        temp |= ((GPIO_Init->Alternate) << ((position & 0x07U) * 4U));
 8001d0a:	683b      	ldr	r3, [r7, #0]
 8001d0c:	691a      	ldr	r2, [r3, #16]
 8001d0e:	69fb      	ldr	r3, [r7, #28]
 8001d10:	f003 0307 	and.w	r3, r3, #7
 8001d14:	009b      	lsls	r3, r3, #2
 8001d16:	fa02 f303 	lsl.w	r3, r2, r3
 8001d1a:	69ba      	ldr	r2, [r7, #24]
 8001d1c:	4313      	orrs	r3, r2
 8001d1e:	61bb      	str	r3, [r7, #24]
        GPIOx->AFR[position >> 3U] = temp;
 8001d20:	69fb      	ldr	r3, [r7, #28]
 8001d22:	08da      	lsrs	r2, r3, #3
 8001d24:	687b      	ldr	r3, [r7, #4]
 8001d26:	3208      	adds	r2, #8
 8001d28:	69b9      	ldr	r1, [r7, #24]
 8001d2a:	f843 1022 	str.w	r1, [r3, r2, lsl #2]
      }

      /* Configure IO Direction mode (Input, Output, Alternate or Analog) */
      temp = GPIOx->MODER;
 8001d2e:	687b      	ldr	r3, [r7, #4]
 8001d30:	681b      	ldr	r3, [r3, #0]
 8001d32:	61bb      	str	r3, [r7, #24]
      temp &= ~(GPIO_MODER_MODE0 << (position * 2U));
 8001d34:	69fb      	ldr	r3, [r7, #28]
 8001d36:	005b      	lsls	r3, r3, #1
 8001d38:	2203      	movs	r2, #3
 8001d3a:	fa02 f303 	lsl.w	r3, r2, r3
 8001d3e:	43db      	mvns	r3, r3
 8001d40:	69ba      	ldr	r2, [r7, #24]
 8001d42:	4013      	ands	r3, r2
 8001d44:	61bb      	str	r3, [r7, #24]
      temp |= ((GPIO_Init->Mode & GPIO_MODE) << (position * 2U));
 8001d46:	683b      	ldr	r3, [r7, #0]
 8001d48:	685b      	ldr	r3, [r3, #4]
 8001d4a:	f003 0203 	and.w	r2, r3, #3
 8001d4e:	69fb      	ldr	r3, [r7, #28]
 8001d50:	005b      	lsls	r3, r3, #1
 8001d52:	fa02 f303 	lsl.w	r3, r2, r3
 8001d56:	69ba      	ldr	r2, [r7, #24]
 8001d58:	4313      	orrs	r3, r2
 8001d5a:	61bb      	str	r3, [r7, #24]
      GPIOx->MODER = temp;
 8001d5c:	687b      	ldr	r3, [r7, #4]
 8001d5e:	69ba      	ldr	r2, [r7, #24]
 8001d60:	601a      	str	r2, [r3, #0]

      /*--------------------- EXTI Mode Configuration ------------------------*/
      /* Configure the External Interrupt or event for the current IO */
      if ((GPIO_Init->Mode & EXTI_MODE) != 0x00U)
 8001d62:	683b      	ldr	r3, [r7, #0]
 8001d64:	685b      	ldr	r3, [r3, #4]
 8001d66:	f403 3340 	and.w	r3, r3, #196608	; 0x30000
 8001d6a:	2b00      	cmp	r3, #0
 8001d6c:	f000 80e0 	beq.w	8001f30 <HAL_GPIO_Init+0x338>
      {
        /* Enable SYSCFG Clock */
        __HAL_RCC_SYSCFG_CLK_ENABLE();
 8001d70:	4b2f      	ldr	r3, [pc, #188]	; (8001e30 <HAL_GPIO_Init+0x238>)
 8001d72:	f8d3 3154 	ldr.w	r3, [r3, #340]	; 0x154
 8001d76:	4a2e      	ldr	r2, [pc, #184]	; (8001e30 <HAL_GPIO_Init+0x238>)
 8001d78:	f043 0302 	orr.w	r3, r3, #2
 8001d7c:	f8c2 3154 	str.w	r3, [r2, #340]	; 0x154
 8001d80:	4b2b      	ldr	r3, [pc, #172]	; (8001e30 <HAL_GPIO_Init+0x238>)
 8001d82:	f8d3 3154 	ldr.w	r3, [r3, #340]	; 0x154
 8001d86:	f003 0302 	and.w	r3, r3, #2
 8001d8a:	60fb      	str	r3, [r7, #12]
 8001d8c:	68fb      	ldr	r3, [r7, #12]

        temp = SYSCFG->EXTICR[position >> 2U];
 8001d8e:	4a29      	ldr	r2, [pc, #164]	; (8001e34 <HAL_GPIO_Init+0x23c>)
 8001d90:	69fb      	ldr	r3, [r7, #28]
 8001d92:	089b      	lsrs	r3, r3, #2
 8001d94:	3302      	adds	r3, #2
 8001d96:	f852 3023 	ldr.w	r3, [r2, r3, lsl #2]
 8001d9a:	61bb      	str	r3, [r7, #24]
        temp &= ~(0x0FUL << (4U * (position & 0x03U)));
 8001d9c:	69fb      	ldr	r3, [r7, #28]
 8001d9e:	f003 0303 	and.w	r3, r3, #3
 8001da2:	009b      	lsls	r3, r3, #2
 8001da4:	220f      	movs	r2, #15
 8001da6:	fa02 f303 	lsl.w	r3, r2, r3
 8001daa:	43db      	mvns	r3, r3
 8001dac:	69ba      	ldr	r2, [r7, #24]
 8001dae:	4013      	ands	r3, r2
 8001db0:	61bb      	str	r3, [r7, #24]
        temp |= (GPIO_GET_INDEX(GPIOx) << (4U * (position & 0x03U)));
 8001db2:	687b      	ldr	r3, [r7, #4]
 8001db4:	4a20      	ldr	r2, [pc, #128]	; (8001e38 <HAL_GPIO_Init+0x240>)
 8001db6:	4293      	cmp	r3, r2
 8001db8:	d052      	beq.n	8001e60 <HAL_GPIO_Init+0x268>
 8001dba:	687b      	ldr	r3, [r7, #4]
 8001dbc:	4a1f      	ldr	r2, [pc, #124]	; (8001e3c <HAL_GPIO_Init+0x244>)
 8001dbe:	4293      	cmp	r3, r2
 8001dc0:	d031      	beq.n	8001e26 <HAL_GPIO_Init+0x22e>
 8001dc2:	687b      	ldr	r3, [r7, #4]
 8001dc4:	4a1e      	ldr	r2, [pc, #120]	; (8001e40 <HAL_GPIO_Init+0x248>)
 8001dc6:	4293      	cmp	r3, r2
 8001dc8:	d02b      	beq.n	8001e22 <HAL_GPIO_Init+0x22a>
 8001dca:	687b      	ldr	r3, [r7, #4]
 8001dcc:	4a1d      	ldr	r2, [pc, #116]	; (8001e44 <HAL_GPIO_Init+0x24c>)
 8001dce:	4293      	cmp	r3, r2
 8001dd0:	d025      	beq.n	8001e1e <HAL_GPIO_Init+0x226>
 8001dd2:	687b      	ldr	r3, [r7, #4]
 8001dd4:	4a1c      	ldr	r2, [pc, #112]	; (8001e48 <HAL_GPIO_Init+0x250>)
 8001dd6:	4293      	cmp	r3, r2
 8001dd8:	d01f      	beq.n	8001e1a <HAL_GPIO_Init+0x222>
 8001dda:	687b      	ldr	r3, [r7, #4]
 8001ddc:	4a1b      	ldr	r2, [pc, #108]	; (8001e4c <HAL_GPIO_Init+0x254>)
 8001dde:	4293      	cmp	r3, r2
 8001de0:	d019      	beq.n	8001e16 <HAL_GPIO_Init+0x21e>
 8001de2:	687b      	ldr	r3, [r7, #4]
 8001de4:	4a1a      	ldr	r2, [pc, #104]	; (8001e50 <HAL_GPIO_Init+0x258>)
 8001de6:	4293      	cmp	r3, r2
 8001de8:	d013      	beq.n	8001e12 <HAL_GPIO_Init+0x21a>
 8001dea:	687b      	ldr	r3, [r7, #4]
 8001dec:	4a19      	ldr	r2, [pc, #100]	; (8001e54 <HAL_GPIO_Init+0x25c>)
 8001dee:	4293      	cmp	r3, r2
 8001df0:	d00d      	beq.n	8001e0e <HAL_GPIO_Init+0x216>
 8001df2:	687b      	ldr	r3, [r7, #4]
 8001df4:	4a18      	ldr	r2, [pc, #96]	; (8001e58 <HAL_GPIO_Init+0x260>)
 8001df6:	4293      	cmp	r3, r2
 8001df8:	d007      	beq.n	8001e0a <HAL_GPIO_Init+0x212>
 8001dfa:	687b      	ldr	r3, [r7, #4]
 8001dfc:	4a17      	ldr	r2, [pc, #92]	; (8001e5c <HAL_GPIO_Init+0x264>)
 8001dfe:	4293      	cmp	r3, r2
 8001e00:	d101      	bne.n	8001e06 <HAL_GPIO_Init+0x20e>
 8001e02:	2309      	movs	r3, #9
 8001e04:	e02d      	b.n	8001e62 <HAL_GPIO_Init+0x26a>
 8001e06:	230a      	movs	r3, #10
 8001e08:	e02b      	b.n	8001e62 <HAL_GPIO_Init+0x26a>
 8001e0a:	2308      	movs	r3, #8
 8001e0c:	e029      	b.n	8001e62 <HAL_GPIO_Init+0x26a>
 8001e0e:	2307      	movs	r3, #7
 8001e10:	e027      	b.n	8001e62 <HAL_GPIO_Init+0x26a>
 8001e12:	2306      	movs	r3, #6
 8001e14:	e025      	b.n	8001e62 <HAL_GPIO_Init+0x26a>
 8001e16:	2305      	movs	r3, #5
 8001e18:	e023      	b.n	8001e62 <HAL_GPIO_Init+0x26a>
 8001e1a:	2304      	movs	r3, #4
 8001e1c:	e021      	b.n	8001e62 <HAL_GPIO_Init+0x26a>
 8001e1e:	2303      	movs	r3, #3
 8001e20:	e01f      	b.n	8001e62 <HAL_GPIO_Init+0x26a>
 8001e22:	2302      	movs	r3, #2
 8001e24:	e01d      	b.n	8001e62 <HAL_GPIO_Init+0x26a>
 8001e26:	2301      	movs	r3, #1
 8001e28:	e01b      	b.n	8001e62 <HAL_GPIO_Init+0x26a>
 8001e2a:	bf00      	nop
 8001e2c:	58000080 	.word	0x58000080
 8001e30:	58024400 	.word	0x58024400
 8001e34:	58000400 	.word	0x58000400
 8001e38:	58020000 	.word	0x58020000
 8001e3c:	58020400 	.word	0x58020400
 8001e40:	58020800 	.word	0x58020800
 8001e44:	58020c00 	.word	0x58020c00
 8001e48:	58021000 	.word	0x58021000
 8001e4c:	58021400 	.word	0x58021400
 8001e50:	58021800 	.word	0x58021800
 8001e54:	58021c00 	.word	0x58021c00
 8001e58:	58022000 	.word	0x58022000
 8001e5c:	58022400 	.word	0x58022400
 8001e60:	2300      	movs	r3, #0
 8001e62:	69fa      	ldr	r2, [r7, #28]
 8001e64:	f002 0203 	and.w	r2, r2, #3
 8001e68:	0092      	lsls	r2, r2, #2
 8001e6a:	4093      	lsls	r3, r2
 8001e6c:	69ba      	ldr	r2, [r7, #24]
 8001e6e:	4313      	orrs	r3, r2
 8001e70:	61bb      	str	r3, [r7, #24]
        SYSCFG->EXTICR[position >> 2U] = temp;
 8001e72:	4938      	ldr	r1, [pc, #224]	; (8001f54 <HAL_GPIO_Init+0x35c>)
 8001e74:	69fb      	ldr	r3, [r7, #28]
 8001e76:	089b      	lsrs	r3, r3, #2
 8001e78:	3302      	adds	r3, #2
 8001e7a:	69ba      	ldr	r2, [r7, #24]
 8001e7c:	f841 2023 	str.w	r2, [r1, r3, lsl #2]

        /* Clear Rising Falling edge configuration */
        temp = EXTI->RTSR1;
 8001e80:	f04f 43b0 	mov.w	r3, #1476395008	; 0x58000000
 8001e84:	681b      	ldr	r3, [r3, #0]
 8001e86:	61bb      	str	r3, [r7, #24]
        temp &= ~(iocurrent);
 8001e88:	693b      	ldr	r3, [r7, #16]
 8001e8a:	43db      	mvns	r3, r3
 8001e8c:	69ba      	ldr	r2, [r7, #24]
 8001e8e:	4013      	ands	r3, r2
 8001e90:	61bb      	str	r3, [r7, #24]
        if ((GPIO_Init->Mode & TRIGGER_RISING) != 0x00U)
 8001e92:	683b      	ldr	r3, [r7, #0]
 8001e94:	685b      	ldr	r3, [r3, #4]
 8001e96:	f403 1380 	and.w	r3, r3, #1048576	; 0x100000
 8001e9a:	2b00      	cmp	r3, #0
 8001e9c:	d003      	beq.n	8001ea6 <HAL_GPIO_Init+0x2ae>
        {
          temp |= iocurrent;
 8001e9e:	69ba      	ldr	r2, [r7, #24]
 8001ea0:	693b      	ldr	r3, [r7, #16]
 8001ea2:	4313      	orrs	r3, r2
 8001ea4:	61bb      	str	r3, [r7, #24]
        }
        EXTI->RTSR1 = temp;
 8001ea6:	f04f 42b0 	mov.w	r2, #1476395008	; 0x58000000
 8001eaa:	69bb      	ldr	r3, [r7, #24]
 8001eac:	6013      	str	r3, [r2, #0]

        temp = EXTI->FTSR1;
 8001eae:	f04f 43b0 	mov.w	r3, #1476395008	; 0x58000000
 8001eb2:	685b      	ldr	r3, [r3, #4]
 8001eb4:	61bb      	str	r3, [r7, #24]
        temp &= ~(iocurrent);
 8001eb6:	693b      	ldr	r3, [r7, #16]
 8001eb8:	43db      	mvns	r3, r3
 8001eba:	69ba      	ldr	r2, [r7, #24]
 8001ebc:	4013      	ands	r3, r2
 8001ebe:	61bb      	str	r3, [r7, #24]
        if ((GPIO_Init->Mode & TRIGGER_FALLING) != 0x00U)
 8001ec0:	683b      	ldr	r3, [r7, #0]
 8001ec2:	685b      	ldr	r3, [r3, #4]
 8001ec4:	f403 1300 	and.w	r3, r3, #2097152	; 0x200000
 8001ec8:	2b00      	cmp	r3, #0
 8001eca:	d003      	beq.n	8001ed4 <HAL_GPIO_Init+0x2dc>
        {
          temp |= iocurrent;
 8001ecc:	69ba      	ldr	r2, [r7, #24]
 8001ece:	693b      	ldr	r3, [r7, #16]
 8001ed0:	4313      	orrs	r3, r2
 8001ed2:	61bb      	str	r3, [r7, #24]
        }
        EXTI->FTSR1 = temp;
 8001ed4:	f04f 42b0 	mov.w	r2, #1476395008	; 0x58000000
 8001ed8:	69bb      	ldr	r3, [r7, #24]
 8001eda:	6053      	str	r3, [r2, #4]

        temp = EXTI_CurrentCPU->EMR1;
 8001edc:	697b      	ldr	r3, [r7, #20]
 8001ede:	685b      	ldr	r3, [r3, #4]
 8001ee0:	61bb      	str	r3, [r7, #24]
        temp &= ~(iocurrent);
 8001ee2:	693b      	ldr	r3, [r7, #16]
 8001ee4:	43db      	mvns	r3, r3
 8001ee6:	69ba      	ldr	r2, [r7, #24]
 8001ee8:	4013      	ands	r3, r2
 8001eea:	61bb      	str	r3, [r7, #24]
        if ((GPIO_Init->Mode & EXTI_EVT) != 0x00U)
 8001eec:	683b      	ldr	r3, [r7, #0]
 8001eee:	685b      	ldr	r3, [r3, #4]
 8001ef0:	f403 3300 	and.w	r3, r3, #131072	; 0x20000
 8001ef4:	2b00      	cmp	r3, #0
 8001ef6:	d003      	beq.n	8001f00 <HAL_GPIO_Init+0x308>
        {
          temp |= iocurrent;
 8001ef8:	69ba      	ldr	r2, [r7, #24]
 8001efa:	693b      	ldr	r3, [r7, #16]
 8001efc:	4313      	orrs	r3, r2
 8001efe:	61bb      	str	r3, [r7, #24]
        }
        EXTI_CurrentCPU->EMR1 = temp;
 8001f00:	697b      	ldr	r3, [r7, #20]
 8001f02:	69ba      	ldr	r2, [r7, #24]
 8001f04:	605a      	str	r2, [r3, #4]

        /* Clear EXTI line configuration */
        temp = EXTI_CurrentCPU->IMR1;
 8001f06:	697b      	ldr	r3, [r7, #20]
 8001f08:	681b      	ldr	r3, [r3, #0]
 8001f0a:	61bb      	str	r3, [r7, #24]
        temp &= ~(iocurrent);
 8001f0c:	693b      	ldr	r3, [r7, #16]
 8001f0e:	43db      	mvns	r3, r3
 8001f10:	69ba      	ldr	r2, [r7, #24]
 8001f12:	4013      	ands	r3, r2
 8001f14:	61bb      	str	r3, [r7, #24]
        if ((GPIO_Init->Mode & EXTI_IT) != 0x00U)
 8001f16:	683b      	ldr	r3, [r7, #0]
 8001f18:	685b      	ldr	r3, [r3, #4]
 8001f1a:	f403 3380 	and.w	r3, r3, #65536	; 0x10000
 8001f1e:	2b00      	cmp	r3, #0
 8001f20:	d003      	beq.n	8001f2a <HAL_GPIO_Init+0x332>
        {
          temp |= iocurrent;
 8001f22:	69ba      	ldr	r2, [r7, #24]
 8001f24:	693b      	ldr	r3, [r7, #16]
 8001f26:	4313      	orrs	r3, r2
 8001f28:	61bb      	str	r3, [r7, #24]
        }
        EXTI_CurrentCPU->IMR1 = temp;
 8001f2a:	697b      	ldr	r3, [r7, #20]
 8001f2c:	69ba      	ldr	r2, [r7, #24]
 8001f2e:	601a      	str	r2, [r3, #0]
      }
    }

    position++;
 8001f30:	69fb      	ldr	r3, [r7, #28]
 8001f32:	3301      	adds	r3, #1
 8001f34:	61fb      	str	r3, [r7, #28]
  while (((GPIO_Init->Pin) >> position) != 0x00U)
 8001f36:	683b      	ldr	r3, [r7, #0]
 8001f38:	681a      	ldr	r2, [r3, #0]
 8001f3a:	69fb      	ldr	r3, [r7, #28]
 8001f3c:	fa22 f303 	lsr.w	r3, r2, r3
 8001f40:	2b00      	cmp	r3, #0
 8001f42:	f47f ae63 	bne.w	8001c0c <HAL_GPIO_Init+0x14>
  }
}
 8001f46:	bf00      	nop
 8001f48:	bf00      	nop
 8001f4a:	3724      	adds	r7, #36	; 0x24
 8001f4c:	46bd      	mov	sp, r7
 8001f4e:	f85d 7b04 	ldr.w	r7, [sp], #4
 8001f52:	4770      	bx	lr
 8001f54:	58000400 	.word	0x58000400

08001f58 <HAL_GPIO_DeInit>:
  * @param  GPIO_Pin: specifies the port bit to be written.
  *          This parameter can be one of GPIO_PIN_x where x can be (0..15).
  * @retval None
  */
void HAL_GPIO_DeInit(GPIO_TypeDef  *GPIOx, uint32_t GPIO_Pin)
{
 8001f58:	b480      	push	{r7}
 8001f5a:	b087      	sub	sp, #28
 8001f5c:	af00      	add	r7, sp, #0
 8001f5e:	6078      	str	r0, [r7, #4]
 8001f60:	6039      	str	r1, [r7, #0]
  uint32_t position = 0x00U;
 8001f62:	2300      	movs	r3, #0
 8001f64:	617b      	str	r3, [r7, #20]
  EXTI_Core_TypeDef *EXTI_CurrentCPU;

#if defined(DUAL_CORE) && defined(CORE_CM4)
  EXTI_CurrentCPU = EXTI_D2; /* EXTI for CM4 CPU */
#else
  EXTI_CurrentCPU = EXTI_D1; /* EXTI for CM7 CPU */
 8001f66:	4b75      	ldr	r3, [pc, #468]	; (800213c <HAL_GPIO_DeInit+0x1e4>)
 8001f68:	613b      	str	r3, [r7, #16]
  /* Check the parameters */
  assert_param(IS_GPIO_ALL_INSTANCE(GPIOx));
  assert_param(IS_GPIO_PIN(GPIO_Pin));

  /* Configure the port pins */
  while ((GPIO_Pin >> position) != 0x00U)
 8001f6a:	e0d9      	b.n	8002120 <HAL_GPIO_DeInit+0x1c8>
  {
    /* Get current io position */
    iocurrent = GPIO_Pin & (1UL << position) ;
 8001f6c:	2201      	movs	r2, #1
 8001f6e:	697b      	ldr	r3, [r7, #20]
 8001f70:	fa02 f303 	lsl.w	r3, r2, r3
 8001f74:	683a      	ldr	r2, [r7, #0]
 8001f76:	4013      	ands	r3, r2
 8001f78:	60fb      	str	r3, [r7, #12]

    if (iocurrent != 0x00U)
 8001f7a:	68fb      	ldr	r3, [r7, #12]
 8001f7c:	2b00      	cmp	r3, #0
 8001f7e:	f000 80cc 	beq.w	800211a <HAL_GPIO_DeInit+0x1c2>
    {
      /*------------------------- EXTI Mode Configuration --------------------*/
      /* Clear the External Interrupt or Event for the current IO */
      tmp = SYSCFG->EXTICR[position >> 2U];
 8001f82:	4a6f      	ldr	r2, [pc, #444]	; (8002140 <HAL_GPIO_DeInit+0x1e8>)
 8001f84:	697b      	ldr	r3, [r7, #20]
 8001f86:	089b      	lsrs	r3, r3, #2
 8001f88:	3302      	adds	r3, #2
 8001f8a:	f852 3023 	ldr.w	r3, [r2, r3, lsl #2]
 8001f8e:	60bb      	str	r3, [r7, #8]
      tmp &= (0x0FUL << (4U * (position & 0x03U)));
 8001f90:	697b      	ldr	r3, [r7, #20]
 8001f92:	f003 0303 	and.w	r3, r3, #3
 8001f96:	009b      	lsls	r3, r3, #2
 8001f98:	220f      	movs	r2, #15
 8001f9a:	fa02 f303 	lsl.w	r3, r2, r3
 8001f9e:	68ba      	ldr	r2, [r7, #8]
 8001fa0:	4013      	ands	r3, r2
 8001fa2:	60bb      	str	r3, [r7, #8]
      if (tmp == (GPIO_GET_INDEX(GPIOx) << (4U * (position & 0x03U))))
 8001fa4:	687b      	ldr	r3, [r7, #4]
 8001fa6:	4a67      	ldr	r2, [pc, #412]	; (8002144 <HAL_GPIO_DeInit+0x1ec>)
 8001fa8:	4293      	cmp	r3, r2
 8001faa:	d037      	beq.n	800201c <HAL_GPIO_DeInit+0xc4>
 8001fac:	687b      	ldr	r3, [r7, #4]
 8001fae:	4a66      	ldr	r2, [pc, #408]	; (8002148 <HAL_GPIO_DeInit+0x1f0>)
 8001fb0:	4293      	cmp	r3, r2
 8001fb2:	d031      	beq.n	8002018 <HAL_GPIO_DeInit+0xc0>
 8001fb4:	687b      	ldr	r3, [r7, #4]
 8001fb6:	4a65      	ldr	r2, [pc, #404]	; (800214c <HAL_GPIO_DeInit+0x1f4>)
 8001fb8:	4293      	cmp	r3, r2
 8001fba:	d02b      	beq.n	8002014 <HAL_GPIO_DeInit+0xbc>
 8001fbc:	687b      	ldr	r3, [r7, #4]
 8001fbe:	4a64      	ldr	r2, [pc, #400]	; (8002150 <HAL_GPIO_DeInit+0x1f8>)
 8001fc0:	4293      	cmp	r3, r2
 8001fc2:	d025      	beq.n	8002010 <HAL_GPIO_DeInit+0xb8>
 8001fc4:	687b      	ldr	r3, [r7, #4]
 8001fc6:	4a63      	ldr	r2, [pc, #396]	; (8002154 <HAL_GPIO_DeInit+0x1fc>)
 8001fc8:	4293      	cmp	r3, r2
 8001fca:	d01f      	beq.n	800200c <HAL_GPIO_DeInit+0xb4>
 8001fcc:	687b      	ldr	r3, [r7, #4]
 8001fce:	4a62      	ldr	r2, [pc, #392]	; (8002158 <HAL_GPIO_DeInit+0x200>)
 8001fd0:	4293      	cmp	r3, r2
 8001fd2:	d019      	beq.n	8002008 <HAL_GPIO_DeInit+0xb0>
 8001fd4:	687b      	ldr	r3, [r7, #4]
 8001fd6:	4a61      	ldr	r2, [pc, #388]	; (800215c <HAL_GPIO_DeInit+0x204>)
 8001fd8:	4293      	cmp	r3, r2
 8001fda:	d013      	beq.n	8002004 <HAL_GPIO_DeInit+0xac>
 8001fdc:	687b      	ldr	r3, [r7, #4]
 8001fde:	4a60      	ldr	r2, [pc, #384]	; (8002160 <HAL_GPIO_DeInit+0x208>)
 8001fe0:	4293      	cmp	r3, r2
 8001fe2:	d00d      	beq.n	8002000 <HAL_GPIO_DeInit+0xa8>
 8001fe4:	687b      	ldr	r3, [r7, #4]
 8001fe6:	4a5f      	ldr	r2, [pc, #380]	; (8002164 <HAL_GPIO_DeInit+0x20c>)
 8001fe8:	4293      	cmp	r3, r2
 8001fea:	d007      	beq.n	8001ffc <HAL_GPIO_DeInit+0xa4>
 8001fec:	687b      	ldr	r3, [r7, #4]
 8001fee:	4a5e      	ldr	r2, [pc, #376]	; (8002168 <HAL_GPIO_DeInit+0x210>)
 8001ff0:	4293      	cmp	r3, r2
 8001ff2:	d101      	bne.n	8001ff8 <HAL_GPIO_DeInit+0xa0>
 8001ff4:	2309      	movs	r3, #9
 8001ff6:	e012      	b.n	800201e <HAL_GPIO_DeInit+0xc6>
 8001ff8:	230a      	movs	r3, #10
 8001ffa:	e010      	b.n	800201e <HAL_GPIO_DeInit+0xc6>
 8001ffc:	2308      	movs	r3, #8
 8001ffe:	e00e      	b.n	800201e <HAL_GPIO_DeInit+0xc6>
 8002000:	2307      	movs	r3, #7
 8002002:	e00c      	b.n	800201e <HAL_GPIO_DeInit+0xc6>
 8002004:	2306      	movs	r3, #6
 8002006:	e00a      	b.n	800201e <HAL_GPIO_DeInit+0xc6>
 8002008:	2305      	movs	r3, #5
 800200a:	e008      	b.n	800201e <HAL_GPIO_DeInit+0xc6>
 800200c:	2304      	movs	r3, #4
 800200e:	e006      	b.n	800201e <HAL_GPIO_DeInit+0xc6>
 8002010:	2303      	movs	r3, #3
 8002012:	e004      	b.n	800201e <HAL_GPIO_DeInit+0xc6>
 8002014:	2302      	movs	r3, #2
 8002016:	e002      	b.n	800201e <HAL_GPIO_DeInit+0xc6>
 8002018:	2301      	movs	r3, #1
 800201a:	e000      	b.n	800201e <HAL_GPIO_DeInit+0xc6>
 800201c:	2300      	movs	r3, #0
 800201e:	697a      	ldr	r2, [r7, #20]
 8002020:	f002 0203 	and.w	r2, r2, #3
 8002024:	0092      	lsls	r2, r2, #2
 8002026:	4093      	lsls	r3, r2
 8002028:	68ba      	ldr	r2, [r7, #8]
 800202a:	429a      	cmp	r2, r3
 800202c:	d136      	bne.n	800209c <HAL_GPIO_DeInit+0x144>
      {
        /* Clear EXTI line configuration for Current CPU */
        EXTI_CurrentCPU->IMR1 &= ~(iocurrent);
 800202e:	693b      	ldr	r3, [r7, #16]
 8002030:	681a      	ldr	r2, [r3, #0]
 8002032:	68fb      	ldr	r3, [r7, #12]
 8002034:	43db      	mvns	r3, r3
 8002036:	401a      	ands	r2, r3
 8002038:	693b      	ldr	r3, [r7, #16]
 800203a:	601a      	str	r2, [r3, #0]
        EXTI_CurrentCPU->EMR1 &= ~(iocurrent);
 800203c:	693b      	ldr	r3, [r7, #16]
 800203e:	685a      	ldr	r2, [r3, #4]
 8002040:	68fb      	ldr	r3, [r7, #12]
 8002042:	43db      	mvns	r3, r3
 8002044:	401a      	ands	r2, r3
 8002046:	693b      	ldr	r3, [r7, #16]
 8002048:	605a      	str	r2, [r3, #4]

        /* Clear Rising Falling edge configuration */
        EXTI->FTSR1 &= ~(iocurrent);
 800204a:	f04f 43b0 	mov.w	r3, #1476395008	; 0x58000000
 800204e:	685a      	ldr	r2, [r3, #4]
 8002050:	68fb      	ldr	r3, [r7, #12]
 8002052:	43db      	mvns	r3, r3
 8002054:	f04f 41b0 	mov.w	r1, #1476395008	; 0x58000000
 8002058:	4013      	ands	r3, r2
 800205a:	604b      	str	r3, [r1, #4]
        EXTI->RTSR1 &= ~(iocurrent);
 800205c:	f04f 43b0 	mov.w	r3, #1476395008	; 0x58000000
 8002060:	681a      	ldr	r2, [r3, #0]
 8002062:	68fb      	ldr	r3, [r7, #12]
 8002064:	43db      	mvns	r3, r3
 8002066:	f04f 41b0 	mov.w	r1, #1476395008	; 0x58000000
 800206a:	4013      	ands	r3, r2
 800206c:	600b      	str	r3, [r1, #0]

        tmp = 0x0FUL << (4U * (position & 0x03U));
 800206e:	697b      	ldr	r3, [r7, #20]
 8002070:	f003 0303 	and.w	r3, r3, #3
 8002074:	009b      	lsls	r3, r3, #2
 8002076:	220f      	movs	r2, #15
 8002078:	fa02 f303 	lsl.w	r3, r2, r3
 800207c:	60bb      	str	r3, [r7, #8]
        SYSCFG->EXTICR[position >> 2U] &= ~tmp;
 800207e:	4a30      	ldr	r2, [pc, #192]	; (8002140 <HAL_GPIO_DeInit+0x1e8>)
 8002080:	697b      	ldr	r3, [r7, #20]
 8002082:	089b      	lsrs	r3, r3, #2
 8002084:	3302      	adds	r3, #2
 8002086:	f852 1023 	ldr.w	r1, [r2, r3, lsl #2]
 800208a:	68bb      	ldr	r3, [r7, #8]
 800208c:	43da      	mvns	r2, r3
 800208e:	482c      	ldr	r0, [pc, #176]	; (8002140 <HAL_GPIO_DeInit+0x1e8>)
 8002090:	697b      	ldr	r3, [r7, #20]
 8002092:	089b      	lsrs	r3, r3, #2
 8002094:	400a      	ands	r2, r1
 8002096:	3302      	adds	r3, #2
 8002098:	f840 2023 	str.w	r2, [r0, r3, lsl #2]
      }

      /*------------------------- GPIO Mode Configuration --------------------*/
      /* Configure IO in Analog Mode */
      GPIOx->MODER |= (GPIO_MODER_MODE0 << (position * 2U));
 800209c:	687b      	ldr	r3, [r7, #4]
 800209e:	681a      	ldr	r2, [r3, #0]
 80020a0:	697b      	ldr	r3, [r7, #20]
 80020a2:	005b      	lsls	r3, r3, #1
 80020a4:	2103      	movs	r1, #3
 80020a6:	fa01 f303 	lsl.w	r3, r1, r3
 80020aa:	431a      	orrs	r2, r3
 80020ac:	687b      	ldr	r3, [r7, #4]
 80020ae:	601a      	str	r2, [r3, #0]

      /* Configure the default Alternate Function in current IO */
      GPIOx->AFR[position >> 3U] &= ~(0xFU << ((position & 0x07U) * 4U)) ;
 80020b0:	697b      	ldr	r3, [r7, #20]
 80020b2:	08da      	lsrs	r2, r3, #3
 80020b4:	687b      	ldr	r3, [r7, #4]
 80020b6:	3208      	adds	r2, #8
 80020b8:	f853 1022 	ldr.w	r1, [r3, r2, lsl #2]
 80020bc:	697b      	ldr	r3, [r7, #20]
 80020be:	f003 0307 	and.w	r3, r3, #7
 80020c2:	009b      	lsls	r3, r3, #2
 80020c4:	220f      	movs	r2, #15
 80020c6:	fa02 f303 	lsl.w	r3, r2, r3
 80020ca:	43db      	mvns	r3, r3
 80020cc:	697a      	ldr	r2, [r7, #20]
 80020ce:	08d2      	lsrs	r2, r2, #3
 80020d0:	4019      	ands	r1, r3
 80020d2:	687b      	ldr	r3, [r7, #4]
 80020d4:	3208      	adds	r2, #8
 80020d6:	f843 1022 	str.w	r1, [r3, r2, lsl #2]

      /* Deactivate the Pull-up and Pull-down resistor for the current IO */
      GPIOx->PUPDR &= ~(GPIO_PUPDR_PUPD0 << (position * 2U));
 80020da:	687b      	ldr	r3, [r7, #4]
 80020dc:	68da      	ldr	r2, [r3, #12]
 80020de:	697b      	ldr	r3, [r7, #20]
 80020e0:	005b      	lsls	r3, r3, #1
 80020e2:	2103      	movs	r1, #3
 80020e4:	fa01 f303 	lsl.w	r3, r1, r3
 80020e8:	43db      	mvns	r3, r3
 80020ea:	401a      	ands	r2, r3
 80020ec:	687b      	ldr	r3, [r7, #4]
 80020ee:	60da      	str	r2, [r3, #12]

      /* Configure the default value IO Output Type */
      GPIOx->OTYPER  &= ~(GPIO_OTYPER_OT0 << position) ;
 80020f0:	687b      	ldr	r3, [r7, #4]
 80020f2:	685a      	ldr	r2, [r3, #4]
 80020f4:	2101      	movs	r1, #1
 80020f6:	697b      	ldr	r3, [r7, #20]
 80020f8:	fa01 f303 	lsl.w	r3, r1, r3
 80020fc:	43db      	mvns	r3, r3
 80020fe:	401a      	ands	r2, r3
 8002100:	687b      	ldr	r3, [r7, #4]
 8002102:	605a      	str	r2, [r3, #4]

      /* Configure the default value for IO Speed */
      GPIOx->OSPEEDR &= ~(GPIO_OSPEEDR_OSPEED0 << (position * 2U));
 8002104:	687b      	ldr	r3, [r7, #4]
 8002106:	689a      	ldr	r2, [r3, #8]
 8002108:	697b      	ldr	r3, [r7, #20]
 800210a:	005b      	lsls	r3, r3, #1
 800210c:	2103      	movs	r1, #3
 800210e:	fa01 f303 	lsl.w	r3, r1, r3
 8002112:	43db      	mvns	r3, r3
 8002114:	401a      	ands	r2, r3
 8002116:	687b      	ldr	r3, [r7, #4]
 8002118:	609a      	str	r2, [r3, #8]
    }

    position++;
 800211a:	697b      	ldr	r3, [r7, #20]
 800211c:	3301      	adds	r3, #1
 800211e:	617b      	str	r3, [r7, #20]
  while ((GPIO_Pin >> position) != 0x00U)
 8002120:	683a      	ldr	r2, [r7, #0]
 8002122:	697b      	ldr	r3, [r7, #20]
 8002124:	fa22 f303 	lsr.w	r3, r2, r3
 8002128:	2b00      	cmp	r3, #0
 800212a:	f47f af1f 	bne.w	8001f6c <HAL_GPIO_DeInit+0x14>
  }
}
 800212e:	bf00      	nop
 8002130:	bf00      	nop
 8002132:	371c      	adds	r7, #28
 8002134:	46bd      	mov	sp, r7
 8002136:	f85d 7b04 	ldr.w	r7, [sp], #4
 800213a:	4770      	bx	lr
 800213c:	58000080 	.word	0x58000080
 8002140:	58000400 	.word	0x58000400
 8002144:	58020000 	.word	0x58020000
 8002148:	58020400 	.word	0x58020400
 800214c:	58020800 	.word	0x58020800
 8002150:	58020c00 	.word	0x58020c00
 8002154:	58021000 	.word	0x58021000
 8002158:	58021400 	.word	0x58021400
 800215c:	58021800 	.word	0x58021800
 8002160:	58021c00 	.word	0x58021c00
 8002164:	58022000 	.word	0x58022000
 8002168:	58022400 	.word	0x58022400

0800216c <HAL_GPIO_WritePin>:
  *            @arg GPIO_PIN_RESET: to clear the port pin
  *            @arg GPIO_PIN_SET: to set the port pin
  * @retval None
  */
void HAL_GPIO_WritePin(GPIO_TypeDef *GPIOx, uint16_t GPIO_Pin, GPIO_PinState PinState)
{
 800216c:	b480      	push	{r7}
 800216e:	b083      	sub	sp, #12
 8002170:	af00      	add	r7, sp, #0
 8002172:	6078      	str	r0, [r7, #4]
 8002174:	460b      	mov	r3, r1
 8002176:	807b      	strh	r3, [r7, #2]
 8002178:	4613      	mov	r3, r2
 800217a:	707b      	strb	r3, [r7, #1]
  /* Check the parameters */
  assert_param(IS_GPIO_PIN(GPIO_Pin));
  assert_param(IS_GPIO_PIN_ACTION(PinState));

  if (PinState != GPIO_PIN_RESET)
 800217c:	787b      	ldrb	r3, [r7, #1]
 800217e:	2b00      	cmp	r3, #0
 8002180:	d003      	beq.n	800218a <HAL_GPIO_WritePin+0x1e>
  {
    GPIOx->BSRR = GPIO_Pin;
 8002182:	887a      	ldrh	r2, [r7, #2]
 8002184:	687b      	ldr	r3, [r7, #4]
 8002186:	619a      	str	r2, [r3, #24]
  }
  else
  {
    GPIOx->BSRR = (uint32_t)GPIO_Pin << GPIO_NUMBER;
  }
}
 8002188:	e003      	b.n	8002192 <HAL_GPIO_WritePin+0x26>
    GPIOx->BSRR = (uint32_t)GPIO_Pin << GPIO_NUMBER;
 800218a:	887b      	ldrh	r3, [r7, #2]
 800218c:	041a      	lsls	r2, r3, #16
 800218e:	687b      	ldr	r3, [r7, #4]
 8002190:	619a      	str	r2, [r3, #24]
}
 8002192:	bf00      	nop
 8002194:	370c      	adds	r7, #12
 8002196:	46bd      	mov	sp, r7
 8002198:	f85d 7b04 	ldr.w	r7, [sp], #4
 800219c:	4770      	bx	lr
	...

080021a0 <HAL_OSPI_Init>:
  *         in the OSPI_InitTypeDef and initialize the associated handle.
  * @param  hospi : OSPI handle
  * @retval HAL status
  */
HAL_StatusTypeDef HAL_OSPI_Init (OSPI_HandleTypeDef *hospi)
{
 80021a0:	b580      	push	{r7, lr}
 80021a2:	b086      	sub	sp, #24
 80021a4:	af02      	add	r7, sp, #8
 80021a6:	6078      	str	r0, [r7, #4]
  HAL_StatusTypeDef status = HAL_OK;
 80021a8:	2300      	movs	r3, #0
 80021aa:	73fb      	strb	r3, [r7, #15]
  uint32_t tickstart = HAL_GetTick();
 80021ac:	f7ff fb94 	bl	80018d8 <HAL_GetTick>
 80021b0:	60b8      	str	r0, [r7, #8]

  /* Check the OSPI handle allocation */
  if (hospi == NULL)
 80021b2:	687b      	ldr	r3, [r7, #4]
 80021b4:	2b00      	cmp	r3, #0
 80021b6:	d102      	bne.n	80021be <HAL_OSPI_Init+0x1e>
  {
    status = HAL_ERROR;
 80021b8:	2301      	movs	r3, #1
 80021ba:	73fb      	strb	r3, [r7, #15]
 80021bc:	e0a6      	b.n	800230c <HAL_OSPI_Init+0x16c>
    assert_param(IS_OSPI_CS_BOUNDARY    (hospi->Init.ChipSelectBoundary));
    assert_param(IS_OSPI_CKCSHT         (hospi->Init.ClkChipSelectHighTime));
    assert_param(IS_OSPI_MAXTRAN        (hospi->Init.MaxTran));

    /* Initialize error code */
    hospi->ErrorCode = HAL_OSPI_ERROR_NONE;
 80021be:	687b      	ldr	r3, [r7, #4]
 80021c0:	2200      	movs	r2, #0
 80021c2:	659a      	str	r2, [r3, #88]	; 0x58

    /* Check if the state is the reset state */
    if (hospi->State == HAL_OSPI_STATE_RESET)
 80021c4:	687b      	ldr	r3, [r7, #4]
 80021c6:	6d5b      	ldr	r3, [r3, #84]	; 0x54
 80021c8:	2b00      	cmp	r3, #0
 80021ca:	f040 809f 	bne.w	800230c <HAL_OSPI_Init+0x16c>

      /* Init the low level hardware */
      hospi->MspInitCallback(hospi);
#else
      /* Initialization of the low level hardware */
      HAL_OSPI_MspInit(hospi);
 80021ce:	6878      	ldr	r0, [r7, #4]
 80021d0:	f7ff f87e 	bl	80012d0 <HAL_OSPI_MspInit>
#endif /* defined (USE_HAL_OSPI_REGISTER_CALLBACKS) && (USE_HAL_OSPI_REGISTER_CALLBACKS == 1U) */

      /* Configure the default timeout for the OSPI memory access */
      (void)HAL_OSPI_SetTimeout(hospi, HAL_OSPI_TIMEOUT_DEFAULT_VALUE);
 80021d4:	f241 3188 	movw	r1, #5000	; 0x1388
 80021d8:	6878      	ldr	r0, [r7, #4]
 80021da:	f000 fb3f 	bl	800285c <HAL_OSPI_SetTimeout>

      /* Configure memory type, device size, chip select high time, clocked chip select high time, free running clock, clock mode */
      MODIFY_REG(hospi->Instance->DCR1,
 80021de:	687b      	ldr	r3, [r7, #4]
 80021e0:	681b      	ldr	r3, [r3, #0]
 80021e2:	689a      	ldr	r2, [r3, #8]
 80021e4:	4b4c      	ldr	r3, [pc, #304]	; (8002318 <HAL_OSPI_Init+0x178>)
 80021e6:	4013      	ands	r3, r2
 80021e8:	687a      	ldr	r2, [r7, #4]
 80021ea:	68d1      	ldr	r1, [r2, #12]
 80021ec:	687a      	ldr	r2, [r7, #4]
 80021ee:	6912      	ldr	r2, [r2, #16]
 80021f0:	3a01      	subs	r2, #1
 80021f2:	0412      	lsls	r2, r2, #16
 80021f4:	4311      	orrs	r1, r2
 80021f6:	687a      	ldr	r2, [r7, #4]
 80021f8:	6952      	ldr	r2, [r2, #20]
 80021fa:	3a01      	subs	r2, #1
 80021fc:	0212      	lsls	r2, r2, #8
 80021fe:	4311      	orrs	r1, r2
 8002200:	687a      	ldr	r2, [r7, #4]
 8002202:	6b52      	ldr	r2, [r2, #52]	; 0x34
 8002204:	0112      	lsls	r2, r2, #4
 8002206:	4311      	orrs	r1, r2
 8002208:	687a      	ldr	r2, [r7, #4]
 800220a:	69d2      	ldr	r2, [r2, #28]
 800220c:	4311      	orrs	r1, r2
 800220e:	687a      	ldr	r2, [r7, #4]
 8002210:	6812      	ldr	r2, [r2, #0]
 8002212:	430b      	orrs	r3, r1
 8002214:	6093      	str	r3, [r2, #8]
                 (hospi->Init.MemoryType | ((hospi->Init.DeviceSize - 1U) << OCTOSPI_DCR1_DEVSIZE_Pos) |
                  ((hospi->Init.ChipSelectHighTime - 1U) << OCTOSPI_DCR1_CSHT_Pos) |
                  (hospi->Init.ClkChipSelectHighTime << OCTOSPI_DCR1_CKCSHT_Pos) | hospi->Init.ClockMode));

      /* Configure wrap size */
      MODIFY_REG(hospi->Instance->DCR2, OCTOSPI_DCR2_WRAPSIZE, hospi->Init.WrapSize);
 8002216:	687b      	ldr	r3, [r7, #4]
 8002218:	681b      	ldr	r3, [r3, #0]
 800221a:	68db      	ldr	r3, [r3, #12]
 800221c:	f423 21e0 	bic.w	r1, r3, #458752	; 0x70000
 8002220:	687b      	ldr	r3, [r7, #4]
 8002222:	6a1a      	ldr	r2, [r3, #32]
 8002224:	687b      	ldr	r3, [r7, #4]
 8002226:	681b      	ldr	r3, [r3, #0]
 8002228:	430a      	orrs	r2, r1
 800222a:	60da      	str	r2, [r3, #12]

      /* Configure chip select boundary and maximum transfer */
      hospi->Instance->DCR3 = ((hospi->Init.ChipSelectBoundary << OCTOSPI_DCR3_CSBOUND_Pos) |
 800222c:	687b      	ldr	r3, [r7, #4]
 800222e:	6b1b      	ldr	r3, [r3, #48]	; 0x30
 8002230:	0419      	lsls	r1, r3, #16
                               (hospi->Init.MaxTran << OCTOSPI_DCR3_MAXTRAN_Pos));
 8002232:	687b      	ldr	r3, [r7, #4]
 8002234:	6bda      	ldr	r2, [r3, #60]	; 0x3c
      hospi->Instance->DCR3 = ((hospi->Init.ChipSelectBoundary << OCTOSPI_DCR3_CSBOUND_Pos) |
 8002236:	687b      	ldr	r3, [r7, #4]
 8002238:	681b      	ldr	r3, [r3, #0]
 800223a:	430a      	orrs	r2, r1
 800223c:	611a      	str	r2, [r3, #16]

      /* Configure refresh */
      hospi->Instance->DCR4 = hospi->Init.Refresh;
 800223e:	687b      	ldr	r3, [r7, #4]
 8002240:	681b      	ldr	r3, [r3, #0]
 8002242:	687a      	ldr	r2, [r7, #4]
 8002244:	6c12      	ldr	r2, [r2, #64]	; 0x40
 8002246:	615a      	str	r2, [r3, #20]

      /* Configure FIFO threshold */
      MODIFY_REG(hospi->Instance->CR, OCTOSPI_CR_FTHRES, ((hospi->Init.FifoThreshold - 1U) << OCTOSPI_CR_FTHRES_Pos));
 8002248:	687b      	ldr	r3, [r7, #4]
 800224a:	681b      	ldr	r3, [r3, #0]
 800224c:	681b      	ldr	r3, [r3, #0]
 800224e:	f423 51f8 	bic.w	r1, r3, #7936	; 0x1f00
 8002252:	687b      	ldr	r3, [r7, #4]
 8002254:	685b      	ldr	r3, [r3, #4]
 8002256:	3b01      	subs	r3, #1
 8002258:	021a      	lsls	r2, r3, #8
 800225a:	687b      	ldr	r3, [r7, #4]
 800225c:	681b      	ldr	r3, [r3, #0]
 800225e:	430a      	orrs	r2, r1
 8002260:	601a      	str	r2, [r3, #0]

      /* Wait till busy flag is reset */
      status = OSPI_WaitFlagStateUntilTimeout(hospi, HAL_OSPI_FLAG_BUSY, RESET, tickstart, hospi->Timeout);
 8002262:	687b      	ldr	r3, [r7, #4]
 8002264:	6ddb      	ldr	r3, [r3, #92]	; 0x5c
 8002266:	9300      	str	r3, [sp, #0]
 8002268:	68bb      	ldr	r3, [r7, #8]
 800226a:	2200      	movs	r2, #0
 800226c:	2120      	movs	r1, #32
 800226e:	6878      	ldr	r0, [r7, #4]
 8002270:	f001 f81a 	bl	80032a8 <OSPI_WaitFlagStateUntilTimeout>
 8002274:	4603      	mov	r3, r0
 8002276:	73fb      	strb	r3, [r7, #15]

      if (status == HAL_OK)
 8002278:	7bfb      	ldrb	r3, [r7, #15]
 800227a:	2b00      	cmp	r3, #0
 800227c:	d146      	bne.n	800230c <HAL_OSPI_Init+0x16c>
      {
        /* Configure clock prescaler */
        MODIFY_REG(hospi->Instance->DCR2, OCTOSPI_DCR2_PRESCALER,
 800227e:	687b      	ldr	r3, [r7, #4]
 8002280:	681b      	ldr	r3, [r3, #0]
 8002282:	68db      	ldr	r3, [r3, #12]
 8002284:	f023 01ff 	bic.w	r1, r3, #255	; 0xff
 8002288:	687b      	ldr	r3, [r7, #4]
 800228a:	6a5b      	ldr	r3, [r3, #36]	; 0x24
 800228c:	1e5a      	subs	r2, r3, #1
 800228e:	687b      	ldr	r3, [r7, #4]
 8002290:	681b      	ldr	r3, [r3, #0]
 8002292:	430a      	orrs	r2, r1
 8002294:	60da      	str	r2, [r3, #12]
                  ((hospi->Init.ClockPrescaler - 1U) << OCTOSPI_DCR2_PRESCALER_Pos));

        /* Configure Dual Quad mode */
        MODIFY_REG(hospi->Instance->CR, OCTOSPI_CR_DQM, hospi->Init.DualQuad);
 8002296:	687b      	ldr	r3, [r7, #4]
 8002298:	681b      	ldr	r3, [r3, #0]
 800229a:	681b      	ldr	r3, [r3, #0]
 800229c:	f023 0140 	bic.w	r1, r3, #64	; 0x40
 80022a0:	687b      	ldr	r3, [r7, #4]
 80022a2:	689a      	ldr	r2, [r3, #8]
 80022a4:	687b      	ldr	r3, [r7, #4]
 80022a6:	681b      	ldr	r3, [r3, #0]
 80022a8:	430a      	orrs	r2, r1
 80022aa:	601a      	str	r2, [r3, #0]

        /* Configure sample shifting and delay hold quarter cycle */
        MODIFY_REG(hospi->Instance->TCR, (OCTOSPI_TCR_SSHIFT | OCTOSPI_TCR_DHQC),
 80022ac:	687b      	ldr	r3, [r7, #4]
 80022ae:	681b      	ldr	r3, [r3, #0]
 80022b0:	f8d3 3108 	ldr.w	r3, [r3, #264]	; 0x108
 80022b4:	f023 41a0 	bic.w	r1, r3, #1342177280	; 0x50000000
 80022b8:	687b      	ldr	r3, [r7, #4]
 80022ba:	6a9a      	ldr	r2, [r3, #40]	; 0x28
 80022bc:	687b      	ldr	r3, [r7, #4]
 80022be:	6adb      	ldr	r3, [r3, #44]	; 0x2c
 80022c0:	431a      	orrs	r2, r3
 80022c2:	687b      	ldr	r3, [r7, #4]
 80022c4:	681b      	ldr	r3, [r3, #0]
 80022c6:	430a      	orrs	r2, r1
 80022c8:	f8c3 2108 	str.w	r2, [r3, #264]	; 0x108
                  (hospi->Init.SampleShifting | hospi->Init.DelayHoldQuarterCycle));

        /* Enable OctoSPI */
        __HAL_OSPI_ENABLE(hospi);
 80022cc:	687b      	ldr	r3, [r7, #4]
 80022ce:	681b      	ldr	r3, [r3, #0]
 80022d0:	681a      	ldr	r2, [r3, #0]
 80022d2:	687b      	ldr	r3, [r7, #4]
 80022d4:	681b      	ldr	r3, [r3, #0]
 80022d6:	f042 0201 	orr.w	r2, r2, #1
 80022da:	601a      	str	r2, [r3, #0]

        /* Enable free running clock if needed : must be done after OSPI enable */
        if (hospi->Init.FreeRunningClock == HAL_OSPI_FREERUNCLK_ENABLE)
 80022dc:	687b      	ldr	r3, [r7, #4]
 80022de:	699b      	ldr	r3, [r3, #24]
 80022e0:	2b02      	cmp	r3, #2
 80022e2:	d107      	bne.n	80022f4 <HAL_OSPI_Init+0x154>
        {
          SET_BIT(hospi->Instance->DCR1, OCTOSPI_DCR1_FRCK);
 80022e4:	687b      	ldr	r3, [r7, #4]
 80022e6:	681b      	ldr	r3, [r3, #0]
 80022e8:	689a      	ldr	r2, [r3, #8]
 80022ea:	687b      	ldr	r3, [r7, #4]
 80022ec:	681b      	ldr	r3, [r3, #0]
 80022ee:	f042 0202 	orr.w	r2, r2, #2
 80022f2:	609a      	str	r2, [r3, #8]
        }

        /* Initialize the OSPI state */
        if (hospi->Init.MemoryType == HAL_OSPI_MEMTYPE_HYPERBUS)
 80022f4:	687b      	ldr	r3, [r7, #4]
 80022f6:	68db      	ldr	r3, [r3, #12]
 80022f8:	f1b3 6f80 	cmp.w	r3, #67108864	; 0x4000000
 80022fc:	d103      	bne.n	8002306 <HAL_OSPI_Init+0x166>
        {
          hospi->State = HAL_OSPI_STATE_HYPERBUS_INIT;
 80022fe:	687b      	ldr	r3, [r7, #4]
 8002300:	2201      	movs	r2, #1
 8002302:	655a      	str	r2, [r3, #84]	; 0x54
 8002304:	e002      	b.n	800230c <HAL_OSPI_Init+0x16c>
        }
        else
        {
          hospi->State = HAL_OSPI_STATE_READY;
 8002306:	687b      	ldr	r3, [r7, #4]
 8002308:	2202      	movs	r2, #2
 800230a:	655a      	str	r2, [r3, #84]	; 0x54
      }
    }
  }

  /* Return function status */
  return status;
 800230c:	7bfb      	ldrb	r3, [r7, #15]
}
 800230e:	4618      	mov	r0, r3
 8002310:	3710      	adds	r7, #16
 8002312:	46bd      	mov	sp, r7
 8002314:	bd80      	pop	{r7, pc}
 8002316:	bf00      	nop
 8002318:	f8e0f88c 	.word	0xf8e0f88c

0800231c <HAL_OSPI_DeInit>:
  * @brief  De-Initialize the OSPI peripheral.
  * @param  hospi : OSPI handle
  * @retval HAL status
  */
HAL_StatusTypeDef HAL_OSPI_DeInit(OSPI_HandleTypeDef *hospi)
{
 800231c:	b580      	push	{r7, lr}
 800231e:	b084      	sub	sp, #16
 8002320:	af00      	add	r7, sp, #0
 8002322:	6078      	str	r0, [r7, #4]
  HAL_StatusTypeDef status = HAL_OK;
 8002324:	2300      	movs	r3, #0
 8002326:	73fb      	strb	r3, [r7, #15]

  /* Check the OSPI handle allocation */
  if (hospi == NULL)
 8002328:	687b      	ldr	r3, [r7, #4]
 800232a:	2b00      	cmp	r3, #0
 800232c:	d102      	bne.n	8002334 <HAL_OSPI_DeInit+0x18>
  {
    status = HAL_ERROR;
 800232e:	2301      	movs	r3, #1
 8002330:	73fb      	strb	r3, [r7, #15]
 8002332:	e015      	b.n	8002360 <HAL_OSPI_DeInit+0x44>
    /* No error code can be set set as the handler is null */
  }
  else
  {
     /* Disable OctoSPI */
     __HAL_OSPI_DISABLE(hospi);
 8002334:	687b      	ldr	r3, [r7, #4]
 8002336:	681b      	ldr	r3, [r3, #0]
 8002338:	681a      	ldr	r2, [r3, #0]
 800233a:	687b      	ldr	r3, [r7, #4]
 800233c:	681b      	ldr	r3, [r3, #0]
 800233e:	f022 0201 	bic.w	r2, r2, #1
 8002342:	601a      	str	r2, [r3, #0]

     /* Disable free running clock if needed : must be done after OSPI disable */
     CLEAR_BIT(hospi->Instance->DCR1, OCTOSPI_DCR1_FRCK);
 8002344:	687b      	ldr	r3, [r7, #4]
 8002346:	681b      	ldr	r3, [r3, #0]
 8002348:	689a      	ldr	r2, [r3, #8]
 800234a:	687b      	ldr	r3, [r7, #4]
 800234c:	681b      	ldr	r3, [r3, #0]
 800234e:	f022 0202 	bic.w	r2, r2, #2
 8002352:	609a      	str	r2, [r3, #8]

     /* DeInit the low level hardware */
     hospi->MspDeInitCallback(hospi);
#else
     /* De-initialize the low-level hardware */
     HAL_OSPI_MspDeInit(hospi);
 8002354:	6878      	ldr	r0, [r7, #4]
 8002356:	f7ff f89d 	bl	8001494 <HAL_OSPI_MspDeInit>
#endif /* (USE_HAL_OSPI_REGISTER_CALLBACKS) && (USE_HAL_OSPI_REGISTER_CALLBACKS == 1U) */

     /* Reset the driver state */
     hospi->State = HAL_OSPI_STATE_RESET;
 800235a:	687b      	ldr	r3, [r7, #4]
 800235c:	2200      	movs	r2, #0
 800235e:	655a      	str	r2, [r3, #84]	; 0x54
  }

  return status;
 8002360:	7bfb      	ldrb	r3, [r7, #15]
}
 8002362:	4618      	mov	r0, r3
 8002364:	3710      	adds	r7, #16
 8002366:	46bd      	mov	sp, r7
 8002368:	bd80      	pop	{r7, pc}

0800236a <HAL_OSPI_Command>:
  * @param  cmd     : structure that contains the command configuration information
  * @param  Timeout : Timeout duration
  * @retval HAL status
  */
HAL_StatusTypeDef HAL_OSPI_Command(OSPI_HandleTypeDef *hospi, OSPI_RegularCmdTypeDef *cmd, uint32_t Timeout)
{
 800236a:	b580      	push	{r7, lr}
 800236c:	b08a      	sub	sp, #40	; 0x28
 800236e:	af02      	add	r7, sp, #8
 8002370:	60f8      	str	r0, [r7, #12]
 8002372:	60b9      	str	r1, [r7, #8]
 8002374:	607a      	str	r2, [r7, #4]
  HAL_StatusTypeDef status;
  uint32_t state;
  uint32_t tickstart = HAL_GetTick();
 8002376:	f7ff faaf 	bl	80018d8 <HAL_GetTick>
 800237a:	61b8      	str	r0, [r7, #24]
    assert_param(IS_OSPI_ALT_BYTES_SIZE    (cmd->AlternateBytesSize));
    assert_param(IS_OSPI_ALT_BYTES_DTR_MODE(cmd->AlternateBytesDtrMode));
  }

  assert_param(IS_OSPI_DATA_MODE(cmd->DataMode));
  if (cmd->DataMode != HAL_OSPI_DATA_NONE)
 800237c:	68bb      	ldr	r3, [r7, #8]
 800237e:	6b9b      	ldr	r3, [r3, #56]	; 0x38
 8002380:	2b00      	cmp	r3, #0

  assert_param(IS_OSPI_DQS_MODE (cmd->DQSMode));
  assert_param(IS_OSPI_SIOO_MODE(cmd->SIOOMode));

  /* Check the state of the driver */
  state = hospi->State;
 8002382:	68fb      	ldr	r3, [r7, #12]
 8002384:	6d5b      	ldr	r3, [r3, #84]	; 0x54
 8002386:	617b      	str	r3, [r7, #20]
  if (((state == HAL_OSPI_STATE_READY)         && (hospi->Init.MemoryType != HAL_OSPI_MEMTYPE_HYPERBUS)) ||
 8002388:	697b      	ldr	r3, [r7, #20]
 800238a:	2b02      	cmp	r3, #2
 800238c:	d104      	bne.n	8002398 <HAL_OSPI_Command+0x2e>
 800238e:	68fb      	ldr	r3, [r7, #12]
 8002390:	68db      	ldr	r3, [r3, #12]
 8002392:	f1b3 6f80 	cmp.w	r3, #67108864	; 0x4000000
 8002396:	d115      	bne.n	80023c4 <HAL_OSPI_Command+0x5a>
 8002398:	697b      	ldr	r3, [r7, #20]
 800239a:	2b14      	cmp	r3, #20
 800239c:	d107      	bne.n	80023ae <HAL_OSPI_Command+0x44>
      ((state == HAL_OSPI_STATE_READ_CMD_CFG)  && ((cmd->OperationType == HAL_OSPI_OPTYPE_WRITE_CFG)
 800239e:	68bb      	ldr	r3, [r7, #8]
 80023a0:	681b      	ldr	r3, [r3, #0]
 80023a2:	2b02      	cmp	r3, #2
 80023a4:	d00e      	beq.n	80023c4 <HAL_OSPI_Command+0x5a>
                                                || (cmd->OperationType == HAL_OSPI_OPTYPE_WRAP_CFG))) ||
 80023a6:	68bb      	ldr	r3, [r7, #8]
 80023a8:	681b      	ldr	r3, [r3, #0]
 80023aa:	2b03      	cmp	r3, #3
 80023ac:	d00a      	beq.n	80023c4 <HAL_OSPI_Command+0x5a>
 80023ae:	697b      	ldr	r3, [r7, #20]
 80023b0:	2b24      	cmp	r3, #36	; 0x24
 80023b2:	d15b      	bne.n	800246c <HAL_OSPI_Command+0x102>
      ((state == HAL_OSPI_STATE_WRITE_CMD_CFG) && ((cmd->OperationType == HAL_OSPI_OPTYPE_READ_CFG)  ||
 80023b4:	68bb      	ldr	r3, [r7, #8]
 80023b6:	681b      	ldr	r3, [r3, #0]
 80023b8:	2b01      	cmp	r3, #1
 80023ba:	d003      	beq.n	80023c4 <HAL_OSPI_Command+0x5a>
                                                   (cmd->OperationType == HAL_OSPI_OPTYPE_WRAP_CFG))))
 80023bc:	68bb      	ldr	r3, [r7, #8]
 80023be:	681b      	ldr	r3, [r3, #0]
      ((state == HAL_OSPI_STATE_WRITE_CMD_CFG) && ((cmd->OperationType == HAL_OSPI_OPTYPE_READ_CFG)  ||
 80023c0:	2b03      	cmp	r3, #3
 80023c2:	d153      	bne.n	800246c <HAL_OSPI_Command+0x102>
  {
    /* Wait till busy flag is reset */
    status = OSPI_WaitFlagStateUntilTimeout(hospi, HAL_OSPI_FLAG_BUSY, RESET, tickstart, Timeout);
 80023c4:	687b      	ldr	r3, [r7, #4]
 80023c6:	9300      	str	r3, [sp, #0]
 80023c8:	69bb      	ldr	r3, [r7, #24]
 80023ca:	2200      	movs	r2, #0
 80023cc:	2120      	movs	r1, #32
 80023ce:	68f8      	ldr	r0, [r7, #12]
 80023d0:	f000 ff6a 	bl	80032a8 <OSPI_WaitFlagStateUntilTimeout>
 80023d4:	4603      	mov	r3, r0
 80023d6:	77fb      	strb	r3, [r7, #31]

    if (status == HAL_OK)
 80023d8:	7ffb      	ldrb	r3, [r7, #31]
 80023da:	2b00      	cmp	r3, #0
 80023dc:	d14c      	bne.n	8002478 <HAL_OSPI_Command+0x10e>
    {
      /* Initialize error code */
      hospi->ErrorCode = HAL_OSPI_ERROR_NONE;
 80023de:	68fb      	ldr	r3, [r7, #12]
 80023e0:	2200      	movs	r2, #0
 80023e2:	659a      	str	r2, [r3, #88]	; 0x58

      /* Configure the registers */
      status = OSPI_ConfigCmd(hospi, cmd);
 80023e4:	68b9      	ldr	r1, [r7, #8]
 80023e6:	68f8      	ldr	r0, [r7, #12]
 80023e8:	f000 ff96 	bl	8003318 <OSPI_ConfigCmd>
 80023ec:	4603      	mov	r3, r0
 80023ee:	77fb      	strb	r3, [r7, #31]

      if (status == HAL_OK)
 80023f0:	7ffb      	ldrb	r3, [r7, #31]
 80023f2:	2b00      	cmp	r3, #0
 80023f4:	d140      	bne.n	8002478 <HAL_OSPI_Command+0x10e>
      {
        if (cmd->DataMode == HAL_OSPI_DATA_NONE)
 80023f6:	68bb      	ldr	r3, [r7, #8]
 80023f8:	6b9b      	ldr	r3, [r3, #56]	; 0x38
 80023fa:	2b00      	cmp	r3, #0
 80023fc:	d10e      	bne.n	800241c <HAL_OSPI_Command+0xb2>
        {
          /* When there is no data phase, the transfer start as soon as the configuration is done
             so wait until TC flag is set to go back in idle state */
          status = OSPI_WaitFlagStateUntilTimeout(hospi, HAL_OSPI_FLAG_TC, SET, tickstart, Timeout);
 80023fe:	687b      	ldr	r3, [r7, #4]
 8002400:	9300      	str	r3, [sp, #0]
 8002402:	69bb      	ldr	r3, [r7, #24]
 8002404:	2201      	movs	r2, #1
 8002406:	2102      	movs	r1, #2
 8002408:	68f8      	ldr	r0, [r7, #12]
 800240a:	f000 ff4d 	bl	80032a8 <OSPI_WaitFlagStateUntilTimeout>
 800240e:	4603      	mov	r3, r0
 8002410:	77fb      	strb	r3, [r7, #31]

          __HAL_OSPI_CLEAR_FLAG(hospi, HAL_OSPI_FLAG_TC);
 8002412:	68fb      	ldr	r3, [r7, #12]
 8002414:	681b      	ldr	r3, [r3, #0]
 8002416:	2202      	movs	r2, #2
 8002418:	625a      	str	r2, [r3, #36]	; 0x24
    if (status == HAL_OK)
 800241a:	e02d      	b.n	8002478 <HAL_OSPI_Command+0x10e>
        }
        else
        {
          /* Update the state */
          if (cmd->OperationType == HAL_OSPI_OPTYPE_COMMON_CFG)
 800241c:	68bb      	ldr	r3, [r7, #8]
 800241e:	681b      	ldr	r3, [r3, #0]
 8002420:	2b00      	cmp	r3, #0
 8002422:	d103      	bne.n	800242c <HAL_OSPI_Command+0xc2>
          {
            hospi->State = HAL_OSPI_STATE_CMD_CFG;
 8002424:	68fb      	ldr	r3, [r7, #12]
 8002426:	2204      	movs	r2, #4
 8002428:	655a      	str	r2, [r3, #84]	; 0x54
    if (status == HAL_OK)
 800242a:	e025      	b.n	8002478 <HAL_OSPI_Command+0x10e>
          }
          else if (cmd->OperationType == HAL_OSPI_OPTYPE_READ_CFG)
 800242c:	68bb      	ldr	r3, [r7, #8]
 800242e:	681b      	ldr	r3, [r3, #0]
 8002430:	2b01      	cmp	r3, #1
 8002432:	d10b      	bne.n	800244c <HAL_OSPI_Command+0xe2>
          {
            if (hospi->State == HAL_OSPI_STATE_WRITE_CMD_CFG)
 8002434:	68fb      	ldr	r3, [r7, #12]
 8002436:	6d5b      	ldr	r3, [r3, #84]	; 0x54
 8002438:	2b24      	cmp	r3, #36	; 0x24
 800243a:	d103      	bne.n	8002444 <HAL_OSPI_Command+0xda>
            {
              hospi->State = HAL_OSPI_STATE_CMD_CFG;
 800243c:	68fb      	ldr	r3, [r7, #12]
 800243e:	2204      	movs	r2, #4
 8002440:	655a      	str	r2, [r3, #84]	; 0x54
    if (status == HAL_OK)
 8002442:	e019      	b.n	8002478 <HAL_OSPI_Command+0x10e>
            }
            else
            {
              hospi->State = HAL_OSPI_STATE_READ_CMD_CFG;
 8002444:	68fb      	ldr	r3, [r7, #12]
 8002446:	2214      	movs	r2, #20
 8002448:	655a      	str	r2, [r3, #84]	; 0x54
    if (status == HAL_OK)
 800244a:	e015      	b.n	8002478 <HAL_OSPI_Command+0x10e>
            }
          }
          else if (cmd->OperationType == HAL_OSPI_OPTYPE_WRITE_CFG)
 800244c:	68bb      	ldr	r3, [r7, #8]
 800244e:	681b      	ldr	r3, [r3, #0]
 8002450:	2b02      	cmp	r3, #2
 8002452:	d111      	bne.n	8002478 <HAL_OSPI_Command+0x10e>
          {
            if (hospi->State == HAL_OSPI_STATE_READ_CMD_CFG)
 8002454:	68fb      	ldr	r3, [r7, #12]
 8002456:	6d5b      	ldr	r3, [r3, #84]	; 0x54
 8002458:	2b14      	cmp	r3, #20
 800245a:	d103      	bne.n	8002464 <HAL_OSPI_Command+0xfa>
            {
              hospi->State = HAL_OSPI_STATE_CMD_CFG;
 800245c:	68fb      	ldr	r3, [r7, #12]
 800245e:	2204      	movs	r2, #4
 8002460:	655a      	str	r2, [r3, #84]	; 0x54
    if (status == HAL_OK)
 8002462:	e009      	b.n	8002478 <HAL_OSPI_Command+0x10e>
            }
            else
            {
              hospi->State = HAL_OSPI_STATE_WRITE_CMD_CFG;
 8002464:	68fb      	ldr	r3, [r7, #12]
 8002466:	2224      	movs	r2, #36	; 0x24
 8002468:	655a      	str	r2, [r3, #84]	; 0x54
    if (status == HAL_OK)
 800246a:	e005      	b.n	8002478 <HAL_OSPI_Command+0x10e>
      }
    }
  }
  else
  {
    status = HAL_ERROR;
 800246c:	2301      	movs	r3, #1
 800246e:	77fb      	strb	r3, [r7, #31]
    hospi->ErrorCode = HAL_OSPI_ERROR_INVALID_SEQUENCE;
 8002470:	68fb      	ldr	r3, [r7, #12]
 8002472:	2210      	movs	r2, #16
 8002474:	659a      	str	r2, [r3, #88]	; 0x58
 8002476:	e000      	b.n	800247a <HAL_OSPI_Command+0x110>
    if (status == HAL_OK)
 8002478:	bf00      	nop
  }

  /* Return function status */
  return status;
 800247a:	7ffb      	ldrb	r3, [r7, #31]
}
 800247c:	4618      	mov	r0, r3
 800247e:	3720      	adds	r7, #32
 8002480:	46bd      	mov	sp, r7
 8002482:	bd80      	pop	{r7, pc}

08002484 <HAL_OSPI_Transmit>:
  * @param  Timeout : Timeout duration
  * @note   This function is used only in Indirect Write Mode
  * @retval HAL status
  */
HAL_StatusTypeDef HAL_OSPI_Transmit(OSPI_HandleTypeDef *hospi, uint8_t *pData, uint32_t Timeout)
{
 8002484:	b580      	push	{r7, lr}
 8002486:	b08a      	sub	sp, #40	; 0x28
 8002488:	af02      	add	r7, sp, #8
 800248a:	60f8      	str	r0, [r7, #12]
 800248c:	60b9      	str	r1, [r7, #8]
 800248e:	607a      	str	r2, [r7, #4]
  HAL_StatusTypeDef status;
  uint32_t tickstart = HAL_GetTick();
 8002490:	f7ff fa22 	bl	80018d8 <HAL_GetTick>
 8002494:	61b8      	str	r0, [r7, #24]
  __IO uint32_t *data_reg = &hospi->Instance->DR;
 8002496:	68fb      	ldr	r3, [r7, #12]
 8002498:	681b      	ldr	r3, [r3, #0]
 800249a:	3350      	adds	r3, #80	; 0x50
 800249c:	617b      	str	r3, [r7, #20]

  /* Check the data pointer allocation */
  if (pData == NULL)
 800249e:	68bb      	ldr	r3, [r7, #8]
 80024a0:	2b00      	cmp	r3, #0
 80024a2:	d105      	bne.n	80024b0 <HAL_OSPI_Transmit+0x2c>
  {
    status = HAL_ERROR;
 80024a4:	2301      	movs	r3, #1
 80024a6:	77fb      	strb	r3, [r7, #31]
    hospi->ErrorCode = HAL_OSPI_ERROR_INVALID_PARAM;
 80024a8:	68fb      	ldr	r3, [r7, #12]
 80024aa:	2208      	movs	r2, #8
 80024ac:	659a      	str	r2, [r3, #88]	; 0x58
 80024ae:	e057      	b.n	8002560 <HAL_OSPI_Transmit+0xdc>
  }
  else
  {
    /* Check the state */
    if (hospi->State == HAL_OSPI_STATE_CMD_CFG)
 80024b0:	68fb      	ldr	r3, [r7, #12]
 80024b2:	6d5b      	ldr	r3, [r3, #84]	; 0x54
 80024b4:	2b04      	cmp	r3, #4
 80024b6:	d14e      	bne.n	8002556 <HAL_OSPI_Transmit+0xd2>
    {
      /* Configure counters and size */
      hospi->XferCount = READ_REG(hospi->Instance->DLR) + 1U;
 80024b8:	68fb      	ldr	r3, [r7, #12]
 80024ba:	681b      	ldr	r3, [r3, #0]
 80024bc:	6c1b      	ldr	r3, [r3, #64]	; 0x40
 80024be:	1c5a      	adds	r2, r3, #1
 80024c0:	68fb      	ldr	r3, [r7, #12]
 80024c2:	64da      	str	r2, [r3, #76]	; 0x4c
      hospi->XferSize  = hospi->XferCount;
 80024c4:	68fb      	ldr	r3, [r7, #12]
 80024c6:	6cda      	ldr	r2, [r3, #76]	; 0x4c
 80024c8:	68fb      	ldr	r3, [r7, #12]
 80024ca:	649a      	str	r2, [r3, #72]	; 0x48
      hospi->pBuffPtr  = pData;
 80024cc:	68fb      	ldr	r3, [r7, #12]
 80024ce:	68ba      	ldr	r2, [r7, #8]
 80024d0:	645a      	str	r2, [r3, #68]	; 0x44

      /* Configure CR register with functional mode as indirect write */
      MODIFY_REG(hospi->Instance->CR, OCTOSPI_CR_FMODE, OSPI_FUNCTIONAL_MODE_INDIRECT_WRITE);
 80024d2:	68fb      	ldr	r3, [r7, #12]
 80024d4:	681b      	ldr	r3, [r3, #0]
 80024d6:	681a      	ldr	r2, [r3, #0]
 80024d8:	68fb      	ldr	r3, [r7, #12]
 80024da:	681b      	ldr	r3, [r3, #0]
 80024dc:	f022 5240 	bic.w	r2, r2, #805306368	; 0x30000000
 80024e0:	601a      	str	r2, [r3, #0]

      do
      {
        /* Wait till fifo threshold flag is set to send data */
        status = OSPI_WaitFlagStateUntilTimeout(hospi, HAL_OSPI_FLAG_FT, SET, tickstart, Timeout);
 80024e2:	687b      	ldr	r3, [r7, #4]
 80024e4:	9300      	str	r3, [sp, #0]
 80024e6:	69bb      	ldr	r3, [r7, #24]
 80024e8:	2201      	movs	r2, #1
 80024ea:	2104      	movs	r1, #4
 80024ec:	68f8      	ldr	r0, [r7, #12]
 80024ee:	f000 fedb 	bl	80032a8 <OSPI_WaitFlagStateUntilTimeout>
 80024f2:	4603      	mov	r3, r0
 80024f4:	77fb      	strb	r3, [r7, #31]

        if (status != HAL_OK)
 80024f6:	7ffb      	ldrb	r3, [r7, #31]
 80024f8:	2b00      	cmp	r3, #0
 80024fa:	d113      	bne.n	8002524 <HAL_OSPI_Transmit+0xa0>
        {
          break;
        }

        *((__IO uint8_t *)data_reg) = *hospi->pBuffPtr;
 80024fc:	68fb      	ldr	r3, [r7, #12]
 80024fe:	6c5b      	ldr	r3, [r3, #68]	; 0x44
 8002500:	781a      	ldrb	r2, [r3, #0]
 8002502:	697b      	ldr	r3, [r7, #20]
 8002504:	701a      	strb	r2, [r3, #0]
        hospi->pBuffPtr++;
 8002506:	68fb      	ldr	r3, [r7, #12]
 8002508:	6c5b      	ldr	r3, [r3, #68]	; 0x44
 800250a:	1c5a      	adds	r2, r3, #1
 800250c:	68fb      	ldr	r3, [r7, #12]
 800250e:	645a      	str	r2, [r3, #68]	; 0x44
        hospi->XferCount--;
 8002510:	68fb      	ldr	r3, [r7, #12]
 8002512:	6cdb      	ldr	r3, [r3, #76]	; 0x4c
 8002514:	1e5a      	subs	r2, r3, #1
 8002516:	68fb      	ldr	r3, [r7, #12]
 8002518:	64da      	str	r2, [r3, #76]	; 0x4c
      } while (hospi->XferCount > 0U);
 800251a:	68fb      	ldr	r3, [r7, #12]
 800251c:	6cdb      	ldr	r3, [r3, #76]	; 0x4c
 800251e:	2b00      	cmp	r3, #0
 8002520:	d1df      	bne.n	80024e2 <HAL_OSPI_Transmit+0x5e>
 8002522:	e000      	b.n	8002526 <HAL_OSPI_Transmit+0xa2>
          break;
 8002524:	bf00      	nop

      if (status == HAL_OK)
 8002526:	7ffb      	ldrb	r3, [r7, #31]
 8002528:	2b00      	cmp	r3, #0
 800252a:	d119      	bne.n	8002560 <HAL_OSPI_Transmit+0xdc>
      {
        /* Wait till transfer complete flag is set to go back in idle state */
        status = OSPI_WaitFlagStateUntilTimeout(hospi, HAL_OSPI_FLAG_TC, SET, tickstart, Timeout);
 800252c:	687b      	ldr	r3, [r7, #4]
 800252e:	9300      	str	r3, [sp, #0]
 8002530:	69bb      	ldr	r3, [r7, #24]
 8002532:	2201      	movs	r2, #1
 8002534:	2102      	movs	r1, #2
 8002536:	68f8      	ldr	r0, [r7, #12]
 8002538:	f000 feb6 	bl	80032a8 <OSPI_WaitFlagStateUntilTimeout>
 800253c:	4603      	mov	r3, r0
 800253e:	77fb      	strb	r3, [r7, #31]

        if (status == HAL_OK)
 8002540:	7ffb      	ldrb	r3, [r7, #31]
 8002542:	2b00      	cmp	r3, #0
 8002544:	d10c      	bne.n	8002560 <HAL_OSPI_Transmit+0xdc>
        {
          /* Clear transfer complete flag */
          __HAL_OSPI_CLEAR_FLAG(hospi, HAL_OSPI_FLAG_TC);
 8002546:	68fb      	ldr	r3, [r7, #12]
 8002548:	681b      	ldr	r3, [r3, #0]
 800254a:	2202      	movs	r2, #2
 800254c:	625a      	str	r2, [r3, #36]	; 0x24

          /* Update state */
          hospi->State = HAL_OSPI_STATE_READY;
 800254e:	68fb      	ldr	r3, [r7, #12]
 8002550:	2202      	movs	r2, #2
 8002552:	655a      	str	r2, [r3, #84]	; 0x54
 8002554:	e004      	b.n	8002560 <HAL_OSPI_Transmit+0xdc>
        }
      }
    }
    else
    {
      status = HAL_ERROR;
 8002556:	2301      	movs	r3, #1
 8002558:	77fb      	strb	r3, [r7, #31]
      hospi->ErrorCode = HAL_OSPI_ERROR_INVALID_SEQUENCE;
 800255a:	68fb      	ldr	r3, [r7, #12]
 800255c:	2210      	movs	r2, #16
 800255e:	659a      	str	r2, [r3, #88]	; 0x58
    }
  }

  /* Return function status */
  return status;
 8002560:	7ffb      	ldrb	r3, [r7, #31]
}
 8002562:	4618      	mov	r0, r3
 8002564:	3720      	adds	r7, #32
 8002566:	46bd      	mov	sp, r7
 8002568:	bd80      	pop	{r7, pc}

0800256a <HAL_OSPI_Receive>:
  * @param  Timeout : Timeout duration
  * @note   This function is used only in Indirect Read Mode
  * @retval HAL status
  */
HAL_StatusTypeDef HAL_OSPI_Receive(OSPI_HandleTypeDef *hospi, uint8_t *pData, uint32_t Timeout)
{
 800256a:	b580      	push	{r7, lr}
 800256c:	b08c      	sub	sp, #48	; 0x30
 800256e:	af02      	add	r7, sp, #8
 8002570:	60f8      	str	r0, [r7, #12]
 8002572:	60b9      	str	r1, [r7, #8]
 8002574:	607a      	str	r2, [r7, #4]
  HAL_StatusTypeDef status;
  uint32_t tickstart = HAL_GetTick();
 8002576:	f7ff f9af 	bl	80018d8 <HAL_GetTick>
 800257a:	6238      	str	r0, [r7, #32]
  __IO uint32_t *data_reg = &hospi->Instance->DR;
 800257c:	68fb      	ldr	r3, [r7, #12]
 800257e:	681b      	ldr	r3, [r3, #0]
 8002580:	3350      	adds	r3, #80	; 0x50
 8002582:	61fb      	str	r3, [r7, #28]
  uint32_t addr_reg = hospi->Instance->AR;
 8002584:	68fb      	ldr	r3, [r7, #12]
 8002586:	681b      	ldr	r3, [r3, #0]
 8002588:	6c9b      	ldr	r3, [r3, #72]	; 0x48
 800258a:	61bb      	str	r3, [r7, #24]
  uint32_t ir_reg = hospi->Instance->IR;
 800258c:	68fb      	ldr	r3, [r7, #12]
 800258e:	681b      	ldr	r3, [r3, #0]
 8002590:	f8d3 3110 	ldr.w	r3, [r3, #272]	; 0x110
 8002594:	617b      	str	r3, [r7, #20]

  /* Check the data pointer allocation */
  if (pData == NULL)
 8002596:	68bb      	ldr	r3, [r7, #8]
 8002598:	2b00      	cmp	r3, #0
 800259a:	d106      	bne.n	80025aa <HAL_OSPI_Receive+0x40>
  {
    status = HAL_ERROR;
 800259c:	2301      	movs	r3, #1
 800259e:	f887 3027 	strb.w	r3, [r7, #39]	; 0x27
    hospi->ErrorCode = HAL_OSPI_ERROR_INVALID_PARAM;
 80025a2:	68fb      	ldr	r3, [r7, #12]
 80025a4:	2208      	movs	r2, #8
 80025a6:	659a      	str	r2, [r3, #88]	; 0x58
 80025a8:	e07c      	b.n	80026a4 <HAL_OSPI_Receive+0x13a>
  }
  else
  {
    /* Check the state */
    if (hospi->State == HAL_OSPI_STATE_CMD_CFG)
 80025aa:	68fb      	ldr	r3, [r7, #12]
 80025ac:	6d5b      	ldr	r3, [r3, #84]	; 0x54
 80025ae:	2b04      	cmp	r3, #4
 80025b0:	d172      	bne.n	8002698 <HAL_OSPI_Receive+0x12e>
    {
      /* Configure counters and size */
      hospi->XferCount = READ_REG(hospi->Instance->DLR) + 1U;
 80025b2:	68fb      	ldr	r3, [r7, #12]
 80025b4:	681b      	ldr	r3, [r3, #0]
 80025b6:	6c1b      	ldr	r3, [r3, #64]	; 0x40
 80025b8:	1c5a      	adds	r2, r3, #1
 80025ba:	68fb      	ldr	r3, [r7, #12]
 80025bc:	64da      	str	r2, [r3, #76]	; 0x4c
      hospi->XferSize  = hospi->XferCount;
 80025be:	68fb      	ldr	r3, [r7, #12]
 80025c0:	6cda      	ldr	r2, [r3, #76]	; 0x4c
 80025c2:	68fb      	ldr	r3, [r7, #12]
 80025c4:	649a      	str	r2, [r3, #72]	; 0x48
      hospi->pBuffPtr  = pData;
 80025c6:	68fb      	ldr	r3, [r7, #12]
 80025c8:	68ba      	ldr	r2, [r7, #8]
 80025ca:	645a      	str	r2, [r3, #68]	; 0x44

      /* Configure CR register with functional mode as indirect read */
      MODIFY_REG(hospi->Instance->CR, OCTOSPI_CR_FMODE, OSPI_FUNCTIONAL_MODE_INDIRECT_READ);
 80025cc:	68fb      	ldr	r3, [r7, #12]
 80025ce:	681b      	ldr	r3, [r3, #0]
 80025d0:	681b      	ldr	r3, [r3, #0]
 80025d2:	f023 5240 	bic.w	r2, r3, #805306368	; 0x30000000
 80025d6:	68fb      	ldr	r3, [r7, #12]
 80025d8:	681b      	ldr	r3, [r3, #0]
 80025da:	f042 5280 	orr.w	r2, r2, #268435456	; 0x10000000
 80025de:	601a      	str	r2, [r3, #0]

      /* Trig the transfer by re-writing address or instruction register */
      if (hospi->Init.MemoryType == HAL_OSPI_MEMTYPE_HYPERBUS)
 80025e0:	68fb      	ldr	r3, [r7, #12]
 80025e2:	68db      	ldr	r3, [r3, #12]
 80025e4:	f1b3 6f80 	cmp.w	r3, #67108864	; 0x4000000
 80025e8:	d104      	bne.n	80025f4 <HAL_OSPI_Receive+0x8a>
      {
        WRITE_REG(hospi->Instance->AR, addr_reg);
 80025ea:	68fb      	ldr	r3, [r7, #12]
 80025ec:	681b      	ldr	r3, [r3, #0]
 80025ee:	69ba      	ldr	r2, [r7, #24]
 80025f0:	649a      	str	r2, [r3, #72]	; 0x48
 80025f2:	e011      	b.n	8002618 <HAL_OSPI_Receive+0xae>
      }
      else
      {
        if (READ_BIT(hospi->Instance->CCR, OCTOSPI_CCR_ADMODE) != HAL_OSPI_ADDRESS_NONE)
 80025f4:	68fb      	ldr	r3, [r7, #12]
 80025f6:	681b      	ldr	r3, [r3, #0]
 80025f8:	f8d3 3100 	ldr.w	r3, [r3, #256]	; 0x100
 80025fc:	f403 63e0 	and.w	r3, r3, #1792	; 0x700
 8002600:	2b00      	cmp	r3, #0
 8002602:	d004      	beq.n	800260e <HAL_OSPI_Receive+0xa4>
        {
          WRITE_REG(hospi->Instance->AR, addr_reg);
 8002604:	68fb      	ldr	r3, [r7, #12]
 8002606:	681b      	ldr	r3, [r3, #0]
 8002608:	69ba      	ldr	r2, [r7, #24]
 800260a:	649a      	str	r2, [r3, #72]	; 0x48
 800260c:	e004      	b.n	8002618 <HAL_OSPI_Receive+0xae>
        }
        else
        {
          WRITE_REG(hospi->Instance->IR, ir_reg);
 800260e:	68fb      	ldr	r3, [r7, #12]
 8002610:	681b      	ldr	r3, [r3, #0]
 8002612:	697a      	ldr	r2, [r7, #20]
 8002614:	f8c3 2110 	str.w	r2, [r3, #272]	; 0x110
      }

      do
      {
        /* Wait till fifo threshold or transfer complete flags are set to read received data */
        status = OSPI_WaitFlagStateUntilTimeout(hospi, (HAL_OSPI_FLAG_FT | HAL_OSPI_FLAG_TC), SET, tickstart, Timeout);
 8002618:	687b      	ldr	r3, [r7, #4]
 800261a:	9300      	str	r3, [sp, #0]
 800261c:	6a3b      	ldr	r3, [r7, #32]
 800261e:	2201      	movs	r2, #1
 8002620:	2106      	movs	r1, #6
 8002622:	68f8      	ldr	r0, [r7, #12]
 8002624:	f000 fe40 	bl	80032a8 <OSPI_WaitFlagStateUntilTimeout>
 8002628:	4603      	mov	r3, r0
 800262a:	f887 3027 	strb.w	r3, [r7, #39]	; 0x27

        if (status != HAL_OK)
 800262e:	f897 3027 	ldrb.w	r3, [r7, #39]	; 0x27
 8002632:	2b00      	cmp	r3, #0
 8002634:	d114      	bne.n	8002660 <HAL_OSPI_Receive+0xf6>
        {
          break;
        }

        *hospi->pBuffPtr = *((__IO uint8_t *)data_reg);
 8002636:	68fb      	ldr	r3, [r7, #12]
 8002638:	6c5b      	ldr	r3, [r3, #68]	; 0x44
 800263a:	69fa      	ldr	r2, [r7, #28]
 800263c:	7812      	ldrb	r2, [r2, #0]
 800263e:	b2d2      	uxtb	r2, r2
 8002640:	701a      	strb	r2, [r3, #0]
        hospi->pBuffPtr++;
 8002642:	68fb      	ldr	r3, [r7, #12]
 8002644:	6c5b      	ldr	r3, [r3, #68]	; 0x44
 8002646:	1c5a      	adds	r2, r3, #1
 8002648:	68fb      	ldr	r3, [r7, #12]
 800264a:	645a      	str	r2, [r3, #68]	; 0x44
        hospi->XferCount--;
 800264c:	68fb      	ldr	r3, [r7, #12]
 800264e:	6cdb      	ldr	r3, [r3, #76]	; 0x4c
 8002650:	1e5a      	subs	r2, r3, #1
 8002652:	68fb      	ldr	r3, [r7, #12]
 8002654:	64da      	str	r2, [r3, #76]	; 0x4c
      } while(hospi->XferCount > 0U);
 8002656:	68fb      	ldr	r3, [r7, #12]
 8002658:	6cdb      	ldr	r3, [r3, #76]	; 0x4c
 800265a:	2b00      	cmp	r3, #0
 800265c:	d1dc      	bne.n	8002618 <HAL_OSPI_Receive+0xae>
 800265e:	e000      	b.n	8002662 <HAL_OSPI_Receive+0xf8>
          break;
 8002660:	bf00      	nop

      if (status == HAL_OK)
 8002662:	f897 3027 	ldrb.w	r3, [r7, #39]	; 0x27
 8002666:	2b00      	cmp	r3, #0
 8002668:	d11c      	bne.n	80026a4 <HAL_OSPI_Receive+0x13a>
      {
        /* Wait till transfer complete flag is set to go back in idle state */
        status = OSPI_WaitFlagStateUntilTimeout(hospi, HAL_OSPI_FLAG_TC, SET, tickstart, Timeout);
 800266a:	687b      	ldr	r3, [r7, #4]
 800266c:	9300      	str	r3, [sp, #0]
 800266e:	6a3b      	ldr	r3, [r7, #32]
 8002670:	2201      	movs	r2, #1
 8002672:	2102      	movs	r1, #2
 8002674:	68f8      	ldr	r0, [r7, #12]
 8002676:	f000 fe17 	bl	80032a8 <OSPI_WaitFlagStateUntilTimeout>
 800267a:	4603      	mov	r3, r0
 800267c:	f887 3027 	strb.w	r3, [r7, #39]	; 0x27

        if (status == HAL_OK)
 8002680:	f897 3027 	ldrb.w	r3, [r7, #39]	; 0x27
 8002684:	2b00      	cmp	r3, #0
 8002686:	d10d      	bne.n	80026a4 <HAL_OSPI_Receive+0x13a>
        {
          /* Clear transfer complete flag */
          __HAL_OSPI_CLEAR_FLAG(hospi, HAL_OSPI_FLAG_TC);
 8002688:	68fb      	ldr	r3, [r7, #12]
 800268a:	681b      	ldr	r3, [r3, #0]
 800268c:	2202      	movs	r2, #2
 800268e:	625a      	str	r2, [r3, #36]	; 0x24

          /* Update state */
          hospi->State = HAL_OSPI_STATE_READY;
 8002690:	68fb      	ldr	r3, [r7, #12]
 8002692:	2202      	movs	r2, #2
 8002694:	655a      	str	r2, [r3, #84]	; 0x54
 8002696:	e005      	b.n	80026a4 <HAL_OSPI_Receive+0x13a>
        }
      }
    }
    else
    {
      status = HAL_ERROR;
 8002698:	2301      	movs	r3, #1
 800269a:	f887 3027 	strb.w	r3, [r7, #39]	; 0x27
      hospi->ErrorCode = HAL_OSPI_ERROR_INVALID_SEQUENCE;
 800269e:	68fb      	ldr	r3, [r7, #12]
 80026a0:	2210      	movs	r2, #16
 80026a2:	659a      	str	r2, [r3, #88]	; 0x58
    }
  }

  /* Return function status */
  return status;
 80026a4:	f897 3027 	ldrb.w	r3, [r7, #39]	; 0x27
}
 80026a8:	4618      	mov	r0, r3
 80026aa:	3728      	adds	r7, #40	; 0x28
 80026ac:	46bd      	mov	sp, r7
 80026ae:	bd80      	pop	{r7, pc}

080026b0 <HAL_OSPI_AutoPolling>:
  * @param  Timeout : Timeout duration
  * @note   This function is used only in Automatic Polling Mode
  * @retval HAL status
  */
HAL_StatusTypeDef HAL_OSPI_AutoPolling(OSPI_HandleTypeDef *hospi, OSPI_AutoPollingTypeDef *cfg, uint32_t Timeout)
{
 80026b0:	b580      	push	{r7, lr}
 80026b2:	b08a      	sub	sp, #40	; 0x28
 80026b4:	af02      	add	r7, sp, #8
 80026b6:	60f8      	str	r0, [r7, #12]
 80026b8:	60b9      	str	r1, [r7, #8]
 80026ba:	607a      	str	r2, [r7, #4]
  HAL_StatusTypeDef status;
  uint32_t tickstart = HAL_GetTick();
 80026bc:	f7ff f90c 	bl	80018d8 <HAL_GetTick>
 80026c0:	61b8      	str	r0, [r7, #24]
  uint32_t addr_reg = hospi->Instance->AR;
 80026c2:	68fb      	ldr	r3, [r7, #12]
 80026c4:	681b      	ldr	r3, [r3, #0]
 80026c6:	6c9b      	ldr	r3, [r3, #72]	; 0x48
 80026c8:	617b      	str	r3, [r7, #20]
  uint32_t ir_reg = hospi->Instance->IR;
 80026ca:	68fb      	ldr	r3, [r7, #12]
 80026cc:	681b      	ldr	r3, [r3, #0]
 80026ce:	f8d3 3110 	ldr.w	r3, [r3, #272]	; 0x110
 80026d2:	613b      	str	r3, [r7, #16]
  assert_param(IS_OSPI_AUTOMATIC_STOP   (cfg->AutomaticStop));
  assert_param(IS_OSPI_INTERVAL         (cfg->Interval));
  assert_param(IS_OSPI_STATUS_BYTES_SIZE(dlr_reg+1U));

  /* Check the state */
  if ((hospi->State == HAL_OSPI_STATE_CMD_CFG) && (cfg->AutomaticStop == HAL_OSPI_AUTOMATIC_STOP_ENABLE))
 80026d4:	68fb      	ldr	r3, [r7, #12]
 80026d6:	6d5b      	ldr	r3, [r3, #84]	; 0x54
 80026d8:	2b04      	cmp	r3, #4
 80026da:	d164      	bne.n	80027a6 <HAL_OSPI_AutoPolling+0xf6>
 80026dc:	68bb      	ldr	r3, [r7, #8]
 80026de:	68db      	ldr	r3, [r3, #12]
 80026e0:	f5b3 0f80 	cmp.w	r3, #4194304	; 0x400000
 80026e4:	d15f      	bne.n	80027a6 <HAL_OSPI_AutoPolling+0xf6>
  {
    /* Wait till busy flag is reset */
    status = OSPI_WaitFlagStateUntilTimeout(hospi, HAL_OSPI_FLAG_BUSY, RESET, tickstart, Timeout);
 80026e6:	687b      	ldr	r3, [r7, #4]
 80026e8:	9300      	str	r3, [sp, #0]
 80026ea:	69bb      	ldr	r3, [r7, #24]
 80026ec:	2200      	movs	r2, #0
 80026ee:	2120      	movs	r1, #32
 80026f0:	68f8      	ldr	r0, [r7, #12]
 80026f2:	f000 fdd9 	bl	80032a8 <OSPI_WaitFlagStateUntilTimeout>
 80026f6:	4603      	mov	r3, r0
 80026f8:	77fb      	strb	r3, [r7, #31]

    if (status == HAL_OK)
 80026fa:	7ffb      	ldrb	r3, [r7, #31]
 80026fc:	2b00      	cmp	r3, #0
 80026fe:	d158      	bne.n	80027b2 <HAL_OSPI_AutoPolling+0x102>
    {
      /* Configure registers */
      WRITE_REG (hospi->Instance->PSMAR, cfg->Match);
 8002700:	68fb      	ldr	r3, [r7, #12]
 8002702:	681b      	ldr	r3, [r3, #0]
 8002704:	68ba      	ldr	r2, [r7, #8]
 8002706:	6812      	ldr	r2, [r2, #0]
 8002708:	f8c3 2088 	str.w	r2, [r3, #136]	; 0x88
      WRITE_REG (hospi->Instance->PSMKR, cfg->Mask);
 800270c:	68fb      	ldr	r3, [r7, #12]
 800270e:	681b      	ldr	r3, [r3, #0]
 8002710:	68ba      	ldr	r2, [r7, #8]
 8002712:	6852      	ldr	r2, [r2, #4]
 8002714:	f8c3 2080 	str.w	r2, [r3, #128]	; 0x80
      WRITE_REG (hospi->Instance->PIR,   cfg->Interval);
 8002718:	68fb      	ldr	r3, [r7, #12]
 800271a:	681b      	ldr	r3, [r3, #0]
 800271c:	68ba      	ldr	r2, [r7, #8]
 800271e:	6912      	ldr	r2, [r2, #16]
 8002720:	f8c3 2090 	str.w	r2, [r3, #144]	; 0x90
      MODIFY_REG(hospi->Instance->CR,    (OCTOSPI_CR_PMM | OCTOSPI_CR_APMS | OCTOSPI_CR_FMODE),
 8002724:	68fb      	ldr	r3, [r7, #12]
 8002726:	681b      	ldr	r3, [r3, #0]
 8002728:	681b      	ldr	r3, [r3, #0]
 800272a:	f023 5243 	bic.w	r2, r3, #817889280	; 0x30c00000
 800272e:	68bb      	ldr	r3, [r7, #8]
 8002730:	6899      	ldr	r1, [r3, #8]
 8002732:	68bb      	ldr	r3, [r7, #8]
 8002734:	68db      	ldr	r3, [r3, #12]
 8002736:	430b      	orrs	r3, r1
 8002738:	431a      	orrs	r2, r3
 800273a:	68fb      	ldr	r3, [r7, #12]
 800273c:	681b      	ldr	r3, [r3, #0]
 800273e:	f042 5200 	orr.w	r2, r2, #536870912	; 0x20000000
 8002742:	601a      	str	r2, [r3, #0]
                 (cfg->MatchMode | cfg->AutomaticStop | OSPI_FUNCTIONAL_MODE_AUTO_POLLING));

      /* Trig the transfer by re-writing address or instruction register */
      if (hospi->Init.MemoryType == HAL_OSPI_MEMTYPE_HYPERBUS)
 8002744:	68fb      	ldr	r3, [r7, #12]
 8002746:	68db      	ldr	r3, [r3, #12]
 8002748:	f1b3 6f80 	cmp.w	r3, #67108864	; 0x4000000
 800274c:	d104      	bne.n	8002758 <HAL_OSPI_AutoPolling+0xa8>
      {
        WRITE_REG(hospi->Instance->AR, addr_reg);
 800274e:	68fb      	ldr	r3, [r7, #12]
 8002750:	681b      	ldr	r3, [r3, #0]
 8002752:	697a      	ldr	r2, [r7, #20]
 8002754:	649a      	str	r2, [r3, #72]	; 0x48
 8002756:	e011      	b.n	800277c <HAL_OSPI_AutoPolling+0xcc>
      }
      else
      {
        if (READ_BIT(hospi->Instance->CCR, OCTOSPI_CCR_ADMODE) != HAL_OSPI_ADDRESS_NONE)
 8002758:	68fb      	ldr	r3, [r7, #12]
 800275a:	681b      	ldr	r3, [r3, #0]
 800275c:	f8d3 3100 	ldr.w	r3, [r3, #256]	; 0x100
 8002760:	f403 63e0 	and.w	r3, r3, #1792	; 0x700
 8002764:	2b00      	cmp	r3, #0
 8002766:	d004      	beq.n	8002772 <HAL_OSPI_AutoPolling+0xc2>
        {
          WRITE_REG(hospi->Instance->AR, addr_reg);
 8002768:	68fb      	ldr	r3, [r7, #12]
 800276a:	681b      	ldr	r3, [r3, #0]
 800276c:	697a      	ldr	r2, [r7, #20]
 800276e:	649a      	str	r2, [r3, #72]	; 0x48
 8002770:	e004      	b.n	800277c <HAL_OSPI_AutoPolling+0xcc>
        }
        else
        {
          WRITE_REG(hospi->Instance->IR, ir_reg);
 8002772:	68fb      	ldr	r3, [r7, #12]
 8002774:	681b      	ldr	r3, [r3, #0]
 8002776:	693a      	ldr	r2, [r7, #16]
 8002778:	f8c3 2110 	str.w	r2, [r3, #272]	; 0x110
        }
      }

      /* Wait till status match flag is set to go back in idle state */
      status = OSPI_WaitFlagStateUntilTimeout(hospi, HAL_OSPI_FLAG_SM, SET, tickstart, Timeout);
 800277c:	687b      	ldr	r3, [r7, #4]
 800277e:	9300      	str	r3, [sp, #0]
 8002780:	69bb      	ldr	r3, [r7, #24]
 8002782:	2201      	movs	r2, #1
 8002784:	2108      	movs	r1, #8
 8002786:	68f8      	ldr	r0, [r7, #12]
 8002788:	f000 fd8e 	bl	80032a8 <OSPI_WaitFlagStateUntilTimeout>
 800278c:	4603      	mov	r3, r0
 800278e:	77fb      	strb	r3, [r7, #31]

      if (status == HAL_OK)
 8002790:	7ffb      	ldrb	r3, [r7, #31]
 8002792:	2b00      	cmp	r3, #0
 8002794:	d10d      	bne.n	80027b2 <HAL_OSPI_AutoPolling+0x102>
      {
        /* Clear status match flag */
        __HAL_OSPI_CLEAR_FLAG(hospi, HAL_OSPI_FLAG_SM);
 8002796:	68fb      	ldr	r3, [r7, #12]
 8002798:	681b      	ldr	r3, [r3, #0]
 800279a:	2208      	movs	r2, #8
 800279c:	625a      	str	r2, [r3, #36]	; 0x24

        /* Update state */
        hospi->State = HAL_OSPI_STATE_READY;
 800279e:	68fb      	ldr	r3, [r7, #12]
 80027a0:	2202      	movs	r2, #2
 80027a2:	655a      	str	r2, [r3, #84]	; 0x54
    if (status == HAL_OK)
 80027a4:	e005      	b.n	80027b2 <HAL_OSPI_AutoPolling+0x102>
      }
    }
  }
  else
  {
    status = HAL_ERROR;
 80027a6:	2301      	movs	r3, #1
 80027a8:	77fb      	strb	r3, [r7, #31]
    hospi->ErrorCode = HAL_OSPI_ERROR_INVALID_SEQUENCE;
 80027aa:	68fb      	ldr	r3, [r7, #12]
 80027ac:	2210      	movs	r2, #16
 80027ae:	659a      	str	r2, [r3, #88]	; 0x58
 80027b0:	e000      	b.n	80027b4 <HAL_OSPI_AutoPolling+0x104>
    if (status == HAL_OK)
 80027b2:	bf00      	nop
  }

  /* Return function status */
  return status;
 80027b4:	7ffb      	ldrb	r3, [r7, #31]
}
 80027b6:	4618      	mov	r0, r3
 80027b8:	3720      	adds	r7, #32
 80027ba:	46bd      	mov	sp, r7
 80027bc:	bd80      	pop	{r7, pc}
	...

080027c0 <HAL_OSPI_MemoryMapped>:
  * @param  cfg   : structure that contains the memory mapped configuration information.
  * @note   This function is used only in Memory mapped Mode
  * @retval HAL status
  */
HAL_StatusTypeDef HAL_OSPI_MemoryMapped(OSPI_HandleTypeDef *hospi, OSPI_MemoryMappedTypeDef *cfg)
{
 80027c0:	b580      	push	{r7, lr}
 80027c2:	b086      	sub	sp, #24
 80027c4:	af02      	add	r7, sp, #8
 80027c6:	6078      	str	r0, [r7, #4]
 80027c8:	6039      	str	r1, [r7, #0]
  HAL_StatusTypeDef status;
  uint32_t tickstart = HAL_GetTick();
 80027ca:	f7ff f885 	bl	80018d8 <HAL_GetTick>
 80027ce:	60b8      	str	r0, [r7, #8]

  /* Check the parameters of the memory-mapped configuration structure */
  assert_param(IS_OSPI_TIMEOUT_ACTIVATION(cfg->TimeOutActivation));

  /* Check the state */
  if (hospi->State == HAL_OSPI_STATE_CMD_CFG)
 80027d0:	687b      	ldr	r3, [r7, #4]
 80027d2:	6d5b      	ldr	r3, [r3, #84]	; 0x54
 80027d4:	2b04      	cmp	r3, #4
 80027d6:	d134      	bne.n	8002842 <HAL_OSPI_MemoryMapped+0x82>
  {
    /* Wait till busy flag is reset */
    status = OSPI_WaitFlagStateUntilTimeout(hospi, HAL_OSPI_FLAG_BUSY, RESET, tickstart, hospi->Timeout);
 80027d8:	687b      	ldr	r3, [r7, #4]
 80027da:	6ddb      	ldr	r3, [r3, #92]	; 0x5c
 80027dc:	9300      	str	r3, [sp, #0]
 80027de:	68bb      	ldr	r3, [r7, #8]
 80027e0:	2200      	movs	r2, #0
 80027e2:	2120      	movs	r1, #32
 80027e4:	6878      	ldr	r0, [r7, #4]
 80027e6:	f000 fd5f 	bl	80032a8 <OSPI_WaitFlagStateUntilTimeout>
 80027ea:	4603      	mov	r3, r0
 80027ec:	73fb      	strb	r3, [r7, #15]

    if (status == HAL_OK)
 80027ee:	7bfb      	ldrb	r3, [r7, #15]
 80027f0:	2b00      	cmp	r3, #0
 80027f2:	d12b      	bne.n	800284c <HAL_OSPI_MemoryMapped+0x8c>
    {
      /* Update state */
      hospi->State = HAL_OSPI_STATE_BUSY_MEM_MAPPED;
 80027f4:	687b      	ldr	r3, [r7, #4]
 80027f6:	2288      	movs	r2, #136	; 0x88
 80027f8:	655a      	str	r2, [r3, #84]	; 0x54

      if (cfg->TimeOutActivation == HAL_OSPI_TIMEOUT_COUNTER_ENABLE)
 80027fa:	683b      	ldr	r3, [r7, #0]
 80027fc:	681b      	ldr	r3, [r3, #0]
 80027fe:	2b08      	cmp	r3, #8
 8002800:	d111      	bne.n	8002826 <HAL_OSPI_MemoryMapped+0x66>
      {
        assert_param(IS_OSPI_TIMEOUT_PERIOD(cfg->TimeOutPeriod));

        /* Configure register */
        WRITE_REG(hospi->Instance->LPTR, cfg->TimeOutPeriod);
 8002802:	687b      	ldr	r3, [r7, #4]
 8002804:	681b      	ldr	r3, [r3, #0]
 8002806:	683a      	ldr	r2, [r7, #0]
 8002808:	6852      	ldr	r2, [r2, #4]
 800280a:	f8c3 2130 	str.w	r2, [r3, #304]	; 0x130

        /* Clear flags related to interrupt */
        __HAL_OSPI_CLEAR_FLAG(hospi, HAL_OSPI_FLAG_TO);
 800280e:	687b      	ldr	r3, [r7, #4]
 8002810:	681b      	ldr	r3, [r3, #0]
 8002812:	2210      	movs	r2, #16
 8002814:	625a      	str	r2, [r3, #36]	; 0x24

        /* Enable the timeout interrupt */
        __HAL_OSPI_ENABLE_IT(hospi, HAL_OSPI_IT_TO);
 8002816:	687b      	ldr	r3, [r7, #4]
 8002818:	681b      	ldr	r3, [r3, #0]
 800281a:	681a      	ldr	r2, [r3, #0]
 800281c:	687b      	ldr	r3, [r7, #4]
 800281e:	681b      	ldr	r3, [r3, #0]
 8002820:	f442 1280 	orr.w	r2, r2, #1048576	; 0x100000
 8002824:	601a      	str	r2, [r3, #0]
      }

      /* Configure CR register with functional mode as memory-mapped */
      MODIFY_REG(hospi->Instance->CR, (OCTOSPI_CR_TCEN | OCTOSPI_CR_FMODE),
 8002826:	687b      	ldr	r3, [r7, #4]
 8002828:	681b      	ldr	r3, [r3, #0]
 800282a:	681a      	ldr	r2, [r3, #0]
 800282c:	4b0a      	ldr	r3, [pc, #40]	; (8002858 <HAL_OSPI_MemoryMapped+0x98>)
 800282e:	4013      	ands	r3, r2
 8002830:	683a      	ldr	r2, [r7, #0]
 8002832:	6812      	ldr	r2, [r2, #0]
 8002834:	431a      	orrs	r2, r3
 8002836:	687b      	ldr	r3, [r7, #4]
 8002838:	681b      	ldr	r3, [r3, #0]
 800283a:	f042 5240 	orr.w	r2, r2, #805306368	; 0x30000000
 800283e:	601a      	str	r2, [r3, #0]
 8002840:	e004      	b.n	800284c <HAL_OSPI_MemoryMapped+0x8c>
                 (cfg->TimeOutActivation | OSPI_FUNCTIONAL_MODE_MEMORY_MAPPED));
    }
  }
  else
  {
    status = HAL_ERROR;
 8002842:	2301      	movs	r3, #1
 8002844:	73fb      	strb	r3, [r7, #15]
    hospi->ErrorCode = HAL_OSPI_ERROR_INVALID_SEQUENCE;
 8002846:	687b      	ldr	r3, [r7, #4]
 8002848:	2210      	movs	r2, #16
 800284a:	659a      	str	r2, [r3, #88]	; 0x58
  }

  /* Return function status */
  return status;
 800284c:	7bfb      	ldrb	r3, [r7, #15]
}
 800284e:	4618      	mov	r0, r3
 8002850:	3710      	adds	r7, #16
 8002852:	46bd      	mov	sp, r7
 8002854:	bd80      	pop	{r7, pc}
 8002856:	bf00      	nop
 8002858:	cffffff7 	.word	0xcffffff7

0800285c <HAL_OSPI_SetTimeout>:
  * @param  hospi   : OSPI handle.
  * @param  Timeout : Timeout for the memory access.
  * @retval None
  */
HAL_StatusTypeDef HAL_OSPI_SetTimeout(OSPI_HandleTypeDef *hospi, uint32_t Timeout)
{
 800285c:	b480      	push	{r7}
 800285e:	b083      	sub	sp, #12
 8002860:	af00      	add	r7, sp, #0
 8002862:	6078      	str	r0, [r7, #4]
 8002864:	6039      	str	r1, [r7, #0]
  hospi->Timeout = Timeout;
 8002866:	687b      	ldr	r3, [r7, #4]
 8002868:	683a      	ldr	r2, [r7, #0]
 800286a:	65da      	str	r2, [r3, #92]	; 0x5c
  return HAL_OK;
 800286c:	2300      	movs	r3, #0
}
 800286e:	4618      	mov	r0, r3
 8002870:	370c      	adds	r7, #12
 8002872:	46bd      	mov	sp, r7
 8002874:	f85d 7b04 	ldr.w	r7, [sp], #4
 8002878:	4770      	bx	lr
	...

0800287c <HAL_OSPIM_Config>:
  * @param  cfg     : Configuration of the IO Manager for the instance
  * @param  Timeout : Timeout duration
  * @retval HAL status
  */
HAL_StatusTypeDef HAL_OSPIM_Config(OSPI_HandleTypeDef *hospi, OSPIM_CfgTypeDef *cfg, uint32_t Timeout)
{
 800287c:	b580      	push	{r7, lr}
 800287e:	b094      	sub	sp, #80	; 0x50
 8002880:	af00      	add	r7, sp, #0
 8002882:	60f8      	str	r0, [r7, #12]
 8002884:	60b9      	str	r1, [r7, #8]
 8002886:	607a      	str	r2, [r7, #4]
  HAL_StatusTypeDef status = HAL_OK;
 8002888:	2300      	movs	r3, #0
 800288a:	f887 304f 	strb.w	r3, [r7, #79]	; 0x4f
  uint32_t instance;
  uint8_t index;
  uint8_t ospi_enabled = 0U;
 800288e:	2300      	movs	r3, #0
 8002890:	f887 3046 	strb.w	r3, [r7, #70]	; 0x46
  assert_param(IS_OSPIM_PORT(cfg->NCSPort));
  assert_param(IS_OSPIM_IO_PORT(cfg->IOLowPort));
  assert_param(IS_OSPIM_IO_PORT(cfg->IOHighPort));
  assert_param(IS_OSPIM_REQ2ACKTIME(cfg->Req2AckTime));

  if (hospi->Instance == OCTOSPI1)
 8002894:	68fb      	ldr	r3, [r7, #12]
 8002896:	681b      	ldr	r3, [r3, #0]
 8002898:	4aa3      	ldr	r2, [pc, #652]	; (8002b28 <HAL_OSPIM_Config+0x2ac>)
 800289a:	4293      	cmp	r3, r2
 800289c:	d105      	bne.n	80028aa <HAL_OSPIM_Config+0x2e>
  {
    instance = 0U;
 800289e:	2300      	movs	r3, #0
 80028a0:	64bb      	str	r3, [r7, #72]	; 0x48
    other_instance = 1U;
 80028a2:	2301      	movs	r3, #1
 80028a4:	f887 3045 	strb.w	r3, [r7, #69]	; 0x45
 80028a8:	e004      	b.n	80028b4 <HAL_OSPIM_Config+0x38>
  }
  else
  {
    instance = 1U;
 80028aa:	2301      	movs	r3, #1
 80028ac:	64bb      	str	r3, [r7, #72]	; 0x48
    other_instance = 0U;
 80028ae:	2300      	movs	r3, #0
 80028b0:	f887 3045 	strb.w	r3, [r7, #69]	; 0x45
  }

  /**************** Get current configuration of the instances ****************/
  for (index = 0U; index < OSPI_NB_INSTANCE; index++)
 80028b4:	2300      	movs	r3, #0
 80028b6:	f887 3047 	strb.w	r3, [r7, #71]	; 0x47
 80028ba:	e01d      	b.n	80028f8 <HAL_OSPIM_Config+0x7c>
  {
    if (OSPIM_GetConfig(index+1U, &(IOM_cfg[index])) != HAL_OK)
 80028bc:	f897 3047 	ldrb.w	r3, [r7, #71]	; 0x47
 80028c0:	3301      	adds	r3, #1
 80028c2:	b2d8      	uxtb	r0, r3
 80028c4:	f897 2047 	ldrb.w	r2, [r7, #71]	; 0x47
 80028c8:	f107 0114 	add.w	r1, r7, #20
 80028cc:	4613      	mov	r3, r2
 80028ce:	005b      	lsls	r3, r3, #1
 80028d0:	4413      	add	r3, r2
 80028d2:	00db      	lsls	r3, r3, #3
 80028d4:	440b      	add	r3, r1
 80028d6:	4619      	mov	r1, r3
 80028d8:	f000 fe98 	bl	800360c <OSPIM_GetConfig>
 80028dc:	4603      	mov	r3, r0
 80028de:	2b00      	cmp	r3, #0
 80028e0:	d005      	beq.n	80028ee <HAL_OSPIM_Config+0x72>
    {
      status = HAL_ERROR;
 80028e2:	2301      	movs	r3, #1
 80028e4:	f887 304f 	strb.w	r3, [r7, #79]	; 0x4f
      hospi->ErrorCode = HAL_OSPI_ERROR_INVALID_PARAM;
 80028e8:	68fb      	ldr	r3, [r7, #12]
 80028ea:	2208      	movs	r2, #8
 80028ec:	659a      	str	r2, [r3, #88]	; 0x58
  for (index = 0U; index < OSPI_NB_INSTANCE; index++)
 80028ee:	f897 3047 	ldrb.w	r3, [r7, #71]	; 0x47
 80028f2:	3301      	adds	r3, #1
 80028f4:	f887 3047 	strb.w	r3, [r7, #71]	; 0x47
 80028f8:	f897 3047 	ldrb.w	r3, [r7, #71]	; 0x47
 80028fc:	2b01      	cmp	r3, #1
 80028fe:	d9dd      	bls.n	80028bc <HAL_OSPIM_Config+0x40>
    }
  }

  if (status == HAL_OK)
 8002900:	f897 304f 	ldrb.w	r3, [r7, #79]	; 0x4f
 8002904:	2b00      	cmp	r3, #0
 8002906:	f040 84c3 	bne.w	8003290 <HAL_OSPIM_Config+0xa14>
  {
    /********** Disable both OctoSPI to configure OctoSPI IO Manager **********/
    if ((OCTOSPI1->CR & OCTOSPI_CR_EN) != 0U)
 800290a:	4b87      	ldr	r3, [pc, #540]	; (8002b28 <HAL_OSPIM_Config+0x2ac>)
 800290c:	681b      	ldr	r3, [r3, #0]
 800290e:	f003 0301 	and.w	r3, r3, #1
 8002912:	2b00      	cmp	r3, #0
 8002914:	d00b      	beq.n	800292e <HAL_OSPIM_Config+0xb2>
    {
      CLEAR_BIT(OCTOSPI1->CR, OCTOSPI_CR_EN);
 8002916:	4b84      	ldr	r3, [pc, #528]	; (8002b28 <HAL_OSPIM_Config+0x2ac>)
 8002918:	681b      	ldr	r3, [r3, #0]
 800291a:	4a83      	ldr	r2, [pc, #524]	; (8002b28 <HAL_OSPIM_Config+0x2ac>)
 800291c:	f023 0301 	bic.w	r3, r3, #1
 8002920:	6013      	str	r3, [r2, #0]
      ospi_enabled |= 0x1U;
 8002922:	f897 3046 	ldrb.w	r3, [r7, #70]	; 0x46
 8002926:	f043 0301 	orr.w	r3, r3, #1
 800292a:	f887 3046 	strb.w	r3, [r7, #70]	; 0x46
    }
    if ((OCTOSPI2->CR & OCTOSPI_CR_EN) != 0U)
 800292e:	4b7f      	ldr	r3, [pc, #508]	; (8002b2c <HAL_OSPIM_Config+0x2b0>)
 8002930:	681b      	ldr	r3, [r3, #0]
 8002932:	f003 0301 	and.w	r3, r3, #1
 8002936:	2b00      	cmp	r3, #0
 8002938:	d00b      	beq.n	8002952 <HAL_OSPIM_Config+0xd6>
    {
      CLEAR_BIT(OCTOSPI2->CR, OCTOSPI_CR_EN);
 800293a:	4b7c      	ldr	r3, [pc, #496]	; (8002b2c <HAL_OSPIM_Config+0x2b0>)
 800293c:	681b      	ldr	r3, [r3, #0]
 800293e:	4a7b      	ldr	r2, [pc, #492]	; (8002b2c <HAL_OSPIM_Config+0x2b0>)
 8002940:	f023 0301 	bic.w	r3, r3, #1
 8002944:	6013      	str	r3, [r2, #0]
      ospi_enabled |= 0x2U;
 8002946:	f897 3046 	ldrb.w	r3, [r7, #70]	; 0x46
 800294a:	f043 0302 	orr.w	r3, r3, #2
 800294e:	f887 3046 	strb.w	r3, [r7, #70]	; 0x46
    }

    /***************** Deactivation of previous configuration *****************/
    CLEAR_BIT(OCTOSPIM->PCR[(IOM_cfg[instance].NCSPort-1U)], OCTOSPIM_PCR_NCSEN);
 8002952:	4977      	ldr	r1, [pc, #476]	; (8002b30 <HAL_OSPIM_Config+0x2b4>)
 8002954:	6cba      	ldr	r2, [r7, #72]	; 0x48
 8002956:	4613      	mov	r3, r2
 8002958:	005b      	lsls	r3, r3, #1
 800295a:	4413      	add	r3, r2
 800295c:	00db      	lsls	r3, r3, #3
 800295e:	f107 0250 	add.w	r2, r7, #80	; 0x50
 8002962:	4413      	add	r3, r2
 8002964:	3b34      	subs	r3, #52	; 0x34
 8002966:	681b      	ldr	r3, [r3, #0]
 8002968:	3b01      	subs	r3, #1
 800296a:	009b      	lsls	r3, r3, #2
 800296c:	440b      	add	r3, r1
 800296e:	6859      	ldr	r1, [r3, #4]
 8002970:	486f      	ldr	r0, [pc, #444]	; (8002b30 <HAL_OSPIM_Config+0x2b4>)
 8002972:	6cba      	ldr	r2, [r7, #72]	; 0x48
 8002974:	4613      	mov	r3, r2
 8002976:	005b      	lsls	r3, r3, #1
 8002978:	4413      	add	r3, r2
 800297a:	00db      	lsls	r3, r3, #3
 800297c:	f107 0250 	add.w	r2, r7, #80	; 0x50
 8002980:	4413      	add	r3, r2
 8002982:	3b34      	subs	r3, #52	; 0x34
 8002984:	681b      	ldr	r3, [r3, #0]
 8002986:	3b01      	subs	r3, #1
 8002988:	f421 7280 	bic.w	r2, r1, #256	; 0x100
 800298c:	009b      	lsls	r3, r3, #2
 800298e:	4403      	add	r3, r0
 8002990:	605a      	str	r2, [r3, #4]
    if ((OCTOSPIM->CR & OCTOSPIM_CR_MUXEN) != 0U)
 8002992:	4b67      	ldr	r3, [pc, #412]	; (8002b30 <HAL_OSPIM_Config+0x2b4>)
 8002994:	681b      	ldr	r3, [r3, #0]
 8002996:	f003 0301 	and.w	r3, r3, #1
 800299a:	2b00      	cmp	r3, #0
 800299c:	f000 80ca 	beq.w	8002b34 <HAL_OSPIM_Config+0x2b8>
    {
      /* De-multiplexing should be performed */
      CLEAR_BIT(OCTOSPIM->CR, OCTOSPIM_CR_MUXEN);
 80029a0:	4b63      	ldr	r3, [pc, #396]	; (8002b30 <HAL_OSPIM_Config+0x2b4>)
 80029a2:	681b      	ldr	r3, [r3, #0]
 80029a4:	4a62      	ldr	r2, [pc, #392]	; (8002b30 <HAL_OSPIM_Config+0x2b4>)
 80029a6:	f023 0301 	bic.w	r3, r3, #1
 80029aa:	6013      	str	r3, [r2, #0]

      if (other_instance == 1U)
 80029ac:	f897 3045 	ldrb.w	r3, [r7, #69]	; 0x45
 80029b0:	2b01      	cmp	r3, #1
 80029b2:	f040 8178 	bne.w	8002ca6 <HAL_OSPIM_Config+0x42a>
      {
        SET_BIT(OCTOSPIM->PCR[(IOM_cfg[other_instance].ClkPort-1U)], OCTOSPIM_PCR_CLKSRC);
 80029b6:	495e      	ldr	r1, [pc, #376]	; (8002b30 <HAL_OSPIM_Config+0x2b4>)
 80029b8:	f897 2045 	ldrb.w	r2, [r7, #69]	; 0x45
 80029bc:	4613      	mov	r3, r2
 80029be:	005b      	lsls	r3, r3, #1
 80029c0:	4413      	add	r3, r2
 80029c2:	00db      	lsls	r3, r3, #3
 80029c4:	f107 0250 	add.w	r2, r7, #80	; 0x50
 80029c8:	4413      	add	r3, r2
 80029ca:	3b3c      	subs	r3, #60	; 0x3c
 80029cc:	681b      	ldr	r3, [r3, #0]
 80029ce:	3b01      	subs	r3, #1
 80029d0:	009b      	lsls	r3, r3, #2
 80029d2:	440b      	add	r3, r1
 80029d4:	6859      	ldr	r1, [r3, #4]
 80029d6:	4856      	ldr	r0, [pc, #344]	; (8002b30 <HAL_OSPIM_Config+0x2b4>)
 80029d8:	f897 2045 	ldrb.w	r2, [r7, #69]	; 0x45
 80029dc:	4613      	mov	r3, r2
 80029de:	005b      	lsls	r3, r3, #1
 80029e0:	4413      	add	r3, r2
 80029e2:	00db      	lsls	r3, r3, #3
 80029e4:	f107 0250 	add.w	r2, r7, #80	; 0x50
 80029e8:	4413      	add	r3, r2
 80029ea:	3b3c      	subs	r3, #60	; 0x3c
 80029ec:	681b      	ldr	r3, [r3, #0]
 80029ee:	3b01      	subs	r3, #1
 80029f0:	f041 0202 	orr.w	r2, r1, #2
 80029f4:	009b      	lsls	r3, r3, #2
 80029f6:	4403      	add	r3, r0
 80029f8:	605a      	str	r2, [r3, #4]
        if (IOM_cfg[other_instance].DQSPort != 0U)
 80029fa:	f897 2045 	ldrb.w	r2, [r7, #69]	; 0x45
 80029fe:	4613      	mov	r3, r2
 8002a00:	005b      	lsls	r3, r3, #1
 8002a02:	4413      	add	r3, r2
 8002a04:	00db      	lsls	r3, r3, #3
 8002a06:	f107 0250 	add.w	r2, r7, #80	; 0x50
 8002a0a:	4413      	add	r3, r2
 8002a0c:	3b38      	subs	r3, #56	; 0x38
 8002a0e:	681b      	ldr	r3, [r3, #0]
 8002a10:	2b00      	cmp	r3, #0
 8002a12:	d021      	beq.n	8002a58 <HAL_OSPIM_Config+0x1dc>
        {
          SET_BIT(OCTOSPIM->PCR[(IOM_cfg[other_instance].DQSPort-1U)], OCTOSPIM_PCR_DQSSRC);
 8002a14:	4946      	ldr	r1, [pc, #280]	; (8002b30 <HAL_OSPIM_Config+0x2b4>)
 8002a16:	f897 2045 	ldrb.w	r2, [r7, #69]	; 0x45
 8002a1a:	4613      	mov	r3, r2
 8002a1c:	005b      	lsls	r3, r3, #1
 8002a1e:	4413      	add	r3, r2
 8002a20:	00db      	lsls	r3, r3, #3
 8002a22:	f107 0250 	add.w	r2, r7, #80	; 0x50
 8002a26:	4413      	add	r3, r2
 8002a28:	3b38      	subs	r3, #56	; 0x38
 8002a2a:	681b      	ldr	r3, [r3, #0]
 8002a2c:	3b01      	subs	r3, #1
 8002a2e:	009b      	lsls	r3, r3, #2
 8002a30:	440b      	add	r3, r1
 8002a32:	6859      	ldr	r1, [r3, #4]
 8002a34:	483e      	ldr	r0, [pc, #248]	; (8002b30 <HAL_OSPIM_Config+0x2b4>)
 8002a36:	f897 2045 	ldrb.w	r2, [r7, #69]	; 0x45
 8002a3a:	4613      	mov	r3, r2
 8002a3c:	005b      	lsls	r3, r3, #1
 8002a3e:	4413      	add	r3, r2
 8002a40:	00db      	lsls	r3, r3, #3
 8002a42:	f107 0250 	add.w	r2, r7, #80	; 0x50
 8002a46:	4413      	add	r3, r2
 8002a48:	3b38      	subs	r3, #56	; 0x38
 8002a4a:	681b      	ldr	r3, [r3, #0]
 8002a4c:	3b01      	subs	r3, #1
 8002a4e:	f041 0220 	orr.w	r2, r1, #32
 8002a52:	009b      	lsls	r3, r3, #2
 8002a54:	4403      	add	r3, r0
 8002a56:	605a      	str	r2, [r3, #4]
        }
        if (IOM_cfg[other_instance].IOLowPort != HAL_OSPIM_IOPORT_NONE)
 8002a58:	f897 2045 	ldrb.w	r2, [r7, #69]	; 0x45
 8002a5c:	4613      	mov	r3, r2
 8002a5e:	005b      	lsls	r3, r3, #1
 8002a60:	4413      	add	r3, r2
 8002a62:	00db      	lsls	r3, r3, #3
 8002a64:	f107 0250 	add.w	r2, r7, #80	; 0x50
 8002a68:	4413      	add	r3, r2
 8002a6a:	3b30      	subs	r3, #48	; 0x30
 8002a6c:	681b      	ldr	r3, [r3, #0]
 8002a6e:	2b00      	cmp	r3, #0
 8002a70:	d025      	beq.n	8002abe <HAL_OSPIM_Config+0x242>
        {
          SET_BIT(OCTOSPIM->PCR[((IOM_cfg[other_instance].IOLowPort-1U)& OSPI_IOM_PORT_MASK)], OCTOSPIM_PCR_IOLSRC_1);
 8002a72:	492f      	ldr	r1, [pc, #188]	; (8002b30 <HAL_OSPIM_Config+0x2b4>)
 8002a74:	f897 2045 	ldrb.w	r2, [r7, #69]	; 0x45
 8002a78:	4613      	mov	r3, r2
 8002a7a:	005b      	lsls	r3, r3, #1
 8002a7c:	4413      	add	r3, r2
 8002a7e:	00db      	lsls	r3, r3, #3
 8002a80:	f107 0250 	add.w	r2, r7, #80	; 0x50
 8002a84:	4413      	add	r3, r2
 8002a86:	3b30      	subs	r3, #48	; 0x30
 8002a88:	681b      	ldr	r3, [r3, #0]
 8002a8a:	3b01      	subs	r3, #1
 8002a8c:	f003 0301 	and.w	r3, r3, #1
 8002a90:	009b      	lsls	r3, r3, #2
 8002a92:	440b      	add	r3, r1
 8002a94:	6859      	ldr	r1, [r3, #4]
 8002a96:	4826      	ldr	r0, [pc, #152]	; (8002b30 <HAL_OSPIM_Config+0x2b4>)
 8002a98:	f897 2045 	ldrb.w	r2, [r7, #69]	; 0x45
 8002a9c:	4613      	mov	r3, r2
 8002a9e:	005b      	lsls	r3, r3, #1
 8002aa0:	4413      	add	r3, r2
 8002aa2:	00db      	lsls	r3, r3, #3
 8002aa4:	f107 0250 	add.w	r2, r7, #80	; 0x50
 8002aa8:	4413      	add	r3, r2
 8002aaa:	3b30      	subs	r3, #48	; 0x30
 8002aac:	681b      	ldr	r3, [r3, #0]
 8002aae:	3b01      	subs	r3, #1
 8002ab0:	f003 0301 	and.w	r3, r3, #1
 8002ab4:	f441 2280 	orr.w	r2, r1, #262144	; 0x40000
 8002ab8:	009b      	lsls	r3, r3, #2
 8002aba:	4403      	add	r3, r0
 8002abc:	605a      	str	r2, [r3, #4]
        }
        if (IOM_cfg[other_instance].IOHighPort != HAL_OSPIM_IOPORT_NONE)
 8002abe:	f897 2045 	ldrb.w	r2, [r7, #69]	; 0x45
 8002ac2:	4613      	mov	r3, r2
 8002ac4:	005b      	lsls	r3, r3, #1
 8002ac6:	4413      	add	r3, r2
 8002ac8:	00db      	lsls	r3, r3, #3
 8002aca:	f107 0250 	add.w	r2, r7, #80	; 0x50
 8002ace:	4413      	add	r3, r2
 8002ad0:	3b2c      	subs	r3, #44	; 0x2c
 8002ad2:	681b      	ldr	r3, [r3, #0]
 8002ad4:	2b00      	cmp	r3, #0
 8002ad6:	f000 80e6 	beq.w	8002ca6 <HAL_OSPIM_Config+0x42a>
        {
          SET_BIT(OCTOSPIM->PCR[((IOM_cfg[other_instance].IOHighPort-1U)& OSPI_IOM_PORT_MASK)], OCTOSPIM_PCR_IOHSRC_1);
 8002ada:	4915      	ldr	r1, [pc, #84]	; (8002b30 <HAL_OSPIM_Config+0x2b4>)
 8002adc:	f897 2045 	ldrb.w	r2, [r7, #69]	; 0x45
 8002ae0:	4613      	mov	r3, r2
 8002ae2:	005b      	lsls	r3, r3, #1
 8002ae4:	4413      	add	r3, r2
 8002ae6:	00db      	lsls	r3, r3, #3
 8002ae8:	f107 0250 	add.w	r2, r7, #80	; 0x50
 8002aec:	4413      	add	r3, r2
 8002aee:	3b2c      	subs	r3, #44	; 0x2c
 8002af0:	681b      	ldr	r3, [r3, #0]
 8002af2:	3b01      	subs	r3, #1
 8002af4:	f003 0301 	and.w	r3, r3, #1
 8002af8:	009b      	lsls	r3, r3, #2
 8002afa:	440b      	add	r3, r1
 8002afc:	6859      	ldr	r1, [r3, #4]
 8002afe:	480c      	ldr	r0, [pc, #48]	; (8002b30 <HAL_OSPIM_Config+0x2b4>)
 8002b00:	f897 2045 	ldrb.w	r2, [r7, #69]	; 0x45
 8002b04:	4613      	mov	r3, r2
 8002b06:	005b      	lsls	r3, r3, #1
 8002b08:	4413      	add	r3, r2
 8002b0a:	00db      	lsls	r3, r3, #3
 8002b0c:	f107 0250 	add.w	r2, r7, #80	; 0x50
 8002b10:	4413      	add	r3, r2
 8002b12:	3b2c      	subs	r3, #44	; 0x2c
 8002b14:	681b      	ldr	r3, [r3, #0]
 8002b16:	3b01      	subs	r3, #1
 8002b18:	f003 0301 	and.w	r3, r3, #1
 8002b1c:	f041 6280 	orr.w	r2, r1, #67108864	; 0x4000000
 8002b20:	009b      	lsls	r3, r3, #2
 8002b22:	4403      	add	r3, r0
 8002b24:	605a      	str	r2, [r3, #4]
 8002b26:	e0be      	b.n	8002ca6 <HAL_OSPIM_Config+0x42a>
 8002b28:	52005000 	.word	0x52005000
 8002b2c:	5200a000 	.word	0x5200a000
 8002b30:	5200b400 	.word	0x5200b400
        }
      }
    }
    else
    {
      if (IOM_cfg[instance].ClkPort != 0U)
 8002b34:	6cba      	ldr	r2, [r7, #72]	; 0x48
 8002b36:	4613      	mov	r3, r2
 8002b38:	005b      	lsls	r3, r3, #1
 8002b3a:	4413      	add	r3, r2
 8002b3c:	00db      	lsls	r3, r3, #3
 8002b3e:	f107 0250 	add.w	r2, r7, #80	; 0x50
 8002b42:	4413      	add	r3, r2
 8002b44:	3b3c      	subs	r3, #60	; 0x3c
 8002b46:	681b      	ldr	r3, [r3, #0]
 8002b48:	2b00      	cmp	r3, #0
 8002b4a:	f000 80ac 	beq.w	8002ca6 <HAL_OSPIM_Config+0x42a>
      {
        CLEAR_BIT(OCTOSPIM->PCR[(IOM_cfg[instance].ClkPort-1U)], OCTOSPIM_PCR_CLKEN);
 8002b4e:	499d      	ldr	r1, [pc, #628]	; (8002dc4 <HAL_OSPIM_Config+0x548>)
 8002b50:	6cba      	ldr	r2, [r7, #72]	; 0x48
 8002b52:	4613      	mov	r3, r2
 8002b54:	005b      	lsls	r3, r3, #1
 8002b56:	4413      	add	r3, r2
 8002b58:	00db      	lsls	r3, r3, #3
 8002b5a:	f107 0250 	add.w	r2, r7, #80	; 0x50
 8002b5e:	4413      	add	r3, r2
 8002b60:	3b3c      	subs	r3, #60	; 0x3c
 8002b62:	681b      	ldr	r3, [r3, #0]
 8002b64:	3b01      	subs	r3, #1
 8002b66:	009b      	lsls	r3, r3, #2
 8002b68:	440b      	add	r3, r1
 8002b6a:	6859      	ldr	r1, [r3, #4]
 8002b6c:	4895      	ldr	r0, [pc, #596]	; (8002dc4 <HAL_OSPIM_Config+0x548>)
 8002b6e:	6cba      	ldr	r2, [r7, #72]	; 0x48
 8002b70:	4613      	mov	r3, r2
 8002b72:	005b      	lsls	r3, r3, #1
 8002b74:	4413      	add	r3, r2
 8002b76:	00db      	lsls	r3, r3, #3
 8002b78:	f107 0250 	add.w	r2, r7, #80	; 0x50
 8002b7c:	4413      	add	r3, r2
 8002b7e:	3b3c      	subs	r3, #60	; 0x3c
 8002b80:	681b      	ldr	r3, [r3, #0]
 8002b82:	3b01      	subs	r3, #1
 8002b84:	f021 0201 	bic.w	r2, r1, #1
 8002b88:	009b      	lsls	r3, r3, #2
 8002b8a:	4403      	add	r3, r0
 8002b8c:	605a      	str	r2, [r3, #4]
        if (IOM_cfg[instance].DQSPort != 0U)
 8002b8e:	6cba      	ldr	r2, [r7, #72]	; 0x48
 8002b90:	4613      	mov	r3, r2
 8002b92:	005b      	lsls	r3, r3, #1
 8002b94:	4413      	add	r3, r2
 8002b96:	00db      	lsls	r3, r3, #3
 8002b98:	f107 0250 	add.w	r2, r7, #80	; 0x50
 8002b9c:	4413      	add	r3, r2
 8002b9e:	3b38      	subs	r3, #56	; 0x38
 8002ba0:	681b      	ldr	r3, [r3, #0]
 8002ba2:	2b00      	cmp	r3, #0
 8002ba4:	d01f      	beq.n	8002be6 <HAL_OSPIM_Config+0x36a>
        {
          CLEAR_BIT(OCTOSPIM->PCR[(IOM_cfg[instance].DQSPort-1U)], OCTOSPIM_PCR_DQSEN);
 8002ba6:	4987      	ldr	r1, [pc, #540]	; (8002dc4 <HAL_OSPIM_Config+0x548>)
 8002ba8:	6cba      	ldr	r2, [r7, #72]	; 0x48
 8002baa:	4613      	mov	r3, r2
 8002bac:	005b      	lsls	r3, r3, #1
 8002bae:	4413      	add	r3, r2
 8002bb0:	00db      	lsls	r3, r3, #3
 8002bb2:	f107 0250 	add.w	r2, r7, #80	; 0x50
 8002bb6:	4413      	add	r3, r2
 8002bb8:	3b38      	subs	r3, #56	; 0x38
 8002bba:	681b      	ldr	r3, [r3, #0]
 8002bbc:	3b01      	subs	r3, #1
 8002bbe:	009b      	lsls	r3, r3, #2
 8002bc0:	440b      	add	r3, r1
 8002bc2:	6859      	ldr	r1, [r3, #4]
 8002bc4:	487f      	ldr	r0, [pc, #508]	; (8002dc4 <HAL_OSPIM_Config+0x548>)
 8002bc6:	6cba      	ldr	r2, [r7, #72]	; 0x48
 8002bc8:	4613      	mov	r3, r2
 8002bca:	005b      	lsls	r3, r3, #1
 8002bcc:	4413      	add	r3, r2
 8002bce:	00db      	lsls	r3, r3, #3
 8002bd0:	f107 0250 	add.w	r2, r7, #80	; 0x50
 8002bd4:	4413      	add	r3, r2
 8002bd6:	3b38      	subs	r3, #56	; 0x38
 8002bd8:	681b      	ldr	r3, [r3, #0]
 8002bda:	3b01      	subs	r3, #1
 8002bdc:	f021 0210 	bic.w	r2, r1, #16
 8002be0:	009b      	lsls	r3, r3, #2
 8002be2:	4403      	add	r3, r0
 8002be4:	605a      	str	r2, [r3, #4]
        }
        if (IOM_cfg[instance].IOLowPort != HAL_OSPIM_IOPORT_NONE)
 8002be6:	6cba      	ldr	r2, [r7, #72]	; 0x48
 8002be8:	4613      	mov	r3, r2
 8002bea:	005b      	lsls	r3, r3, #1
 8002bec:	4413      	add	r3, r2
 8002bee:	00db      	lsls	r3, r3, #3
 8002bf0:	f107 0250 	add.w	r2, r7, #80	; 0x50
 8002bf4:	4413      	add	r3, r2
 8002bf6:	3b30      	subs	r3, #48	; 0x30
 8002bf8:	681b      	ldr	r3, [r3, #0]
 8002bfa:	2b00      	cmp	r3, #0
 8002bfc:	d023      	beq.n	8002c46 <HAL_OSPIM_Config+0x3ca>
        {
          CLEAR_BIT(OCTOSPIM->PCR[((IOM_cfg[instance].IOLowPort-1U)& OSPI_IOM_PORT_MASK)], OCTOSPIM_PCR_IOLEN);
 8002bfe:	4971      	ldr	r1, [pc, #452]	; (8002dc4 <HAL_OSPIM_Config+0x548>)
 8002c00:	6cba      	ldr	r2, [r7, #72]	; 0x48
 8002c02:	4613      	mov	r3, r2
 8002c04:	005b      	lsls	r3, r3, #1
 8002c06:	4413      	add	r3, r2
 8002c08:	00db      	lsls	r3, r3, #3
 8002c0a:	f107 0250 	add.w	r2, r7, #80	; 0x50
 8002c0e:	4413      	add	r3, r2
 8002c10:	3b30      	subs	r3, #48	; 0x30
 8002c12:	681b      	ldr	r3, [r3, #0]
 8002c14:	3b01      	subs	r3, #1
 8002c16:	f003 0301 	and.w	r3, r3, #1
 8002c1a:	009b      	lsls	r3, r3, #2
 8002c1c:	440b      	add	r3, r1
 8002c1e:	6859      	ldr	r1, [r3, #4]
 8002c20:	4868      	ldr	r0, [pc, #416]	; (8002dc4 <HAL_OSPIM_Config+0x548>)
 8002c22:	6cba      	ldr	r2, [r7, #72]	; 0x48
 8002c24:	4613      	mov	r3, r2
 8002c26:	005b      	lsls	r3, r3, #1
 8002c28:	4413      	add	r3, r2
 8002c2a:	00db      	lsls	r3, r3, #3
 8002c2c:	f107 0250 	add.w	r2, r7, #80	; 0x50
 8002c30:	4413      	add	r3, r2
 8002c32:	3b30      	subs	r3, #48	; 0x30
 8002c34:	681b      	ldr	r3, [r3, #0]
 8002c36:	3b01      	subs	r3, #1
 8002c38:	f003 0301 	and.w	r3, r3, #1
 8002c3c:	f421 3280 	bic.w	r2, r1, #65536	; 0x10000
 8002c40:	009b      	lsls	r3, r3, #2
 8002c42:	4403      	add	r3, r0
 8002c44:	605a      	str	r2, [r3, #4]
        }
        if (IOM_cfg[instance].IOHighPort != HAL_OSPIM_IOPORT_NONE)
 8002c46:	6cba      	ldr	r2, [r7, #72]	; 0x48
 8002c48:	4613      	mov	r3, r2
 8002c4a:	005b      	lsls	r3, r3, #1
 8002c4c:	4413      	add	r3, r2
 8002c4e:	00db      	lsls	r3, r3, #3
 8002c50:	f107 0250 	add.w	r2, r7, #80	; 0x50
 8002c54:	4413      	add	r3, r2
 8002c56:	3b2c      	subs	r3, #44	; 0x2c
 8002c58:	681b      	ldr	r3, [r3, #0]
 8002c5a:	2b00      	cmp	r3, #0
 8002c5c:	d023      	beq.n	8002ca6 <HAL_OSPIM_Config+0x42a>
        {
          CLEAR_BIT(OCTOSPIM->PCR[((IOM_cfg[instance].IOHighPort-1U)& OSPI_IOM_PORT_MASK)], OCTOSPIM_PCR_IOHEN);
 8002c5e:	4959      	ldr	r1, [pc, #356]	; (8002dc4 <HAL_OSPIM_Config+0x548>)
 8002c60:	6cba      	ldr	r2, [r7, #72]	; 0x48
 8002c62:	4613      	mov	r3, r2
 8002c64:	005b      	lsls	r3, r3, #1
 8002c66:	4413      	add	r3, r2
 8002c68:	00db      	lsls	r3, r3, #3
 8002c6a:	f107 0250 	add.w	r2, r7, #80	; 0x50
 8002c6e:	4413      	add	r3, r2
 8002c70:	3b2c      	subs	r3, #44	; 0x2c
 8002c72:	681b      	ldr	r3, [r3, #0]
 8002c74:	3b01      	subs	r3, #1
 8002c76:	f003 0301 	and.w	r3, r3, #1
 8002c7a:	009b      	lsls	r3, r3, #2
 8002c7c:	440b      	add	r3, r1
 8002c7e:	6859      	ldr	r1, [r3, #4]
 8002c80:	4850      	ldr	r0, [pc, #320]	; (8002dc4 <HAL_OSPIM_Config+0x548>)
 8002c82:	6cba      	ldr	r2, [r7, #72]	; 0x48
 8002c84:	4613      	mov	r3, r2
 8002c86:	005b      	lsls	r3, r3, #1
 8002c88:	4413      	add	r3, r2
 8002c8a:	00db      	lsls	r3, r3, #3
 8002c8c:	f107 0250 	add.w	r2, r7, #80	; 0x50
 8002c90:	4413      	add	r3, r2
 8002c92:	3b2c      	subs	r3, #44	; 0x2c
 8002c94:	681b      	ldr	r3, [r3, #0]
 8002c96:	3b01      	subs	r3, #1
 8002c98:	f003 0301 	and.w	r3, r3, #1
 8002c9c:	f021 7280 	bic.w	r2, r1, #16777216	; 0x1000000
 8002ca0:	009b      	lsls	r3, r3, #2
 8002ca2:	4403      	add	r3, r0
 8002ca4:	605a      	str	r2, [r3, #4]
        }
      }
    }

    /********************* Deactivation of other instance *********************/
    if ((cfg->ClkPort == IOM_cfg[other_instance].ClkPort) || (cfg->DQSPort == IOM_cfg[other_instance].DQSPort)     ||
 8002ca6:	68bb      	ldr	r3, [r7, #8]
 8002ca8:	6819      	ldr	r1, [r3, #0]
 8002caa:	f897 2045 	ldrb.w	r2, [r7, #69]	; 0x45
 8002cae:	4613      	mov	r3, r2
 8002cb0:	005b      	lsls	r3, r3, #1
 8002cb2:	4413      	add	r3, r2
 8002cb4:	00db      	lsls	r3, r3, #3
 8002cb6:	f107 0250 	add.w	r2, r7, #80	; 0x50
 8002cba:	4413      	add	r3, r2
 8002cbc:	3b3c      	subs	r3, #60	; 0x3c
 8002cbe:	681b      	ldr	r3, [r3, #0]
 8002cc0:	4299      	cmp	r1, r3
 8002cc2:	d03c      	beq.n	8002d3e <HAL_OSPIM_Config+0x4c2>
 8002cc4:	68bb      	ldr	r3, [r7, #8]
 8002cc6:	6859      	ldr	r1, [r3, #4]
 8002cc8:	f897 2045 	ldrb.w	r2, [r7, #69]	; 0x45
 8002ccc:	4613      	mov	r3, r2
 8002cce:	005b      	lsls	r3, r3, #1
 8002cd0:	4413      	add	r3, r2
 8002cd2:	00db      	lsls	r3, r3, #3
 8002cd4:	f107 0250 	add.w	r2, r7, #80	; 0x50
 8002cd8:	4413      	add	r3, r2
 8002cda:	3b38      	subs	r3, #56	; 0x38
 8002cdc:	681b      	ldr	r3, [r3, #0]
 8002cde:	4299      	cmp	r1, r3
 8002ce0:	d02d      	beq.n	8002d3e <HAL_OSPIM_Config+0x4c2>
        (cfg->NCSPort == IOM_cfg[other_instance].NCSPort) || (cfg->IOLowPort == IOM_cfg[other_instance].IOLowPort) ||
 8002ce2:	68bb      	ldr	r3, [r7, #8]
 8002ce4:	6899      	ldr	r1, [r3, #8]
 8002ce6:	f897 2045 	ldrb.w	r2, [r7, #69]	; 0x45
 8002cea:	4613      	mov	r3, r2
 8002cec:	005b      	lsls	r3, r3, #1
 8002cee:	4413      	add	r3, r2
 8002cf0:	00db      	lsls	r3, r3, #3
 8002cf2:	f107 0250 	add.w	r2, r7, #80	; 0x50
 8002cf6:	4413      	add	r3, r2
 8002cf8:	3b34      	subs	r3, #52	; 0x34
 8002cfa:	681b      	ldr	r3, [r3, #0]
    if ((cfg->ClkPort == IOM_cfg[other_instance].ClkPort) || (cfg->DQSPort == IOM_cfg[other_instance].DQSPort)     ||
 8002cfc:	4299      	cmp	r1, r3
 8002cfe:	d01e      	beq.n	8002d3e <HAL_OSPIM_Config+0x4c2>
        (cfg->NCSPort == IOM_cfg[other_instance].NCSPort) || (cfg->IOLowPort == IOM_cfg[other_instance].IOLowPort) ||
 8002d00:	68bb      	ldr	r3, [r7, #8]
 8002d02:	68d9      	ldr	r1, [r3, #12]
 8002d04:	f897 2045 	ldrb.w	r2, [r7, #69]	; 0x45
 8002d08:	4613      	mov	r3, r2
 8002d0a:	005b      	lsls	r3, r3, #1
 8002d0c:	4413      	add	r3, r2
 8002d0e:	00db      	lsls	r3, r3, #3
 8002d10:	f107 0250 	add.w	r2, r7, #80	; 0x50
 8002d14:	4413      	add	r3, r2
 8002d16:	3b30      	subs	r3, #48	; 0x30
 8002d18:	681b      	ldr	r3, [r3, #0]
 8002d1a:	4299      	cmp	r1, r3
 8002d1c:	d00f      	beq.n	8002d3e <HAL_OSPIM_Config+0x4c2>
        (cfg->IOHighPort == IOM_cfg[other_instance].IOHighPort))
 8002d1e:	68bb      	ldr	r3, [r7, #8]
 8002d20:	6919      	ldr	r1, [r3, #16]
 8002d22:	f897 2045 	ldrb.w	r2, [r7, #69]	; 0x45
 8002d26:	4613      	mov	r3, r2
 8002d28:	005b      	lsls	r3, r3, #1
 8002d2a:	4413      	add	r3, r2
 8002d2c:	00db      	lsls	r3, r3, #3
 8002d2e:	f107 0250 	add.w	r2, r7, #80	; 0x50
 8002d32:	4413      	add	r3, r2
 8002d34:	3b2c      	subs	r3, #44	; 0x2c
 8002d36:	681b      	ldr	r3, [r3, #0]
        (cfg->NCSPort == IOM_cfg[other_instance].NCSPort) || (cfg->IOLowPort == IOM_cfg[other_instance].IOLowPort) ||
 8002d38:	4299      	cmp	r1, r3
 8002d3a:	f040 811e 	bne.w	8002f7a <HAL_OSPIM_Config+0x6fe>
    {
      if ((cfg->ClkPort   == IOM_cfg[other_instance].ClkPort)   &&
 8002d3e:	68bb      	ldr	r3, [r7, #8]
 8002d40:	6819      	ldr	r1, [r3, #0]
 8002d42:	f897 2045 	ldrb.w	r2, [r7, #69]	; 0x45
 8002d46:	4613      	mov	r3, r2
 8002d48:	005b      	lsls	r3, r3, #1
 8002d4a:	4413      	add	r3, r2
 8002d4c:	00db      	lsls	r3, r3, #3
 8002d4e:	f107 0250 	add.w	r2, r7, #80	; 0x50
 8002d52:	4413      	add	r3, r2
 8002d54:	3b3c      	subs	r3, #60	; 0x3c
 8002d56:	681b      	ldr	r3, [r3, #0]
 8002d58:	4299      	cmp	r1, r3
 8002d5a:	d135      	bne.n	8002dc8 <HAL_OSPIM_Config+0x54c>
          (cfg->DQSPort    == IOM_cfg[other_instance].DQSPort)  &&
 8002d5c:	68bb      	ldr	r3, [r7, #8]
 8002d5e:	6859      	ldr	r1, [r3, #4]
 8002d60:	f897 2045 	ldrb.w	r2, [r7, #69]	; 0x45
 8002d64:	4613      	mov	r3, r2
 8002d66:	005b      	lsls	r3, r3, #1
 8002d68:	4413      	add	r3, r2
 8002d6a:	00db      	lsls	r3, r3, #3
 8002d6c:	f107 0250 	add.w	r2, r7, #80	; 0x50
 8002d70:	4413      	add	r3, r2
 8002d72:	3b38      	subs	r3, #56	; 0x38
 8002d74:	681b      	ldr	r3, [r3, #0]
      if ((cfg->ClkPort   == IOM_cfg[other_instance].ClkPort)   &&
 8002d76:	4299      	cmp	r1, r3
 8002d78:	d126      	bne.n	8002dc8 <HAL_OSPIM_Config+0x54c>
          (cfg->IOLowPort == IOM_cfg[other_instance].IOLowPort) &&
 8002d7a:	68bb      	ldr	r3, [r7, #8]
 8002d7c:	68d9      	ldr	r1, [r3, #12]
 8002d7e:	f897 2045 	ldrb.w	r2, [r7, #69]	; 0x45
 8002d82:	4613      	mov	r3, r2
 8002d84:	005b      	lsls	r3, r3, #1
 8002d86:	4413      	add	r3, r2
 8002d88:	00db      	lsls	r3, r3, #3
 8002d8a:	f107 0250 	add.w	r2, r7, #80	; 0x50
 8002d8e:	4413      	add	r3, r2
 8002d90:	3b30      	subs	r3, #48	; 0x30
 8002d92:	681b      	ldr	r3, [r3, #0]
          (cfg->DQSPort    == IOM_cfg[other_instance].DQSPort)  &&
 8002d94:	4299      	cmp	r1, r3
 8002d96:	d117      	bne.n	8002dc8 <HAL_OSPIM_Config+0x54c>
          (cfg->IOHighPort == IOM_cfg[other_instance].IOHighPort))
 8002d98:	68bb      	ldr	r3, [r7, #8]
 8002d9a:	6919      	ldr	r1, [r3, #16]
 8002d9c:	f897 2045 	ldrb.w	r2, [r7, #69]	; 0x45
 8002da0:	4613      	mov	r3, r2
 8002da2:	005b      	lsls	r3, r3, #1
 8002da4:	4413      	add	r3, r2
 8002da6:	00db      	lsls	r3, r3, #3
 8002da8:	f107 0250 	add.w	r2, r7, #80	; 0x50
 8002dac:	4413      	add	r3, r2
 8002dae:	3b2c      	subs	r3, #44	; 0x2c
 8002db0:	681b      	ldr	r3, [r3, #0]
          (cfg->IOLowPort == IOM_cfg[other_instance].IOLowPort) &&
 8002db2:	4299      	cmp	r1, r3
 8002db4:	d108      	bne.n	8002dc8 <HAL_OSPIM_Config+0x54c>
      {
        /* Multiplexing should be performed */
        SET_BIT(OCTOSPIM->CR, OCTOSPIM_CR_MUXEN);
 8002db6:	4b03      	ldr	r3, [pc, #12]	; (8002dc4 <HAL_OSPIM_Config+0x548>)
 8002db8:	681b      	ldr	r3, [r3, #0]
 8002dba:	4a02      	ldr	r2, [pc, #8]	; (8002dc4 <HAL_OSPIM_Config+0x548>)
 8002dbc:	f043 0301 	orr.w	r3, r3, #1
 8002dc0:	6013      	str	r3, [r2, #0]
 8002dc2:	e0da      	b.n	8002f7a <HAL_OSPIM_Config+0x6fe>
 8002dc4:	5200b400 	.word	0x5200b400
      }
      else
      {
        CLEAR_BIT(OCTOSPIM->PCR[(IOM_cfg[other_instance].ClkPort-1U)], OCTOSPIM_PCR_CLKEN);
 8002dc8:	49c2      	ldr	r1, [pc, #776]	; (80030d4 <HAL_OSPIM_Config+0x858>)
 8002dca:	f897 2045 	ldrb.w	r2, [r7, #69]	; 0x45
 8002dce:	4613      	mov	r3, r2
 8002dd0:	005b      	lsls	r3, r3, #1
 8002dd2:	4413      	add	r3, r2
 8002dd4:	00db      	lsls	r3, r3, #3
 8002dd6:	f107 0250 	add.w	r2, r7, #80	; 0x50
 8002dda:	4413      	add	r3, r2
 8002ddc:	3b3c      	subs	r3, #60	; 0x3c
 8002dde:	681b      	ldr	r3, [r3, #0]
 8002de0:	3b01      	subs	r3, #1
 8002de2:	009b      	lsls	r3, r3, #2
 8002de4:	440b      	add	r3, r1
 8002de6:	6859      	ldr	r1, [r3, #4]
 8002de8:	48ba      	ldr	r0, [pc, #744]	; (80030d4 <HAL_OSPIM_Config+0x858>)
 8002dea:	f897 2045 	ldrb.w	r2, [r7, #69]	; 0x45
 8002dee:	4613      	mov	r3, r2
 8002df0:	005b      	lsls	r3, r3, #1
 8002df2:	4413      	add	r3, r2
 8002df4:	00db      	lsls	r3, r3, #3
 8002df6:	f107 0250 	add.w	r2, r7, #80	; 0x50
 8002dfa:	4413      	add	r3, r2
 8002dfc:	3b3c      	subs	r3, #60	; 0x3c
 8002dfe:	681b      	ldr	r3, [r3, #0]
 8002e00:	3b01      	subs	r3, #1
 8002e02:	f021 0201 	bic.w	r2, r1, #1
 8002e06:	009b      	lsls	r3, r3, #2
 8002e08:	4403      	add	r3, r0
 8002e0a:	605a      	str	r2, [r3, #4]
        if (IOM_cfg[other_instance].DQSPort != 0U)
 8002e0c:	f897 2045 	ldrb.w	r2, [r7, #69]	; 0x45
 8002e10:	4613      	mov	r3, r2
 8002e12:	005b      	lsls	r3, r3, #1
 8002e14:	4413      	add	r3, r2
 8002e16:	00db      	lsls	r3, r3, #3
 8002e18:	f107 0250 	add.w	r2, r7, #80	; 0x50
 8002e1c:	4413      	add	r3, r2
 8002e1e:	3b38      	subs	r3, #56	; 0x38
 8002e20:	681b      	ldr	r3, [r3, #0]
 8002e22:	2b00      	cmp	r3, #0
 8002e24:	d021      	beq.n	8002e6a <HAL_OSPIM_Config+0x5ee>
        {
          CLEAR_BIT(OCTOSPIM->PCR[(IOM_cfg[other_instance].DQSPort-1U)], OCTOSPIM_PCR_DQSEN);
 8002e26:	49ab      	ldr	r1, [pc, #684]	; (80030d4 <HAL_OSPIM_Config+0x858>)
 8002e28:	f897 2045 	ldrb.w	r2, [r7, #69]	; 0x45
 8002e2c:	4613      	mov	r3, r2
 8002e2e:	005b      	lsls	r3, r3, #1
 8002e30:	4413      	add	r3, r2
 8002e32:	00db      	lsls	r3, r3, #3
 8002e34:	f107 0250 	add.w	r2, r7, #80	; 0x50
 8002e38:	4413      	add	r3, r2
 8002e3a:	3b38      	subs	r3, #56	; 0x38
 8002e3c:	681b      	ldr	r3, [r3, #0]
 8002e3e:	3b01      	subs	r3, #1
 8002e40:	009b      	lsls	r3, r3, #2
 8002e42:	440b      	add	r3, r1
 8002e44:	6859      	ldr	r1, [r3, #4]
 8002e46:	48a3      	ldr	r0, [pc, #652]	; (80030d4 <HAL_OSPIM_Config+0x858>)
 8002e48:	f897 2045 	ldrb.w	r2, [r7, #69]	; 0x45
 8002e4c:	4613      	mov	r3, r2
 8002e4e:	005b      	lsls	r3, r3, #1
 8002e50:	4413      	add	r3, r2
 8002e52:	00db      	lsls	r3, r3, #3
 8002e54:	f107 0250 	add.w	r2, r7, #80	; 0x50
 8002e58:	4413      	add	r3, r2
 8002e5a:	3b38      	subs	r3, #56	; 0x38
 8002e5c:	681b      	ldr	r3, [r3, #0]
 8002e5e:	3b01      	subs	r3, #1
 8002e60:	f021 0210 	bic.w	r2, r1, #16
 8002e64:	009b      	lsls	r3, r3, #2
 8002e66:	4403      	add	r3, r0
 8002e68:	605a      	str	r2, [r3, #4]
        }
        CLEAR_BIT(OCTOSPIM->PCR[(IOM_cfg[other_instance].NCSPort-1U)], OCTOSPIM_PCR_NCSEN);
 8002e6a:	499a      	ldr	r1, [pc, #616]	; (80030d4 <HAL_OSPIM_Config+0x858>)
 8002e6c:	f897 2045 	ldrb.w	r2, [r7, #69]	; 0x45
 8002e70:	4613      	mov	r3, r2
 8002e72:	005b      	lsls	r3, r3, #1
 8002e74:	4413      	add	r3, r2
 8002e76:	00db      	lsls	r3, r3, #3
 8002e78:	f107 0250 	add.w	r2, r7, #80	; 0x50
 8002e7c:	4413      	add	r3, r2
 8002e7e:	3b34      	subs	r3, #52	; 0x34
 8002e80:	681b      	ldr	r3, [r3, #0]
 8002e82:	3b01      	subs	r3, #1
 8002e84:	009b      	lsls	r3, r3, #2
 8002e86:	440b      	add	r3, r1
 8002e88:	6859      	ldr	r1, [r3, #4]
 8002e8a:	4892      	ldr	r0, [pc, #584]	; (80030d4 <HAL_OSPIM_Config+0x858>)
 8002e8c:	f897 2045 	ldrb.w	r2, [r7, #69]	; 0x45
 8002e90:	4613      	mov	r3, r2
 8002e92:	005b      	lsls	r3, r3, #1
 8002e94:	4413      	add	r3, r2
 8002e96:	00db      	lsls	r3, r3, #3
 8002e98:	f107 0250 	add.w	r2, r7, #80	; 0x50
 8002e9c:	4413      	add	r3, r2
 8002e9e:	3b34      	subs	r3, #52	; 0x34
 8002ea0:	681b      	ldr	r3, [r3, #0]
 8002ea2:	3b01      	subs	r3, #1
 8002ea4:	f421 7280 	bic.w	r2, r1, #256	; 0x100
 8002ea8:	009b      	lsls	r3, r3, #2
 8002eaa:	4403      	add	r3, r0
 8002eac:	605a      	str	r2, [r3, #4]
        if (IOM_cfg[other_instance].IOLowPort != HAL_OSPIM_IOPORT_NONE)
 8002eae:	f897 2045 	ldrb.w	r2, [r7, #69]	; 0x45
 8002eb2:	4613      	mov	r3, r2
 8002eb4:	005b      	lsls	r3, r3, #1
 8002eb6:	4413      	add	r3, r2
 8002eb8:	00db      	lsls	r3, r3, #3
 8002eba:	f107 0250 	add.w	r2, r7, #80	; 0x50
 8002ebe:	4413      	add	r3, r2
 8002ec0:	3b30      	subs	r3, #48	; 0x30
 8002ec2:	681b      	ldr	r3, [r3, #0]
 8002ec4:	2b00      	cmp	r3, #0
 8002ec6:	d025      	beq.n	8002f14 <HAL_OSPIM_Config+0x698>
        {
          CLEAR_BIT(OCTOSPIM->PCR[((IOM_cfg[other_instance].IOLowPort-1U)& OSPI_IOM_PORT_MASK)],
 8002ec8:	4982      	ldr	r1, [pc, #520]	; (80030d4 <HAL_OSPIM_Config+0x858>)
 8002eca:	f897 2045 	ldrb.w	r2, [r7, #69]	; 0x45
 8002ece:	4613      	mov	r3, r2
 8002ed0:	005b      	lsls	r3, r3, #1
 8002ed2:	4413      	add	r3, r2
 8002ed4:	00db      	lsls	r3, r3, #3
 8002ed6:	f107 0250 	add.w	r2, r7, #80	; 0x50
 8002eda:	4413      	add	r3, r2
 8002edc:	3b30      	subs	r3, #48	; 0x30
 8002ede:	681b      	ldr	r3, [r3, #0]
 8002ee0:	3b01      	subs	r3, #1
 8002ee2:	f003 0301 	and.w	r3, r3, #1
 8002ee6:	009b      	lsls	r3, r3, #2
 8002ee8:	440b      	add	r3, r1
 8002eea:	6859      	ldr	r1, [r3, #4]
 8002eec:	4879      	ldr	r0, [pc, #484]	; (80030d4 <HAL_OSPIM_Config+0x858>)
 8002eee:	f897 2045 	ldrb.w	r2, [r7, #69]	; 0x45
 8002ef2:	4613      	mov	r3, r2
 8002ef4:	005b      	lsls	r3, r3, #1
 8002ef6:	4413      	add	r3, r2
 8002ef8:	00db      	lsls	r3, r3, #3
 8002efa:	f107 0250 	add.w	r2, r7, #80	; 0x50
 8002efe:	4413      	add	r3, r2
 8002f00:	3b30      	subs	r3, #48	; 0x30
 8002f02:	681b      	ldr	r3, [r3, #0]
 8002f04:	3b01      	subs	r3, #1
 8002f06:	f003 0301 	and.w	r3, r3, #1
 8002f0a:	f421 3280 	bic.w	r2, r1, #65536	; 0x10000
 8002f0e:	009b      	lsls	r3, r3, #2
 8002f10:	4403      	add	r3, r0
 8002f12:	605a      	str	r2, [r3, #4]
                    OCTOSPIM_PCR_IOLEN);
        }
        if (IOM_cfg[other_instance].IOHighPort != HAL_OSPIM_IOPORT_NONE)
 8002f14:	f897 2045 	ldrb.w	r2, [r7, #69]	; 0x45
 8002f18:	4613      	mov	r3, r2
 8002f1a:	005b      	lsls	r3, r3, #1
 8002f1c:	4413      	add	r3, r2
 8002f1e:	00db      	lsls	r3, r3, #3
 8002f20:	f107 0250 	add.w	r2, r7, #80	; 0x50
 8002f24:	4413      	add	r3, r2
 8002f26:	3b2c      	subs	r3, #44	; 0x2c
 8002f28:	681b      	ldr	r3, [r3, #0]
 8002f2a:	2b00      	cmp	r3, #0
 8002f2c:	d025      	beq.n	8002f7a <HAL_OSPIM_Config+0x6fe>
        {
          CLEAR_BIT(OCTOSPIM->PCR[((IOM_cfg[other_instance].IOHighPort-1U)& OSPI_IOM_PORT_MASK)],
 8002f2e:	4969      	ldr	r1, [pc, #420]	; (80030d4 <HAL_OSPIM_Config+0x858>)
 8002f30:	f897 2045 	ldrb.w	r2, [r7, #69]	; 0x45
 8002f34:	4613      	mov	r3, r2
 8002f36:	005b      	lsls	r3, r3, #1
 8002f38:	4413      	add	r3, r2
 8002f3a:	00db      	lsls	r3, r3, #3
 8002f3c:	f107 0250 	add.w	r2, r7, #80	; 0x50
 8002f40:	4413      	add	r3, r2
 8002f42:	3b2c      	subs	r3, #44	; 0x2c
 8002f44:	681b      	ldr	r3, [r3, #0]
 8002f46:	3b01      	subs	r3, #1
 8002f48:	f003 0301 	and.w	r3, r3, #1
 8002f4c:	009b      	lsls	r3, r3, #2
 8002f4e:	440b      	add	r3, r1
 8002f50:	6859      	ldr	r1, [r3, #4]
 8002f52:	4860      	ldr	r0, [pc, #384]	; (80030d4 <HAL_OSPIM_Config+0x858>)
 8002f54:	f897 2045 	ldrb.w	r2, [r7, #69]	; 0x45
 8002f58:	4613      	mov	r3, r2
 8002f5a:	005b      	lsls	r3, r3, #1
 8002f5c:	4413      	add	r3, r2
 8002f5e:	00db      	lsls	r3, r3, #3
 8002f60:	f107 0250 	add.w	r2, r7, #80	; 0x50
 8002f64:	4413      	add	r3, r2
 8002f66:	3b2c      	subs	r3, #44	; 0x2c
 8002f68:	681b      	ldr	r3, [r3, #0]
 8002f6a:	3b01      	subs	r3, #1
 8002f6c:	f003 0301 	and.w	r3, r3, #1
 8002f70:	f021 7280 	bic.w	r2, r1, #16777216	; 0x1000000
 8002f74:	009b      	lsls	r3, r3, #2
 8002f76:	4403      	add	r3, r0
 8002f78:	605a      	str	r2, [r3, #4]
        }
      }
    }

    /******************** Activation of new configuration *********************/
        MODIFY_REG(OCTOSPIM->PCR[(cfg->NCSPort - 1U)], (OCTOSPIM_PCR_NCSEN | OCTOSPIM_PCR_NCSSRC),
 8002f7a:	4a56      	ldr	r2, [pc, #344]	; (80030d4 <HAL_OSPIM_Config+0x858>)
 8002f7c:	68bb      	ldr	r3, [r7, #8]
 8002f7e:	689b      	ldr	r3, [r3, #8]
 8002f80:	3b01      	subs	r3, #1
 8002f82:	009b      	lsls	r3, r3, #2
 8002f84:	4413      	add	r3, r2
 8002f86:	685b      	ldr	r3, [r3, #4]
 8002f88:	f423 7240 	bic.w	r2, r3, #768	; 0x300
 8002f8c:	6cbb      	ldr	r3, [r7, #72]	; 0x48
 8002f8e:	025b      	lsls	r3, r3, #9
 8002f90:	431a      	orrs	r2, r3
 8002f92:	4950      	ldr	r1, [pc, #320]	; (80030d4 <HAL_OSPIM_Config+0x858>)
 8002f94:	68bb      	ldr	r3, [r7, #8]
 8002f96:	689b      	ldr	r3, [r3, #8]
 8002f98:	3b01      	subs	r3, #1
 8002f9a:	f442 7280 	orr.w	r2, r2, #256	; 0x100
 8002f9e:	009b      	lsls	r3, r3, #2
 8002fa0:	440b      	add	r3, r1
 8002fa2:	605a      	str	r2, [r3, #4]
                  (OCTOSPIM_PCR_NCSEN | (instance << OCTOSPIM_PCR_NCSSRC_Pos)));

    if ((cfg->Req2AckTime - 1U) > ((OCTOSPIM->CR & OCTOSPIM_CR_REQ2ACK_TIME) >> OCTOSPIM_CR_REQ2ACK_TIME_Pos))
 8002fa4:	68bb      	ldr	r3, [r7, #8]
 8002fa6:	695b      	ldr	r3, [r3, #20]
 8002fa8:	1e5a      	subs	r2, r3, #1
 8002faa:	4b4a      	ldr	r3, [pc, #296]	; (80030d4 <HAL_OSPIM_Config+0x858>)
 8002fac:	681b      	ldr	r3, [r3, #0]
 8002fae:	0c1b      	lsrs	r3, r3, #16
 8002fb0:	b2db      	uxtb	r3, r3
 8002fb2:	429a      	cmp	r2, r3
 8002fb4:	d90a      	bls.n	8002fcc <HAL_OSPIM_Config+0x750>
    {
      MODIFY_REG(OCTOSPIM->CR, OCTOSPIM_CR_REQ2ACK_TIME, ((cfg->Req2AckTime - 1U) << OCTOSPIM_CR_REQ2ACK_TIME_Pos));
 8002fb6:	4b47      	ldr	r3, [pc, #284]	; (80030d4 <HAL_OSPIM_Config+0x858>)
 8002fb8:	681b      	ldr	r3, [r3, #0]
 8002fba:	f423 027f 	bic.w	r2, r3, #16711680	; 0xff0000
 8002fbe:	68bb      	ldr	r3, [r7, #8]
 8002fc0:	695b      	ldr	r3, [r3, #20]
 8002fc2:	3b01      	subs	r3, #1
 8002fc4:	041b      	lsls	r3, r3, #16
 8002fc6:	4943      	ldr	r1, [pc, #268]	; (80030d4 <HAL_OSPIM_Config+0x858>)
 8002fc8:	4313      	orrs	r3, r2
 8002fca:	600b      	str	r3, [r1, #0]
    }

    if ((OCTOSPIM->CR & OCTOSPIM_CR_MUXEN) != 0U)
 8002fcc:	4b41      	ldr	r3, [pc, #260]	; (80030d4 <HAL_OSPIM_Config+0x858>)
 8002fce:	681b      	ldr	r3, [r3, #0]
 8002fd0:	f003 0301 	and.w	r3, r3, #1
 8002fd4:	2b00      	cmp	r3, #0
 8002fd6:	f000 809b 	beq.w	8003110 <HAL_OSPIM_Config+0x894>
    {
      MODIFY_REG(OCTOSPIM->PCR[(cfg->ClkPort-1U)], (OCTOSPIM_PCR_CLKEN | OCTOSPIM_PCR_CLKSRC), OCTOSPIM_PCR_CLKEN);
 8002fda:	4a3e      	ldr	r2, [pc, #248]	; (80030d4 <HAL_OSPIM_Config+0x858>)
 8002fdc:	68bb      	ldr	r3, [r7, #8]
 8002fde:	681b      	ldr	r3, [r3, #0]
 8002fe0:	3b01      	subs	r3, #1
 8002fe2:	009b      	lsls	r3, r3, #2
 8002fe4:	4413      	add	r3, r2
 8002fe6:	685b      	ldr	r3, [r3, #4]
 8002fe8:	f023 0203 	bic.w	r2, r3, #3
 8002fec:	4939      	ldr	r1, [pc, #228]	; (80030d4 <HAL_OSPIM_Config+0x858>)
 8002fee:	68bb      	ldr	r3, [r7, #8]
 8002ff0:	681b      	ldr	r3, [r3, #0]
 8002ff2:	3b01      	subs	r3, #1
 8002ff4:	f042 0201 	orr.w	r2, r2, #1
 8002ff8:	009b      	lsls	r3, r3, #2
 8002ffa:	440b      	add	r3, r1
 8002ffc:	605a      	str	r2, [r3, #4]
      if (cfg->DQSPort != 0U)
 8002ffe:	68bb      	ldr	r3, [r7, #8]
 8003000:	685b      	ldr	r3, [r3, #4]
 8003002:	2b00      	cmp	r3, #0
 8003004:	d011      	beq.n	800302a <HAL_OSPIM_Config+0x7ae>
      {
        MODIFY_REG(OCTOSPIM->PCR[(cfg->DQSPort-1U)], (OCTOSPIM_PCR_DQSEN | OCTOSPIM_PCR_DQSSRC), OCTOSPIM_PCR_DQSEN);
 8003006:	4a33      	ldr	r2, [pc, #204]	; (80030d4 <HAL_OSPIM_Config+0x858>)
 8003008:	68bb      	ldr	r3, [r7, #8]
 800300a:	685b      	ldr	r3, [r3, #4]
 800300c:	3b01      	subs	r3, #1
 800300e:	009b      	lsls	r3, r3, #2
 8003010:	4413      	add	r3, r2
 8003012:	685b      	ldr	r3, [r3, #4]
 8003014:	f023 0230 	bic.w	r2, r3, #48	; 0x30
 8003018:	492e      	ldr	r1, [pc, #184]	; (80030d4 <HAL_OSPIM_Config+0x858>)
 800301a:	68bb      	ldr	r3, [r7, #8]
 800301c:	685b      	ldr	r3, [r3, #4]
 800301e:	3b01      	subs	r3, #1
 8003020:	f042 0210 	orr.w	r2, r2, #16
 8003024:	009b      	lsls	r3, r3, #2
 8003026:	440b      	add	r3, r1
 8003028:	605a      	str	r2, [r3, #4]
      }

      if ((cfg->IOLowPort & OCTOSPIM_PCR_IOLEN) != 0U)
 800302a:	68bb      	ldr	r3, [r7, #8]
 800302c:	68db      	ldr	r3, [r3, #12]
 800302e:	f403 3380 	and.w	r3, r3, #65536	; 0x10000
 8003032:	2b00      	cmp	r3, #0
 8003034:	d016      	beq.n	8003064 <HAL_OSPIM_Config+0x7e8>
      {
        MODIFY_REG(OCTOSPIM->PCR[((cfg->IOLowPort-1U)& OSPI_IOM_PORT_MASK)],
 8003036:	4a27      	ldr	r2, [pc, #156]	; (80030d4 <HAL_OSPIM_Config+0x858>)
 8003038:	68bb      	ldr	r3, [r7, #8]
 800303a:	68db      	ldr	r3, [r3, #12]
 800303c:	3b01      	subs	r3, #1
 800303e:	f003 0301 	and.w	r3, r3, #1
 8003042:	009b      	lsls	r3, r3, #2
 8003044:	4413      	add	r3, r2
 8003046:	685b      	ldr	r3, [r3, #4]
 8003048:	f423 22e0 	bic.w	r2, r3, #458752	; 0x70000
 800304c:	4921      	ldr	r1, [pc, #132]	; (80030d4 <HAL_OSPIM_Config+0x858>)
 800304e:	68bb      	ldr	r3, [r7, #8]
 8003050:	68db      	ldr	r3, [r3, #12]
 8003052:	3b01      	subs	r3, #1
 8003054:	f003 0301 	and.w	r3, r3, #1
 8003058:	f442 3280 	orr.w	r2, r2, #65536	; 0x10000
 800305c:	009b      	lsls	r3, r3, #2
 800305e:	440b      	add	r3, r1
 8003060:	605a      	str	r2, [r3, #4]
 8003062:	e019      	b.n	8003098 <HAL_OSPIM_Config+0x81c>
                  (OCTOSPIM_PCR_IOLEN | OCTOSPIM_PCR_IOLSRC), OCTOSPIM_PCR_IOLEN);
      }
      else if (cfg->IOLowPort != HAL_OSPIM_IOPORT_NONE)
 8003064:	68bb      	ldr	r3, [r7, #8]
 8003066:	68db      	ldr	r3, [r3, #12]
 8003068:	2b00      	cmp	r3, #0
 800306a:	d015      	beq.n	8003098 <HAL_OSPIM_Config+0x81c>
      {
        MODIFY_REG(OCTOSPIM->PCR[((cfg->IOLowPort-1U)& OSPI_IOM_PORT_MASK)],
 800306c:	4a19      	ldr	r2, [pc, #100]	; (80030d4 <HAL_OSPIM_Config+0x858>)
 800306e:	68bb      	ldr	r3, [r7, #8]
 8003070:	68db      	ldr	r3, [r3, #12]
 8003072:	3b01      	subs	r3, #1
 8003074:	f003 0301 	and.w	r3, r3, #1
 8003078:	009b      	lsls	r3, r3, #2
 800307a:	4413      	add	r3, r2
 800307c:	685b      	ldr	r3, [r3, #4]
 800307e:	f023 62e0 	bic.w	r2, r3, #117440512	; 0x7000000
 8003082:	4914      	ldr	r1, [pc, #80]	; (80030d4 <HAL_OSPIM_Config+0x858>)
 8003084:	68bb      	ldr	r3, [r7, #8]
 8003086:	68db      	ldr	r3, [r3, #12]
 8003088:	3b01      	subs	r3, #1
 800308a:	f003 0301 	and.w	r3, r3, #1
 800308e:	f042 7280 	orr.w	r2, r2, #16777216	; 0x1000000
 8003092:	009b      	lsls	r3, r3, #2
 8003094:	440b      	add	r3, r1
 8003096:	605a      	str	r2, [r3, #4]
      else
      {
         /* Nothing to do */
      }

      if ((cfg->IOHighPort & OCTOSPIM_PCR_IOLEN) != 0U)
 8003098:	68bb      	ldr	r3, [r7, #8]
 800309a:	691b      	ldr	r3, [r3, #16]
 800309c:	f403 3380 	and.w	r3, r3, #65536	; 0x10000
 80030a0:	2b00      	cmp	r3, #0
 80030a2:	d019      	beq.n	80030d8 <HAL_OSPIM_Config+0x85c>
      {
        MODIFY_REG(OCTOSPIM->PCR[((cfg->IOHighPort-1U)& OSPI_IOM_PORT_MASK)],
 80030a4:	4a0b      	ldr	r2, [pc, #44]	; (80030d4 <HAL_OSPIM_Config+0x858>)
 80030a6:	68bb      	ldr	r3, [r7, #8]
 80030a8:	691b      	ldr	r3, [r3, #16]
 80030aa:	3b01      	subs	r3, #1
 80030ac:	f003 0301 	and.w	r3, r3, #1
 80030b0:	009b      	lsls	r3, r3, #2
 80030b2:	4413      	add	r3, r2
 80030b4:	685b      	ldr	r3, [r3, #4]
 80030b6:	f423 22e0 	bic.w	r2, r3, #458752	; 0x70000
 80030ba:	4906      	ldr	r1, [pc, #24]	; (80030d4 <HAL_OSPIM_Config+0x858>)
 80030bc:	68bb      	ldr	r3, [r7, #8]
 80030be:	691b      	ldr	r3, [r3, #16]
 80030c0:	3b01      	subs	r3, #1
 80030c2:	f003 0301 	and.w	r3, r3, #1
 80030c6:	f442 3240 	orr.w	r2, r2, #196608	; 0x30000
 80030ca:	009b      	lsls	r3, r3, #2
 80030cc:	440b      	add	r3, r1
 80030ce:	605a      	str	r2, [r3, #4]
 80030d0:	e0c6      	b.n	8003260 <HAL_OSPIM_Config+0x9e4>
 80030d2:	bf00      	nop
 80030d4:	5200b400 	.word	0x5200b400
                  (OCTOSPIM_PCR_IOLEN | OCTOSPIM_PCR_IOLSRC), (OCTOSPIM_PCR_IOLEN | OCTOSPIM_PCR_IOLSRC_0));
      }
      else if (cfg->IOHighPort != HAL_OSPIM_IOPORT_NONE)
 80030d8:	68bb      	ldr	r3, [r7, #8]
 80030da:	691b      	ldr	r3, [r3, #16]
 80030dc:	2b00      	cmp	r3, #0
 80030de:	f000 80bf 	beq.w	8003260 <HAL_OSPIM_Config+0x9e4>
      {
        MODIFY_REG(OCTOSPIM->PCR[((cfg->IOHighPort-1U)& OSPI_IOM_PORT_MASK)],
 80030e2:	4a6e      	ldr	r2, [pc, #440]	; (800329c <HAL_OSPIM_Config+0xa20>)
 80030e4:	68bb      	ldr	r3, [r7, #8]
 80030e6:	691b      	ldr	r3, [r3, #16]
 80030e8:	3b01      	subs	r3, #1
 80030ea:	f003 0301 	and.w	r3, r3, #1
 80030ee:	009b      	lsls	r3, r3, #2
 80030f0:	4413      	add	r3, r2
 80030f2:	685b      	ldr	r3, [r3, #4]
 80030f4:	f023 62e0 	bic.w	r2, r3, #117440512	; 0x7000000
 80030f8:	4968      	ldr	r1, [pc, #416]	; (800329c <HAL_OSPIM_Config+0xa20>)
 80030fa:	68bb      	ldr	r3, [r7, #8]
 80030fc:	691b      	ldr	r3, [r3, #16]
 80030fe:	3b01      	subs	r3, #1
 8003100:	f003 0301 	and.w	r3, r3, #1
 8003104:	f042 7240 	orr.w	r2, r2, #50331648	; 0x3000000
 8003108:	009b      	lsls	r3, r3, #2
 800310a:	440b      	add	r3, r1
 800310c:	605a      	str	r2, [r3, #4]
 800310e:	e0a7      	b.n	8003260 <HAL_OSPIM_Config+0x9e4>
         /* Nothing to do */
      }
    }
    else
    {
      MODIFY_REG(OCTOSPIM->PCR[(cfg->ClkPort-1U)], (OCTOSPIM_PCR_CLKEN | OCTOSPIM_PCR_CLKSRC),
 8003110:	4a62      	ldr	r2, [pc, #392]	; (800329c <HAL_OSPIM_Config+0xa20>)
 8003112:	68bb      	ldr	r3, [r7, #8]
 8003114:	681b      	ldr	r3, [r3, #0]
 8003116:	3b01      	subs	r3, #1
 8003118:	009b      	lsls	r3, r3, #2
 800311a:	4413      	add	r3, r2
 800311c:	685b      	ldr	r3, [r3, #4]
 800311e:	f023 0203 	bic.w	r2, r3, #3
 8003122:	6cbb      	ldr	r3, [r7, #72]	; 0x48
 8003124:	005b      	lsls	r3, r3, #1
 8003126:	431a      	orrs	r2, r3
 8003128:	495c      	ldr	r1, [pc, #368]	; (800329c <HAL_OSPIM_Config+0xa20>)
 800312a:	68bb      	ldr	r3, [r7, #8]
 800312c:	681b      	ldr	r3, [r3, #0]
 800312e:	3b01      	subs	r3, #1
 8003130:	f042 0201 	orr.w	r2, r2, #1
 8003134:	009b      	lsls	r3, r3, #2
 8003136:	440b      	add	r3, r1
 8003138:	605a      	str	r2, [r3, #4]
                (OCTOSPIM_PCR_CLKEN | (instance << OCTOSPIM_PCR_CLKSRC_Pos)));
      if (cfg->DQSPort != 0U)
 800313a:	68bb      	ldr	r3, [r7, #8]
 800313c:	685b      	ldr	r3, [r3, #4]
 800313e:	2b00      	cmp	r3, #0
 8003140:	d014      	beq.n	800316c <HAL_OSPIM_Config+0x8f0>
      {
        MODIFY_REG(OCTOSPIM->PCR[(cfg->DQSPort-1U)], (OCTOSPIM_PCR_DQSEN | OCTOSPIM_PCR_DQSSRC),
 8003142:	4a56      	ldr	r2, [pc, #344]	; (800329c <HAL_OSPIM_Config+0xa20>)
 8003144:	68bb      	ldr	r3, [r7, #8]
 8003146:	685b      	ldr	r3, [r3, #4]
 8003148:	3b01      	subs	r3, #1
 800314a:	009b      	lsls	r3, r3, #2
 800314c:	4413      	add	r3, r2
 800314e:	685b      	ldr	r3, [r3, #4]
 8003150:	f023 0230 	bic.w	r2, r3, #48	; 0x30
 8003154:	6cbb      	ldr	r3, [r7, #72]	; 0x48
 8003156:	015b      	lsls	r3, r3, #5
 8003158:	431a      	orrs	r2, r3
 800315a:	4950      	ldr	r1, [pc, #320]	; (800329c <HAL_OSPIM_Config+0xa20>)
 800315c:	68bb      	ldr	r3, [r7, #8]
 800315e:	685b      	ldr	r3, [r3, #4]
 8003160:	3b01      	subs	r3, #1
 8003162:	f042 0210 	orr.w	r2, r2, #16
 8003166:	009b      	lsls	r3, r3, #2
 8003168:	440b      	add	r3, r1
 800316a:	605a      	str	r2, [r3, #4]
                  (OCTOSPIM_PCR_DQSEN | (instance << OCTOSPIM_PCR_DQSSRC_Pos)));
      }

      if ((cfg->IOLowPort & OCTOSPIM_PCR_IOLEN) != 0U)
 800316c:	68bb      	ldr	r3, [r7, #8]
 800316e:	68db      	ldr	r3, [r3, #12]
 8003170:	f403 3380 	and.w	r3, r3, #65536	; 0x10000
 8003174:	2b00      	cmp	r3, #0
 8003176:	d019      	beq.n	80031ac <HAL_OSPIM_Config+0x930>
      {
        MODIFY_REG(OCTOSPIM->PCR[((cfg->IOLowPort-1U)& OSPI_IOM_PORT_MASK)],
 8003178:	4a48      	ldr	r2, [pc, #288]	; (800329c <HAL_OSPIM_Config+0xa20>)
 800317a:	68bb      	ldr	r3, [r7, #8]
 800317c:	68db      	ldr	r3, [r3, #12]
 800317e:	3b01      	subs	r3, #1
 8003180:	f003 0301 	and.w	r3, r3, #1
 8003184:	009b      	lsls	r3, r3, #2
 8003186:	4413      	add	r3, r2
 8003188:	685b      	ldr	r3, [r3, #4]
 800318a:	f423 22e0 	bic.w	r2, r3, #458752	; 0x70000
 800318e:	6cbb      	ldr	r3, [r7, #72]	; 0x48
 8003190:	049b      	lsls	r3, r3, #18
 8003192:	431a      	orrs	r2, r3
 8003194:	4941      	ldr	r1, [pc, #260]	; (800329c <HAL_OSPIM_Config+0xa20>)
 8003196:	68bb      	ldr	r3, [r7, #8]
 8003198:	68db      	ldr	r3, [r3, #12]
 800319a:	3b01      	subs	r3, #1
 800319c:	f003 0301 	and.w	r3, r3, #1
 80031a0:	f442 3280 	orr.w	r2, r2, #65536	; 0x10000
 80031a4:	009b      	lsls	r3, r3, #2
 80031a6:	440b      	add	r3, r1
 80031a8:	605a      	str	r2, [r3, #4]
 80031aa:	e01c      	b.n	80031e6 <HAL_OSPIM_Config+0x96a>
                  (OCTOSPIM_PCR_IOLEN | OCTOSPIM_PCR_IOLSRC),
                  (OCTOSPIM_PCR_IOLEN | (instance << (OCTOSPIM_PCR_IOLSRC_Pos+1U))));
      }
      else if (cfg->IOLowPort != HAL_OSPIM_IOPORT_NONE)
 80031ac:	68bb      	ldr	r3, [r7, #8]
 80031ae:	68db      	ldr	r3, [r3, #12]
 80031b0:	2b00      	cmp	r3, #0
 80031b2:	d018      	beq.n	80031e6 <HAL_OSPIM_Config+0x96a>
      {
        MODIFY_REG(OCTOSPIM->PCR[((cfg->IOLowPort-1U)& OSPI_IOM_PORT_MASK)],
 80031b4:	4a39      	ldr	r2, [pc, #228]	; (800329c <HAL_OSPIM_Config+0xa20>)
 80031b6:	68bb      	ldr	r3, [r7, #8]
 80031b8:	68db      	ldr	r3, [r3, #12]
 80031ba:	3b01      	subs	r3, #1
 80031bc:	f003 0301 	and.w	r3, r3, #1
 80031c0:	009b      	lsls	r3, r3, #2
 80031c2:	4413      	add	r3, r2
 80031c4:	685b      	ldr	r3, [r3, #4]
 80031c6:	f023 62e0 	bic.w	r2, r3, #117440512	; 0x7000000
 80031ca:	6cbb      	ldr	r3, [r7, #72]	; 0x48
 80031cc:	069b      	lsls	r3, r3, #26
 80031ce:	431a      	orrs	r2, r3
 80031d0:	4932      	ldr	r1, [pc, #200]	; (800329c <HAL_OSPIM_Config+0xa20>)
 80031d2:	68bb      	ldr	r3, [r7, #8]
 80031d4:	68db      	ldr	r3, [r3, #12]
 80031d6:	3b01      	subs	r3, #1
 80031d8:	f003 0301 	and.w	r3, r3, #1
 80031dc:	f042 7280 	orr.w	r2, r2, #16777216	; 0x1000000
 80031e0:	009b      	lsls	r3, r3, #2
 80031e2:	440b      	add	r3, r1
 80031e4:	605a      	str	r2, [r3, #4]
      else
      {
         /* Nothing to do */
      }

      if ((cfg->IOHighPort & OCTOSPIM_PCR_IOLEN) != 0U)
 80031e6:	68bb      	ldr	r3, [r7, #8]
 80031e8:	691b      	ldr	r3, [r3, #16]
 80031ea:	f403 3380 	and.w	r3, r3, #65536	; 0x10000
 80031ee:	2b00      	cmp	r3, #0
 80031f0:	d019      	beq.n	8003226 <HAL_OSPIM_Config+0x9aa>
      {
        MODIFY_REG(OCTOSPIM->PCR[((cfg->IOHighPort-1U)& OSPI_IOM_PORT_MASK)],
 80031f2:	4a2a      	ldr	r2, [pc, #168]	; (800329c <HAL_OSPIM_Config+0xa20>)
 80031f4:	68bb      	ldr	r3, [r7, #8]
 80031f6:	691b      	ldr	r3, [r3, #16]
 80031f8:	3b01      	subs	r3, #1
 80031fa:	f003 0301 	and.w	r3, r3, #1
 80031fe:	009b      	lsls	r3, r3, #2
 8003200:	4413      	add	r3, r2
 8003202:	685b      	ldr	r3, [r3, #4]
 8003204:	f423 22e0 	bic.w	r2, r3, #458752	; 0x70000
 8003208:	6cbb      	ldr	r3, [r7, #72]	; 0x48
 800320a:	049b      	lsls	r3, r3, #18
 800320c:	431a      	orrs	r2, r3
 800320e:	4923      	ldr	r1, [pc, #140]	; (800329c <HAL_OSPIM_Config+0xa20>)
 8003210:	68bb      	ldr	r3, [r7, #8]
 8003212:	691b      	ldr	r3, [r3, #16]
 8003214:	3b01      	subs	r3, #1
 8003216:	f003 0301 	and.w	r3, r3, #1
 800321a:	f442 3240 	orr.w	r2, r2, #196608	; 0x30000
 800321e:	009b      	lsls	r3, r3, #2
 8003220:	440b      	add	r3, r1
 8003222:	605a      	str	r2, [r3, #4]
 8003224:	e01c      	b.n	8003260 <HAL_OSPIM_Config+0x9e4>
                  (OCTOSPIM_PCR_IOLEN | OCTOSPIM_PCR_IOLSRC),
                  (OCTOSPIM_PCR_IOLEN | OCTOSPIM_PCR_IOLSRC_0 | (instance << (OCTOSPIM_PCR_IOLSRC_Pos+1U))));
      }
      else if (cfg->IOHighPort != HAL_OSPIM_IOPORT_NONE)
 8003226:	68bb      	ldr	r3, [r7, #8]
 8003228:	691b      	ldr	r3, [r3, #16]
 800322a:	2b00      	cmp	r3, #0
 800322c:	d018      	beq.n	8003260 <HAL_OSPIM_Config+0x9e4>
      {
        MODIFY_REG(OCTOSPIM->PCR[((cfg->IOHighPort-1U)& OSPI_IOM_PORT_MASK)],
 800322e:	4a1b      	ldr	r2, [pc, #108]	; (800329c <HAL_OSPIM_Config+0xa20>)
 8003230:	68bb      	ldr	r3, [r7, #8]
 8003232:	691b      	ldr	r3, [r3, #16]
 8003234:	3b01      	subs	r3, #1
 8003236:	f003 0301 	and.w	r3, r3, #1
 800323a:	009b      	lsls	r3, r3, #2
 800323c:	4413      	add	r3, r2
 800323e:	685b      	ldr	r3, [r3, #4]
 8003240:	f023 62e0 	bic.w	r2, r3, #117440512	; 0x7000000
 8003244:	6cbb      	ldr	r3, [r7, #72]	; 0x48
 8003246:	069b      	lsls	r3, r3, #26
 8003248:	431a      	orrs	r2, r3
 800324a:	4914      	ldr	r1, [pc, #80]	; (800329c <HAL_OSPIM_Config+0xa20>)
 800324c:	68bb      	ldr	r3, [r7, #8]
 800324e:	691b      	ldr	r3, [r3, #16]
 8003250:	3b01      	subs	r3, #1
 8003252:	f003 0301 	and.w	r3, r3, #1
 8003256:	f042 7240 	orr.w	r2, r2, #50331648	; 0x3000000
 800325a:	009b      	lsls	r3, r3, #2
 800325c:	440b      	add	r3, r1
 800325e:	605a      	str	r2, [r3, #4]
         /* Nothing to do */
      }
    }

    /******* Re-enable both OctoSPI after configure OctoSPI IO Manager ********/
    if ((ospi_enabled & 0x1U) != 0U)
 8003260:	f897 3046 	ldrb.w	r3, [r7, #70]	; 0x46
 8003264:	f003 0301 	and.w	r3, r3, #1
 8003268:	2b00      	cmp	r3, #0
 800326a:	d005      	beq.n	8003278 <HAL_OSPIM_Config+0x9fc>
    {
      SET_BIT(OCTOSPI1->CR, OCTOSPI_CR_EN);
 800326c:	4b0c      	ldr	r3, [pc, #48]	; (80032a0 <HAL_OSPIM_Config+0xa24>)
 800326e:	681b      	ldr	r3, [r3, #0]
 8003270:	4a0b      	ldr	r2, [pc, #44]	; (80032a0 <HAL_OSPIM_Config+0xa24>)
 8003272:	f043 0301 	orr.w	r3, r3, #1
 8003276:	6013      	str	r3, [r2, #0]
    }
    if ((ospi_enabled & 0x2U) != 0U)
 8003278:	f897 3046 	ldrb.w	r3, [r7, #70]	; 0x46
 800327c:	f003 0302 	and.w	r3, r3, #2
 8003280:	2b00      	cmp	r3, #0
 8003282:	d005      	beq.n	8003290 <HAL_OSPIM_Config+0xa14>
    {
      SET_BIT(OCTOSPI2->CR, OCTOSPI_CR_EN);
 8003284:	4b07      	ldr	r3, [pc, #28]	; (80032a4 <HAL_OSPIM_Config+0xa28>)
 8003286:	681b      	ldr	r3, [r3, #0]
 8003288:	4a06      	ldr	r2, [pc, #24]	; (80032a4 <HAL_OSPIM_Config+0xa28>)
 800328a:	f043 0301 	orr.w	r3, r3, #1
 800328e:	6013      	str	r3, [r2, #0]
    }
  }

  /* Return function status */
  return status;
 8003290:	f897 304f 	ldrb.w	r3, [r7, #79]	; 0x4f
}
 8003294:	4618      	mov	r0, r3
 8003296:	3750      	adds	r7, #80	; 0x50
 8003298:	46bd      	mov	sp, r7
 800329a:	bd80      	pop	{r7, pc}
 800329c:	5200b400 	.word	0x5200b400
 80032a0:	52005000 	.word	0x52005000
 80032a4:	5200a000 	.word	0x5200a000

080032a8 <OSPI_WaitFlagStateUntilTimeout>:
  * @param  Tickstart : Tick start value
  * @retval HAL status
  */
static HAL_StatusTypeDef OSPI_WaitFlagStateUntilTimeout(OSPI_HandleTypeDef *hospi, uint32_t Flag,
                                                        FlagStatus State, uint32_t Tickstart, uint32_t Timeout)
{
 80032a8:	b580      	push	{r7, lr}
 80032aa:	b084      	sub	sp, #16
 80032ac:	af00      	add	r7, sp, #0
 80032ae:	60f8      	str	r0, [r7, #12]
 80032b0:	60b9      	str	r1, [r7, #8]
 80032b2:	603b      	str	r3, [r7, #0]
 80032b4:	4613      	mov	r3, r2
 80032b6:	71fb      	strb	r3, [r7, #7]
  /* Wait until flag is in expected state */
  while((__HAL_OSPI_GET_FLAG(hospi, Flag)) != State)
 80032b8:	e01a      	b.n	80032f0 <OSPI_WaitFlagStateUntilTimeout+0x48>
  {
    /* Check for the Timeout */
    if (Timeout != HAL_MAX_DELAY)
 80032ba:	69bb      	ldr	r3, [r7, #24]
 80032bc:	f1b3 3fff 	cmp.w	r3, #4294967295
 80032c0:	d016      	beq.n	80032f0 <OSPI_WaitFlagStateUntilTimeout+0x48>
    {
      if(((HAL_GetTick() - Tickstart) > Timeout) || (Timeout == 0U))
 80032c2:	f7fe fb09 	bl	80018d8 <HAL_GetTick>
 80032c6:	4602      	mov	r2, r0
 80032c8:	683b      	ldr	r3, [r7, #0]
 80032ca:	1ad3      	subs	r3, r2, r3
 80032cc:	69ba      	ldr	r2, [r7, #24]
 80032ce:	429a      	cmp	r2, r3
 80032d0:	d302      	bcc.n	80032d8 <OSPI_WaitFlagStateUntilTimeout+0x30>
 80032d2:	69bb      	ldr	r3, [r7, #24]
 80032d4:	2b00      	cmp	r3, #0
 80032d6:	d10b      	bne.n	80032f0 <OSPI_WaitFlagStateUntilTimeout+0x48>
      {
        hospi->State     = HAL_OSPI_STATE_ERROR;
 80032d8:	68fb      	ldr	r3, [r7, #12]
 80032da:	f44f 7200 	mov.w	r2, #512	; 0x200
 80032de:	655a      	str	r2, [r3, #84]	; 0x54
        hospi->ErrorCode |= HAL_OSPI_ERROR_TIMEOUT;
 80032e0:	68fb      	ldr	r3, [r7, #12]
 80032e2:	6d9b      	ldr	r3, [r3, #88]	; 0x58
 80032e4:	f043 0201 	orr.w	r2, r3, #1
 80032e8:	68fb      	ldr	r3, [r7, #12]
 80032ea:	659a      	str	r2, [r3, #88]	; 0x58

        return HAL_ERROR;
 80032ec:	2301      	movs	r3, #1
 80032ee:	e00e      	b.n	800330e <OSPI_WaitFlagStateUntilTimeout+0x66>
  while((__HAL_OSPI_GET_FLAG(hospi, Flag)) != State)
 80032f0:	68fb      	ldr	r3, [r7, #12]
 80032f2:	681b      	ldr	r3, [r3, #0]
 80032f4:	6a1a      	ldr	r2, [r3, #32]
 80032f6:	68bb      	ldr	r3, [r7, #8]
 80032f8:	4013      	ands	r3, r2
 80032fa:	2b00      	cmp	r3, #0
 80032fc:	bf14      	ite	ne
 80032fe:	2301      	movne	r3, #1
 8003300:	2300      	moveq	r3, #0
 8003302:	b2db      	uxtb	r3, r3
 8003304:	461a      	mov	r2, r3
 8003306:	79fb      	ldrb	r3, [r7, #7]
 8003308:	429a      	cmp	r2, r3
 800330a:	d1d6      	bne.n	80032ba <OSPI_WaitFlagStateUntilTimeout+0x12>
      }
    }
  }
  return HAL_OK;
 800330c:	2300      	movs	r3, #0
}
 800330e:	4618      	mov	r0, r3
 8003310:	3710      	adds	r7, #16
 8003312:	46bd      	mov	sp, r7
 8003314:	bd80      	pop	{r7, pc}
	...

08003318 <OSPI_ConfigCmd>:
  * @param  hospi : OSPI handle
  * @param  cmd   : structure that contains the command configuration information
  * @retval HAL status
  */
static HAL_StatusTypeDef OSPI_ConfigCmd(OSPI_HandleTypeDef *hospi, OSPI_RegularCmdTypeDef *cmd)
{
 8003318:	b480      	push	{r7}
 800331a:	b089      	sub	sp, #36	; 0x24
 800331c:	af00      	add	r7, sp, #0
 800331e:	6078      	str	r0, [r7, #4]
 8003320:	6039      	str	r1, [r7, #0]
  HAL_StatusTypeDef status = HAL_OK;
 8003322:	2300      	movs	r3, #0
 8003324:	77fb      	strb	r3, [r7, #31]
  __IO uint32_t *tcr_reg;
  __IO uint32_t *ir_reg;
  __IO uint32_t *abr_reg;

  /* Re-initialize the value of the functional mode */
  MODIFY_REG(hospi->Instance->CR, OCTOSPI_CR_FMODE, 0U);
 8003326:	687b      	ldr	r3, [r7, #4]
 8003328:	681b      	ldr	r3, [r3, #0]
 800332a:	681a      	ldr	r2, [r3, #0]
 800332c:	687b      	ldr	r3, [r7, #4]
 800332e:	681b      	ldr	r3, [r3, #0]
 8003330:	f022 5240 	bic.w	r2, r2, #805306368	; 0x30000000
 8003334:	601a      	str	r2, [r3, #0]

  /* Configure the flash ID */
  if (hospi->Init.DualQuad == HAL_OSPI_DUALQUAD_DISABLE)
 8003336:	687b      	ldr	r3, [r7, #4]
 8003338:	689b      	ldr	r3, [r3, #8]
 800333a:	2b00      	cmp	r3, #0
 800333c:	d10a      	bne.n	8003354 <OSPI_ConfigCmd+0x3c>
  {
    MODIFY_REG(hospi->Instance->CR, OCTOSPI_CR_FSEL, cmd->FlashId);
 800333e:	687b      	ldr	r3, [r7, #4]
 8003340:	681b      	ldr	r3, [r3, #0]
 8003342:	681b      	ldr	r3, [r3, #0]
 8003344:	f023 0180 	bic.w	r1, r3, #128	; 0x80
 8003348:	683b      	ldr	r3, [r7, #0]
 800334a:	685a      	ldr	r2, [r3, #4]
 800334c:	687b      	ldr	r3, [r7, #4]
 800334e:	681b      	ldr	r3, [r3, #0]
 8003350:	430a      	orrs	r2, r1
 8003352:	601a      	str	r2, [r3, #0]
  }

  if (cmd->OperationType == HAL_OSPI_OPTYPE_WRITE_CFG)
 8003354:	683b      	ldr	r3, [r7, #0]
 8003356:	681b      	ldr	r3, [r3, #0]
 8003358:	2b02      	cmp	r3, #2
 800335a:	d114      	bne.n	8003386 <OSPI_ConfigCmd+0x6e>
  {
    ccr_reg = &(hospi->Instance->WCCR);
 800335c:	687b      	ldr	r3, [r7, #4]
 800335e:	681b      	ldr	r3, [r3, #0]
 8003360:	f503 73c0 	add.w	r3, r3, #384	; 0x180
 8003364:	61bb      	str	r3, [r7, #24]
    tcr_reg = &(hospi->Instance->WTCR);
 8003366:	687b      	ldr	r3, [r7, #4]
 8003368:	681b      	ldr	r3, [r3, #0]
 800336a:	f503 73c4 	add.w	r3, r3, #392	; 0x188
 800336e:	617b      	str	r3, [r7, #20]
    ir_reg  = &(hospi->Instance->WIR);
 8003370:	687b      	ldr	r3, [r7, #4]
 8003372:	681b      	ldr	r3, [r3, #0]
 8003374:	f503 73c8 	add.w	r3, r3, #400	; 0x190
 8003378:	613b      	str	r3, [r7, #16]
    abr_reg = &(hospi->Instance->WABR);
 800337a:	687b      	ldr	r3, [r7, #4]
 800337c:	681b      	ldr	r3, [r3, #0]
 800337e:	f503 73d0 	add.w	r3, r3, #416	; 0x1a0
 8003382:	60fb      	str	r3, [r7, #12]
 8003384:	e02c      	b.n	80033e0 <OSPI_ConfigCmd+0xc8>
  }
  else if (cmd->OperationType == HAL_OSPI_OPTYPE_WRAP_CFG)
 8003386:	683b      	ldr	r3, [r7, #0]
 8003388:	681b      	ldr	r3, [r3, #0]
 800338a:	2b03      	cmp	r3, #3
 800338c:	d114      	bne.n	80033b8 <OSPI_ConfigCmd+0xa0>
  {
    ccr_reg = &(hospi->Instance->WPCCR);
 800338e:	687b      	ldr	r3, [r7, #4]
 8003390:	681b      	ldr	r3, [r3, #0]
 8003392:	f503 73a0 	add.w	r3, r3, #320	; 0x140
 8003396:	61bb      	str	r3, [r7, #24]
    tcr_reg = &(hospi->Instance->WPTCR);
 8003398:	687b      	ldr	r3, [r7, #4]
 800339a:	681b      	ldr	r3, [r3, #0]
 800339c:	f503 73a4 	add.w	r3, r3, #328	; 0x148
 80033a0:	617b      	str	r3, [r7, #20]
    ir_reg  = &(hospi->Instance->WPIR);
 80033a2:	687b      	ldr	r3, [r7, #4]
 80033a4:	681b      	ldr	r3, [r3, #0]
 80033a6:	f503 73a8 	add.w	r3, r3, #336	; 0x150
 80033aa:	613b      	str	r3, [r7, #16]
    abr_reg = &(hospi->Instance->WPABR);
 80033ac:	687b      	ldr	r3, [r7, #4]
 80033ae:	681b      	ldr	r3, [r3, #0]
 80033b0:	f503 73b0 	add.w	r3, r3, #352	; 0x160
 80033b4:	60fb      	str	r3, [r7, #12]
 80033b6:	e013      	b.n	80033e0 <OSPI_ConfigCmd+0xc8>
  }
  else
  {
    ccr_reg = &(hospi->Instance->CCR);
 80033b8:	687b      	ldr	r3, [r7, #4]
 80033ba:	681b      	ldr	r3, [r3, #0]
 80033bc:	f503 7380 	add.w	r3, r3, #256	; 0x100
 80033c0:	61bb      	str	r3, [r7, #24]
    tcr_reg = &(hospi->Instance->TCR);
 80033c2:	687b      	ldr	r3, [r7, #4]
 80033c4:	681b      	ldr	r3, [r3, #0]
 80033c6:	f503 7384 	add.w	r3, r3, #264	; 0x108
 80033ca:	617b      	str	r3, [r7, #20]
    ir_reg  = &(hospi->Instance->IR);
 80033cc:	687b      	ldr	r3, [r7, #4]
 80033ce:	681b      	ldr	r3, [r3, #0]
 80033d0:	f503 7388 	add.w	r3, r3, #272	; 0x110
 80033d4:	613b      	str	r3, [r7, #16]
    abr_reg = &(hospi->Instance->ABR);
 80033d6:	687b      	ldr	r3, [r7, #4]
 80033d8:	681b      	ldr	r3, [r3, #0]
 80033da:	f503 7390 	add.w	r3, r3, #288	; 0x120
 80033de:	60fb      	str	r3, [r7, #12]
  }

  /* Configure the CCR register with DQS and SIOO modes */
  *ccr_reg = (cmd->DQSMode | cmd->SIOOMode);
 80033e0:	683b      	ldr	r3, [r7, #0]
 80033e2:	6c9a      	ldr	r2, [r3, #72]	; 0x48
 80033e4:	683b      	ldr	r3, [r7, #0]
 80033e6:	6cdb      	ldr	r3, [r3, #76]	; 0x4c
 80033e8:	431a      	orrs	r2, r3
 80033ea:	69bb      	ldr	r3, [r7, #24]
 80033ec:	601a      	str	r2, [r3, #0]

  if (cmd->AlternateBytesMode != HAL_OSPI_ALTERNATE_BYTES_NONE)
 80033ee:	683b      	ldr	r3, [r7, #0]
 80033f0:	6adb      	ldr	r3, [r3, #44]	; 0x2c
 80033f2:	2b00      	cmp	r3, #0
 80033f4:	d012      	beq.n	800341c <OSPI_ConfigCmd+0x104>
  {
    /* Configure the ABR register with alternate bytes value */
    *abr_reg = cmd->AlternateBytes;
 80033f6:	683b      	ldr	r3, [r7, #0]
 80033f8:	6a9a      	ldr	r2, [r3, #40]	; 0x28
 80033fa:	68fb      	ldr	r3, [r7, #12]
 80033fc:	601a      	str	r2, [r3, #0]

    /* Configure the CCR register with alternate bytes communication parameters */
    MODIFY_REG((*ccr_reg), (OCTOSPI_CCR_ABMODE | OCTOSPI_CCR_ABDTR | OCTOSPI_CCR_ABSIZE),
 80033fe:	69bb      	ldr	r3, [r7, #24]
 8003400:	681b      	ldr	r3, [r3, #0]
 8003402:	f423 127c 	bic.w	r2, r3, #4128768	; 0x3f0000
 8003406:	683b      	ldr	r3, [r7, #0]
 8003408:	6ad9      	ldr	r1, [r3, #44]	; 0x2c
 800340a:	683b      	ldr	r3, [r7, #0]
 800340c:	6b5b      	ldr	r3, [r3, #52]	; 0x34
 800340e:	4319      	orrs	r1, r3
 8003410:	683b      	ldr	r3, [r7, #0]
 8003412:	6b1b      	ldr	r3, [r3, #48]	; 0x30
 8003414:	430b      	orrs	r3, r1
 8003416:	431a      	orrs	r2, r3
 8003418:	69bb      	ldr	r3, [r7, #24]
 800341a:	601a      	str	r2, [r3, #0]
                           (cmd->AlternateBytesMode | cmd->AlternateBytesDtrMode | cmd->AlternateBytesSize));
  }

  /* Configure the TCR register with the number of dummy cycles */
  MODIFY_REG((*tcr_reg), OCTOSPI_TCR_DCYC, cmd->DummyCycles);
 800341c:	697b      	ldr	r3, [r7, #20]
 800341e:	681b      	ldr	r3, [r3, #0]
 8003420:	f023 021f 	bic.w	r2, r3, #31
 8003424:	683b      	ldr	r3, [r7, #0]
 8003426:	6c5b      	ldr	r3, [r3, #68]	; 0x44
 8003428:	431a      	orrs	r2, r3
 800342a:	697b      	ldr	r3, [r7, #20]
 800342c:	601a      	str	r2, [r3, #0]

  if (cmd->DataMode != HAL_OSPI_DATA_NONE)
 800342e:	683b      	ldr	r3, [r7, #0]
 8003430:	6b9b      	ldr	r3, [r3, #56]	; 0x38
 8003432:	2b00      	cmp	r3, #0
 8003434:	d009      	beq.n	800344a <OSPI_ConfigCmd+0x132>
  {
    if (cmd->OperationType == HAL_OSPI_OPTYPE_COMMON_CFG)
 8003436:	683b      	ldr	r3, [r7, #0]
 8003438:	681b      	ldr	r3, [r3, #0]
 800343a:	2b00      	cmp	r3, #0
 800343c:	d105      	bne.n	800344a <OSPI_ConfigCmd+0x132>
    {
      /* Configure the DLR register with the number of data */
      hospi->Instance->DLR = (cmd->NbData - 1U);
 800343e:	683b      	ldr	r3, [r7, #0]
 8003440:	6bda      	ldr	r2, [r3, #60]	; 0x3c
 8003442:	687b      	ldr	r3, [r7, #4]
 8003444:	681b      	ldr	r3, [r3, #0]
 8003446:	3a01      	subs	r2, #1
 8003448:	641a      	str	r2, [r3, #64]	; 0x40
    }
  }

  if (cmd->InstructionMode != HAL_OSPI_INSTRUCTION_NONE)
 800344a:	683b      	ldr	r3, [r7, #0]
 800344c:	68db      	ldr	r3, [r3, #12]
 800344e:	2b00      	cmp	r3, #0
 8003450:	f000 8095 	beq.w	800357e <OSPI_ConfigCmd+0x266>
  {
    if (cmd->AddressMode != HAL_OSPI_ADDRESS_NONE)
 8003454:	683b      	ldr	r3, [r7, #0]
 8003456:	69db      	ldr	r3, [r3, #28]
 8003458:	2b00      	cmp	r3, #0
 800345a:	d053      	beq.n	8003504 <OSPI_ConfigCmd+0x1ec>
    {
      if (cmd->DataMode != HAL_OSPI_DATA_NONE)
 800345c:	683b      	ldr	r3, [r7, #0]
 800345e:	6b9b      	ldr	r3, [r3, #56]	; 0x38
 8003460:	2b00      	cmp	r3, #0
 8003462:	d01e      	beq.n	80034a2 <OSPI_ConfigCmd+0x18a>
      {
        /* ---- Command with instruction, address and data ---- */

        /* Configure the CCR register with all communication parameters */
        MODIFY_REG((*ccr_reg), (OCTOSPI_CCR_IMODE  | OCTOSPI_CCR_IDTR  | OCTOSPI_CCR_ISIZE  |
 8003464:	69bb      	ldr	r3, [r7, #24]
 8003466:	681a      	ldr	r2, [r3, #0]
 8003468:	4b64      	ldr	r3, [pc, #400]	; (80035fc <OSPI_ConfigCmd+0x2e4>)
 800346a:	4013      	ands	r3, r2
 800346c:	683a      	ldr	r2, [r7, #0]
 800346e:	68d1      	ldr	r1, [r2, #12]
 8003470:	683a      	ldr	r2, [r7, #0]
 8003472:	6952      	ldr	r2, [r2, #20]
 8003474:	4311      	orrs	r1, r2
 8003476:	683a      	ldr	r2, [r7, #0]
 8003478:	6912      	ldr	r2, [r2, #16]
 800347a:	4311      	orrs	r1, r2
 800347c:	683a      	ldr	r2, [r7, #0]
 800347e:	69d2      	ldr	r2, [r2, #28]
 8003480:	4311      	orrs	r1, r2
 8003482:	683a      	ldr	r2, [r7, #0]
 8003484:	6a52      	ldr	r2, [r2, #36]	; 0x24
 8003486:	4311      	orrs	r1, r2
 8003488:	683a      	ldr	r2, [r7, #0]
 800348a:	6a12      	ldr	r2, [r2, #32]
 800348c:	4311      	orrs	r1, r2
 800348e:	683a      	ldr	r2, [r7, #0]
 8003490:	6b92      	ldr	r2, [r2, #56]	; 0x38
 8003492:	4311      	orrs	r1, r2
 8003494:	683a      	ldr	r2, [r7, #0]
 8003496:	6c12      	ldr	r2, [r2, #64]	; 0x40
 8003498:	430a      	orrs	r2, r1
 800349a:	431a      	orrs	r2, r3
 800349c:	69bb      	ldr	r3, [r7, #24]
 800349e:	601a      	str	r2, [r3, #0]
 80034a0:	e026      	b.n	80034f0 <OSPI_ConfigCmd+0x1d8>
      else
      {
        /* ---- Command with instruction and address ---- */

        /* Configure the CCR register with all communication parameters */
        MODIFY_REG((*ccr_reg), (OCTOSPI_CCR_IMODE  | OCTOSPI_CCR_IDTR  | OCTOSPI_CCR_ISIZE  |
 80034a2:	69bb      	ldr	r3, [r7, #24]
 80034a4:	681a      	ldr	r2, [r3, #0]
 80034a6:	4b56      	ldr	r3, [pc, #344]	; (8003600 <OSPI_ConfigCmd+0x2e8>)
 80034a8:	4013      	ands	r3, r2
 80034aa:	683a      	ldr	r2, [r7, #0]
 80034ac:	68d1      	ldr	r1, [r2, #12]
 80034ae:	683a      	ldr	r2, [r7, #0]
 80034b0:	6952      	ldr	r2, [r2, #20]
 80034b2:	4311      	orrs	r1, r2
 80034b4:	683a      	ldr	r2, [r7, #0]
 80034b6:	6912      	ldr	r2, [r2, #16]
 80034b8:	4311      	orrs	r1, r2
 80034ba:	683a      	ldr	r2, [r7, #0]
 80034bc:	69d2      	ldr	r2, [r2, #28]
 80034be:	4311      	orrs	r1, r2
 80034c0:	683a      	ldr	r2, [r7, #0]
 80034c2:	6a52      	ldr	r2, [r2, #36]	; 0x24
 80034c4:	4311      	orrs	r1, r2
 80034c6:	683a      	ldr	r2, [r7, #0]
 80034c8:	6a12      	ldr	r2, [r2, #32]
 80034ca:	430a      	orrs	r2, r1
 80034cc:	431a      	orrs	r2, r3
 80034ce:	69bb      	ldr	r3, [r7, #24]
 80034d0:	601a      	str	r2, [r3, #0]
                                OCTOSPI_CCR_ADMODE | OCTOSPI_CCR_ADDTR | OCTOSPI_CCR_ADSIZE),
                               (cmd->InstructionMode | cmd->InstructionDtrMode | cmd->InstructionSize |
                                cmd->AddressMode     | cmd->AddressDtrMode     | cmd->AddressSize));

        /* The DHQC bit is linked with DDTR bit which should be activated */
        if ((hospi->Init.DelayHoldQuarterCycle == HAL_OSPI_DHQC_ENABLE) &&
 80034d2:	687b      	ldr	r3, [r7, #4]
 80034d4:	6adb      	ldr	r3, [r3, #44]	; 0x2c
 80034d6:	f1b3 5f80 	cmp.w	r3, #268435456	; 0x10000000
 80034da:	d109      	bne.n	80034f0 <OSPI_ConfigCmd+0x1d8>
            (cmd->InstructionDtrMode == HAL_OSPI_INSTRUCTION_DTR_ENABLE))
 80034dc:	683b      	ldr	r3, [r7, #0]
 80034de:	695b      	ldr	r3, [r3, #20]
        if ((hospi->Init.DelayHoldQuarterCycle == HAL_OSPI_DHQC_ENABLE) &&
 80034e0:	2b08      	cmp	r3, #8
 80034e2:	d105      	bne.n	80034f0 <OSPI_ConfigCmd+0x1d8>
        {
          MODIFY_REG((*ccr_reg), OCTOSPI_CCR_DDTR, HAL_OSPI_DATA_DTR_ENABLE);
 80034e4:	69bb      	ldr	r3, [r7, #24]
 80034e6:	681b      	ldr	r3, [r3, #0]
 80034e8:	f043 6200 	orr.w	r2, r3, #134217728	; 0x8000000
 80034ec:	69bb      	ldr	r3, [r7, #24]
 80034ee:	601a      	str	r2, [r3, #0]
        }
      }

      /* Configure the IR register with the instruction value */
      *ir_reg = cmd->Instruction;
 80034f0:	683b      	ldr	r3, [r7, #0]
 80034f2:	689a      	ldr	r2, [r3, #8]
 80034f4:	693b      	ldr	r3, [r7, #16]
 80034f6:	601a      	str	r2, [r3, #0]

      /* Configure the AR register with the address value */
      hospi->Instance->AR = cmd->Address;
 80034f8:	687b      	ldr	r3, [r7, #4]
 80034fa:	681b      	ldr	r3, [r3, #0]
 80034fc:	683a      	ldr	r2, [r7, #0]
 80034fe:	6992      	ldr	r2, [r2, #24]
 8003500:	649a      	str	r2, [r3, #72]	; 0x48
 8003502:	e074      	b.n	80035ee <OSPI_ConfigCmd+0x2d6>
    }
    else
    {
      if (cmd->DataMode != HAL_OSPI_DATA_NONE)
 8003504:	683b      	ldr	r3, [r7, #0]
 8003506:	6b9b      	ldr	r3, [r3, #56]	; 0x38
 8003508:	2b00      	cmp	r3, #0
 800350a:	d015      	beq.n	8003538 <OSPI_ConfigCmd+0x220>
      {
        /* ---- Command with instruction and data ---- */

        /* Configure the CCR register with all communication parameters */
        MODIFY_REG((*ccr_reg), (OCTOSPI_CCR_IMODE | OCTOSPI_CCR_IDTR | OCTOSPI_CCR_ISIZE |
 800350c:	69bb      	ldr	r3, [r7, #24]
 800350e:	681a      	ldr	r2, [r3, #0]
 8003510:	4b3c      	ldr	r3, [pc, #240]	; (8003604 <OSPI_ConfigCmd+0x2ec>)
 8003512:	4013      	ands	r3, r2
 8003514:	683a      	ldr	r2, [r7, #0]
 8003516:	68d1      	ldr	r1, [r2, #12]
 8003518:	683a      	ldr	r2, [r7, #0]
 800351a:	6952      	ldr	r2, [r2, #20]
 800351c:	4311      	orrs	r1, r2
 800351e:	683a      	ldr	r2, [r7, #0]
 8003520:	6912      	ldr	r2, [r2, #16]
 8003522:	4311      	orrs	r1, r2
 8003524:	683a      	ldr	r2, [r7, #0]
 8003526:	6b92      	ldr	r2, [r2, #56]	; 0x38
 8003528:	4311      	orrs	r1, r2
 800352a:	683a      	ldr	r2, [r7, #0]
 800352c:	6c12      	ldr	r2, [r2, #64]	; 0x40
 800352e:	430a      	orrs	r2, r1
 8003530:	431a      	orrs	r2, r3
 8003532:	69bb      	ldr	r3, [r7, #24]
 8003534:	601a      	str	r2, [r3, #0]
 8003536:	e01d      	b.n	8003574 <OSPI_ConfigCmd+0x25c>
      else
      {
        /* ---- Command with only instruction ---- */

        /* Configure the CCR register with all communication parameters */
        MODIFY_REG((*ccr_reg), (OCTOSPI_CCR_IMODE | OCTOSPI_CCR_IDTR | OCTOSPI_CCR_ISIZE),
 8003538:	69bb      	ldr	r3, [r7, #24]
 800353a:	681b      	ldr	r3, [r3, #0]
 800353c:	f023 023f 	bic.w	r2, r3, #63	; 0x3f
 8003540:	683b      	ldr	r3, [r7, #0]
 8003542:	68d9      	ldr	r1, [r3, #12]
 8003544:	683b      	ldr	r3, [r7, #0]
 8003546:	695b      	ldr	r3, [r3, #20]
 8003548:	4319      	orrs	r1, r3
 800354a:	683b      	ldr	r3, [r7, #0]
 800354c:	691b      	ldr	r3, [r3, #16]
 800354e:	430b      	orrs	r3, r1
 8003550:	431a      	orrs	r2, r3
 8003552:	69bb      	ldr	r3, [r7, #24]
 8003554:	601a      	str	r2, [r3, #0]
                               (cmd->InstructionMode | cmd->InstructionDtrMode | cmd->InstructionSize));

        /* The DHQC bit is linked with DDTR bit which should be activated */
        if ((hospi->Init.DelayHoldQuarterCycle == HAL_OSPI_DHQC_ENABLE) &&
 8003556:	687b      	ldr	r3, [r7, #4]
 8003558:	6adb      	ldr	r3, [r3, #44]	; 0x2c
 800355a:	f1b3 5f80 	cmp.w	r3, #268435456	; 0x10000000
 800355e:	d109      	bne.n	8003574 <OSPI_ConfigCmd+0x25c>
            (cmd->InstructionDtrMode == HAL_OSPI_INSTRUCTION_DTR_ENABLE))
 8003560:	683b      	ldr	r3, [r7, #0]
 8003562:	695b      	ldr	r3, [r3, #20]
        if ((hospi->Init.DelayHoldQuarterCycle == HAL_OSPI_DHQC_ENABLE) &&
 8003564:	2b08      	cmp	r3, #8
 8003566:	d105      	bne.n	8003574 <OSPI_ConfigCmd+0x25c>
        {
          MODIFY_REG((*ccr_reg), OCTOSPI_CCR_DDTR, HAL_OSPI_DATA_DTR_ENABLE);
 8003568:	69bb      	ldr	r3, [r7, #24]
 800356a:	681b      	ldr	r3, [r3, #0]
 800356c:	f043 6200 	orr.w	r2, r3, #134217728	; 0x8000000
 8003570:	69bb      	ldr	r3, [r7, #24]
 8003572:	601a      	str	r2, [r3, #0]
        }
      }

      /* Configure the IR register with the instruction value */
      *ir_reg = cmd->Instruction;
 8003574:	683b      	ldr	r3, [r7, #0]
 8003576:	689a      	ldr	r2, [r3, #8]
 8003578:	693b      	ldr	r3, [r7, #16]
 800357a:	601a      	str	r2, [r3, #0]
 800357c:	e037      	b.n	80035ee <OSPI_ConfigCmd+0x2d6>

    }
  }
  else
  {
    if (cmd->AddressMode != HAL_OSPI_ADDRESS_NONE)
 800357e:	683b      	ldr	r3, [r7, #0]
 8003580:	69db      	ldr	r3, [r3, #28]
 8003582:	2b00      	cmp	r3, #0
 8003584:	d02e      	beq.n	80035e4 <OSPI_ConfigCmd+0x2cc>
    {
      if (cmd->DataMode != HAL_OSPI_DATA_NONE)
 8003586:	683b      	ldr	r3, [r7, #0]
 8003588:	6b9b      	ldr	r3, [r3, #56]	; 0x38
 800358a:	2b00      	cmp	r3, #0
 800358c:	d015      	beq.n	80035ba <OSPI_ConfigCmd+0x2a2>
      {
        /* ---- Command with address and data ---- */

        /* Configure the CCR register with all communication parameters */
        MODIFY_REG((*ccr_reg), (OCTOSPI_CCR_ADMODE | OCTOSPI_CCR_ADDTR | OCTOSPI_CCR_ADSIZE |
 800358e:	69bb      	ldr	r3, [r7, #24]
 8003590:	681a      	ldr	r2, [r3, #0]
 8003592:	4b1d      	ldr	r3, [pc, #116]	; (8003608 <OSPI_ConfigCmd+0x2f0>)
 8003594:	4013      	ands	r3, r2
 8003596:	683a      	ldr	r2, [r7, #0]
 8003598:	69d1      	ldr	r1, [r2, #28]
 800359a:	683a      	ldr	r2, [r7, #0]
 800359c:	6a52      	ldr	r2, [r2, #36]	; 0x24
 800359e:	4311      	orrs	r1, r2
 80035a0:	683a      	ldr	r2, [r7, #0]
 80035a2:	6a12      	ldr	r2, [r2, #32]
 80035a4:	4311      	orrs	r1, r2
 80035a6:	683a      	ldr	r2, [r7, #0]
 80035a8:	6b92      	ldr	r2, [r2, #56]	; 0x38
 80035aa:	4311      	orrs	r1, r2
 80035ac:	683a      	ldr	r2, [r7, #0]
 80035ae:	6c12      	ldr	r2, [r2, #64]	; 0x40
 80035b0:	430a      	orrs	r2, r1
 80035b2:	431a      	orrs	r2, r3
 80035b4:	69bb      	ldr	r3, [r7, #24]
 80035b6:	601a      	str	r2, [r3, #0]
 80035b8:	e00e      	b.n	80035d8 <OSPI_ConfigCmd+0x2c0>
      else
      {
        /* ---- Command with only address ---- */

        /* Configure the CCR register with all communication parameters */
        MODIFY_REG((*ccr_reg), (OCTOSPI_CCR_ADMODE | OCTOSPI_CCR_ADDTR | OCTOSPI_CCR_ADSIZE),
 80035ba:	69bb      	ldr	r3, [r7, #24]
 80035bc:	681b      	ldr	r3, [r3, #0]
 80035be:	f423 527c 	bic.w	r2, r3, #16128	; 0x3f00
 80035c2:	683b      	ldr	r3, [r7, #0]
 80035c4:	69d9      	ldr	r1, [r3, #28]
 80035c6:	683b      	ldr	r3, [r7, #0]
 80035c8:	6a5b      	ldr	r3, [r3, #36]	; 0x24
 80035ca:	4319      	orrs	r1, r3
 80035cc:	683b      	ldr	r3, [r7, #0]
 80035ce:	6a1b      	ldr	r3, [r3, #32]
 80035d0:	430b      	orrs	r3, r1
 80035d2:	431a      	orrs	r2, r3
 80035d4:	69bb      	ldr	r3, [r7, #24]
 80035d6:	601a      	str	r2, [r3, #0]
                               (cmd->AddressMode | cmd->AddressDtrMode | cmd->AddressSize));
      }

      /* Configure the AR register with the instruction value */
      hospi->Instance->AR = cmd->Address;
 80035d8:	687b      	ldr	r3, [r7, #4]
 80035da:	681b      	ldr	r3, [r3, #0]
 80035dc:	683a      	ldr	r2, [r7, #0]
 80035de:	6992      	ldr	r2, [r2, #24]
 80035e0:	649a      	str	r2, [r3, #72]	; 0x48
 80035e2:	e004      	b.n	80035ee <OSPI_ConfigCmd+0x2d6>
    }
    else
    {
      /* ---- Invalid command configuration (no instruction, no address) ---- */
      status = HAL_ERROR;
 80035e4:	2301      	movs	r3, #1
 80035e6:	77fb      	strb	r3, [r7, #31]
      hospi->ErrorCode = HAL_OSPI_ERROR_INVALID_PARAM;
 80035e8:	687b      	ldr	r3, [r7, #4]
 80035ea:	2208      	movs	r2, #8
 80035ec:	659a      	str	r2, [r3, #88]	; 0x58
    }
  }

  /* Return function status */
  return status;
 80035ee:	7ffb      	ldrb	r3, [r7, #31]
}
 80035f0:	4618      	mov	r0, r3
 80035f2:	3724      	adds	r7, #36	; 0x24
 80035f4:	46bd      	mov	sp, r7
 80035f6:	f85d 7b04 	ldr.w	r7, [sp], #4
 80035fa:	4770      	bx	lr
 80035fc:	f0ffc0c0 	.word	0xf0ffc0c0
 8003600:	ffffc0c0 	.word	0xffffc0c0
 8003604:	f0ffffc0 	.word	0xf0ffffc0
 8003608:	f0ffc0ff 	.word	0xf0ffc0ff

0800360c <OSPIM_GetConfig>:
  * @param  instance_nb : number of the instance
  * @param  cfg         : configuration of the IO Manager for the instance
  * @retval HAL status
  */
static HAL_StatusTypeDef OSPIM_GetConfig(uint8_t instance_nb, OSPIM_CfgTypeDef *cfg)
{
 800360c:	b480      	push	{r7}
 800360e:	b087      	sub	sp, #28
 8003610:	af00      	add	r7, sp, #0
 8003612:	4603      	mov	r3, r0
 8003614:	6039      	str	r1, [r7, #0]
 8003616:	71fb      	strb	r3, [r7, #7]
  HAL_StatusTypeDef status = HAL_OK;
 8003618:	2300      	movs	r3, #0
 800361a:	75fb      	strb	r3, [r7, #23]
  uint32_t reg;
  uint32_t value = 0U;
 800361c:	2300      	movs	r3, #0
 800361e:	613b      	str	r3, [r7, #16]
  uint32_t index;

  if ((instance_nb == 0U) || (instance_nb > OSPI_NB_INSTANCE) || (cfg == NULL))
 8003620:	79fb      	ldrb	r3, [r7, #7]
 8003622:	2b00      	cmp	r3, #0
 8003624:	d005      	beq.n	8003632 <OSPIM_GetConfig+0x26>
 8003626:	79fb      	ldrb	r3, [r7, #7]
 8003628:	2b02      	cmp	r3, #2
 800362a:	d802      	bhi.n	8003632 <OSPIM_GetConfig+0x26>
 800362c:	683b      	ldr	r3, [r7, #0]
 800362e:	2b00      	cmp	r3, #0
 8003630:	d102      	bne.n	8003638 <OSPIM_GetConfig+0x2c>
  {
    /* Invalid parameter -> error returned */
    status = HAL_ERROR;
 8003632:	2301      	movs	r3, #1
 8003634:	75fb      	strb	r3, [r7, #23]
 8003636:	e098      	b.n	800376a <OSPIM_GetConfig+0x15e>
  }
  else
  {
    /* Initialize the structure */
    cfg->ClkPort    = 0U;
 8003638:	683b      	ldr	r3, [r7, #0]
 800363a:	2200      	movs	r2, #0
 800363c:	601a      	str	r2, [r3, #0]
    cfg->DQSPort    = 0U;
 800363e:	683b      	ldr	r3, [r7, #0]
 8003640:	2200      	movs	r2, #0
 8003642:	605a      	str	r2, [r3, #4]
    cfg->NCSPort    = 0U;
 8003644:	683b      	ldr	r3, [r7, #0]
 8003646:	2200      	movs	r2, #0
 8003648:	609a      	str	r2, [r3, #8]
    cfg->IOLowPort  = 0U;
 800364a:	683b      	ldr	r3, [r7, #0]
 800364c:	2200      	movs	r2, #0
 800364e:	60da      	str	r2, [r3, #12]
    cfg->IOHighPort = 0U;
 8003650:	683b      	ldr	r3, [r7, #0]
 8003652:	2200      	movs	r2, #0
 8003654:	611a      	str	r2, [r3, #16]

    if (instance_nb == 2U)
 8003656:	79fb      	ldrb	r3, [r7, #7]
 8003658:	2b02      	cmp	r3, #2
 800365a:	d10b      	bne.n	8003674 <OSPIM_GetConfig+0x68>
    {
      if ((OCTOSPIM->CR & OCTOSPIM_CR_MUXEN) == 0U)
 800365c:	4b46      	ldr	r3, [pc, #280]	; (8003778 <OSPIM_GetConfig+0x16c>)
 800365e:	681b      	ldr	r3, [r3, #0]
 8003660:	f003 0301 	and.w	r3, r3, #1
 8003664:	2b00      	cmp	r3, #0
 8003666:	d102      	bne.n	800366e <OSPIM_GetConfig+0x62>
      {
        value = (OCTOSPIM_PCR_CLKSRC | OCTOSPIM_PCR_DQSSRC | OCTOSPIM_PCR_NCSSRC
 8003668:	4b44      	ldr	r3, [pc, #272]	; (800377c <OSPIM_GetConfig+0x170>)
 800366a:	613b      	str	r3, [r7, #16]
 800366c:	e002      	b.n	8003674 <OSPIM_GetConfig+0x68>
               | OCTOSPIM_PCR_IOLSRC_1 | OCTOSPIM_PCR_IOHSRC_1);
      }
      else
      {
        value = OCTOSPIM_PCR_NCSSRC;
 800366e:	f44f 7300 	mov.w	r3, #512	; 0x200
 8003672:	613b      	str	r3, [r7, #16]
      }
    }

    /* Get the information about the instance */
    for (index = 0U; index < OSPI_IOM_NB_PORTS; index ++)
 8003674:	2300      	movs	r3, #0
 8003676:	60fb      	str	r3, [r7, #12]
 8003678:	e074      	b.n	8003764 <OSPIM_GetConfig+0x158>
    {
      reg = OCTOSPIM->PCR[index];
 800367a:	4a3f      	ldr	r2, [pc, #252]	; (8003778 <OSPIM_GetConfig+0x16c>)
 800367c:	68fb      	ldr	r3, [r7, #12]
 800367e:	009b      	lsls	r3, r3, #2
 8003680:	4413      	add	r3, r2
 8003682:	685b      	ldr	r3, [r3, #4]
 8003684:	60bb      	str	r3, [r7, #8]

      if ((reg & OCTOSPIM_PCR_CLKEN) != 0U)
 8003686:	68bb      	ldr	r3, [r7, #8]
 8003688:	f003 0301 	and.w	r3, r3, #1
 800368c:	2b00      	cmp	r3, #0
 800368e:	d00a      	beq.n	80036a6 <OSPIM_GetConfig+0x9a>
      {
        /* The clock is enabled on this port */
        if ((reg & OCTOSPIM_PCR_CLKSRC) == (value & OCTOSPIM_PCR_CLKSRC))
 8003690:	68ba      	ldr	r2, [r7, #8]
 8003692:	693b      	ldr	r3, [r7, #16]
 8003694:	4053      	eors	r3, r2
 8003696:	f003 0302 	and.w	r3, r3, #2
 800369a:	2b00      	cmp	r3, #0
 800369c:	d103      	bne.n	80036a6 <OSPIM_GetConfig+0x9a>
        {
          /* The clock correspond to the instance passed as parameter */
          cfg->ClkPort = index+1U;
 800369e:	68fb      	ldr	r3, [r7, #12]
 80036a0:	1c5a      	adds	r2, r3, #1
 80036a2:	683b      	ldr	r3, [r7, #0]
 80036a4:	601a      	str	r2, [r3, #0]
        }
      }

      if ((reg & OCTOSPIM_PCR_DQSEN) != 0U)
 80036a6:	68bb      	ldr	r3, [r7, #8]
 80036a8:	f003 0310 	and.w	r3, r3, #16
 80036ac:	2b00      	cmp	r3, #0
 80036ae:	d00a      	beq.n	80036c6 <OSPIM_GetConfig+0xba>
      {
        /* The DQS is enabled on this port */
        if ((reg & OCTOSPIM_PCR_DQSSRC) == (value & OCTOSPIM_PCR_DQSSRC))
 80036b0:	68ba      	ldr	r2, [r7, #8]
 80036b2:	693b      	ldr	r3, [r7, #16]
 80036b4:	4053      	eors	r3, r2
 80036b6:	f003 0320 	and.w	r3, r3, #32
 80036ba:	2b00      	cmp	r3, #0
 80036bc:	d103      	bne.n	80036c6 <OSPIM_GetConfig+0xba>
        {
          /* The DQS correspond to the instance passed as parameter */
          cfg->DQSPort = index+1U;
 80036be:	68fb      	ldr	r3, [r7, #12]
 80036c0:	1c5a      	adds	r2, r3, #1
 80036c2:	683b      	ldr	r3, [r7, #0]
 80036c4:	605a      	str	r2, [r3, #4]
        }
      }

      if ((reg & OCTOSPIM_PCR_NCSEN) != 0U)
 80036c6:	68bb      	ldr	r3, [r7, #8]
 80036c8:	f403 7380 	and.w	r3, r3, #256	; 0x100
 80036cc:	2b00      	cmp	r3, #0
 80036ce:	d00a      	beq.n	80036e6 <OSPIM_GetConfig+0xda>
      {
        /* The nCS is enabled on this port */
        if ((reg & OCTOSPIM_PCR_NCSSRC) == (value & OCTOSPIM_PCR_NCSSRC))
 80036d0:	68ba      	ldr	r2, [r7, #8]
 80036d2:	693b      	ldr	r3, [r7, #16]
 80036d4:	4053      	eors	r3, r2
 80036d6:	f403 7300 	and.w	r3, r3, #512	; 0x200
 80036da:	2b00      	cmp	r3, #0
 80036dc:	d103      	bne.n	80036e6 <OSPIM_GetConfig+0xda>
        {
          /* The nCS correspond to the instance passed as parameter */
          cfg->NCSPort = index+1U;
 80036de:	68fb      	ldr	r3, [r7, #12]
 80036e0:	1c5a      	adds	r2, r3, #1
 80036e2:	683b      	ldr	r3, [r7, #0]
 80036e4:	609a      	str	r2, [r3, #8]
        }
      }

      if ((reg & OCTOSPIM_PCR_IOLEN) != 0U)
 80036e6:	68bb      	ldr	r3, [r7, #8]
 80036e8:	f403 3380 	and.w	r3, r3, #65536	; 0x10000
 80036ec:	2b00      	cmp	r3, #0
 80036ee:	d018      	beq.n	8003722 <OSPIM_GetConfig+0x116>
      {
        /* The IO Low is enabled on this port */
        if ((reg & OCTOSPIM_PCR_IOLSRC_1) == (value & OCTOSPIM_PCR_IOLSRC_1))
 80036f0:	68ba      	ldr	r2, [r7, #8]
 80036f2:	693b      	ldr	r3, [r7, #16]
 80036f4:	4053      	eors	r3, r2
 80036f6:	f403 2380 	and.w	r3, r3, #262144	; 0x40000
 80036fa:	2b00      	cmp	r3, #0
 80036fc:	d111      	bne.n	8003722 <OSPIM_GetConfig+0x116>
        {
          /* The IO Low correspond to the instance passed as parameter */
          if ((reg & OCTOSPIM_PCR_IOLSRC_0) == 0U)
 80036fe:	68bb      	ldr	r3, [r7, #8]
 8003700:	f403 3300 	and.w	r3, r3, #131072	; 0x20000
 8003704:	2b00      	cmp	r3, #0
 8003706:	d106      	bne.n	8003716 <OSPIM_GetConfig+0x10a>
          {
            cfg->IOLowPort = (OCTOSPIM_PCR_IOLEN | (index+1U));
 8003708:	68fb      	ldr	r3, [r7, #12]
 800370a:	3301      	adds	r3, #1
 800370c:	f443 3280 	orr.w	r2, r3, #65536	; 0x10000
 8003710:	683b      	ldr	r3, [r7, #0]
 8003712:	60da      	str	r2, [r3, #12]
 8003714:	e005      	b.n	8003722 <OSPIM_GetConfig+0x116>
          }
          else
          {
            cfg->IOLowPort = (OCTOSPIM_PCR_IOHEN | (index+1U));
 8003716:	68fb      	ldr	r3, [r7, #12]
 8003718:	3301      	adds	r3, #1
 800371a:	f043 7280 	orr.w	r2, r3, #16777216	; 0x1000000
 800371e:	683b      	ldr	r3, [r7, #0]
 8003720:	60da      	str	r2, [r3, #12]
          }
        }
      }

      if ((reg & OCTOSPIM_PCR_IOHEN) != 0U)
 8003722:	68bb      	ldr	r3, [r7, #8]
 8003724:	f003 7380 	and.w	r3, r3, #16777216	; 0x1000000
 8003728:	2b00      	cmp	r3, #0
 800372a:	d018      	beq.n	800375e <OSPIM_GetConfig+0x152>
      {
        /* The IO High is enabled on this port */
        if ((reg & OCTOSPIM_PCR_IOHSRC_1) == (value & OCTOSPIM_PCR_IOHSRC_1))
 800372c:	68ba      	ldr	r2, [r7, #8]
 800372e:	693b      	ldr	r3, [r7, #16]
 8003730:	4053      	eors	r3, r2
 8003732:	f003 6380 	and.w	r3, r3, #67108864	; 0x4000000
 8003736:	2b00      	cmp	r3, #0
 8003738:	d111      	bne.n	800375e <OSPIM_GetConfig+0x152>
        {
          /* The IO High correspond to the instance passed as parameter */
          if ((reg & OCTOSPIM_PCR_IOHSRC_0) == 0U)
 800373a:	68bb      	ldr	r3, [r7, #8]
 800373c:	f003 7300 	and.w	r3, r3, #33554432	; 0x2000000
 8003740:	2b00      	cmp	r3, #0
 8003742:	d106      	bne.n	8003752 <OSPIM_GetConfig+0x146>
          {
            cfg->IOHighPort = (OCTOSPIM_PCR_IOLEN | (index+1U));
 8003744:	68fb      	ldr	r3, [r7, #12]
 8003746:	3301      	adds	r3, #1
 8003748:	f443 3280 	orr.w	r2, r3, #65536	; 0x10000
 800374c:	683b      	ldr	r3, [r7, #0]
 800374e:	611a      	str	r2, [r3, #16]
 8003750:	e005      	b.n	800375e <OSPIM_GetConfig+0x152>
          }
          else
          {
            cfg->IOHighPort = (OCTOSPIM_PCR_IOHEN | (index+1U));
 8003752:	68fb      	ldr	r3, [r7, #12]
 8003754:	3301      	adds	r3, #1
 8003756:	f043 7280 	orr.w	r2, r3, #16777216	; 0x1000000
 800375a:	683b      	ldr	r3, [r7, #0]
 800375c:	611a      	str	r2, [r3, #16]
    for (index = 0U; index < OSPI_IOM_NB_PORTS; index ++)
 800375e:	68fb      	ldr	r3, [r7, #12]
 8003760:	3301      	adds	r3, #1
 8003762:	60fb      	str	r3, [r7, #12]
 8003764:	68fb      	ldr	r3, [r7, #12]
 8003766:	2b01      	cmp	r3, #1
 8003768:	d987      	bls.n	800367a <OSPIM_GetConfig+0x6e>
      }
    }
  }

  /* Return function status */
  return status;
 800376a:	7dfb      	ldrb	r3, [r7, #23]
}
 800376c:	4618      	mov	r0, r3
 800376e:	371c      	adds	r7, #28
 8003770:	46bd      	mov	sp, r7
 8003772:	f85d 7b04 	ldr.w	r7, [sp], #4
 8003776:	4770      	bx	lr
 8003778:	5200b400 	.word	0x5200b400
 800377c:	04040222 	.word	0x04040222

08003780 <HAL_PWREx_ConfigSupply>:
  *         PWR_SMPS_2V5_SUPPLIES_EXT are used only for lines that supports SMPS
  *         regulator.
  * @retval HAL status.
  */
HAL_StatusTypeDef HAL_PWREx_ConfigSupply (uint32_t SupplySource)
{
 8003780:	b580      	push	{r7, lr}
 8003782:	b084      	sub	sp, #16
 8003784:	af00      	add	r7, sp, #0
 8003786:	6078      	str	r0, [r7, #4]
  /* Check the parameters */
  assert_param (IS_PWR_SUPPLY (SupplySource));

  /* Check if supply source was configured */
#if defined (PWR_FLAG_SCUEN)
  if (__HAL_PWR_GET_FLAG (PWR_FLAG_SCUEN) == 0U)
 8003788:	4b19      	ldr	r3, [pc, #100]	; (80037f0 <HAL_PWREx_ConfigSupply+0x70>)
 800378a:	68db      	ldr	r3, [r3, #12]
 800378c:	f003 0304 	and.w	r3, r3, #4
 8003790:	2b04      	cmp	r3, #4
 8003792:	d00a      	beq.n	80037aa <HAL_PWREx_ConfigSupply+0x2a>
#else
  if ((PWR->CR3 & (PWR_CR3_SMPSEN | PWR_CR3_LDOEN | PWR_CR3_BYPASS)) != (PWR_CR3_SMPSEN | PWR_CR3_LDOEN))
#endif /* defined (PWR_FLAG_SCUEN) */
  {
    /* Check supply configuration */
    if ((PWR->CR3 & PWR_SUPPLY_CONFIG_MASK) != SupplySource)
 8003794:	4b16      	ldr	r3, [pc, #88]	; (80037f0 <HAL_PWREx_ConfigSupply+0x70>)
 8003796:	68db      	ldr	r3, [r3, #12]
 8003798:	f003 0307 	and.w	r3, r3, #7
 800379c:	687a      	ldr	r2, [r7, #4]
 800379e:	429a      	cmp	r2, r3
 80037a0:	d001      	beq.n	80037a6 <HAL_PWREx_ConfigSupply+0x26>
    {
      /* Supply configuration update locked, can't apply a new supply config */
      return HAL_ERROR;
 80037a2:	2301      	movs	r3, #1
 80037a4:	e01f      	b.n	80037e6 <HAL_PWREx_ConfigSupply+0x66>
    else
    {
      /* Supply configuration update locked, but new supply configuration
         matches with old supply configuration : nothing to do
      */
      return HAL_OK;
 80037a6:	2300      	movs	r3, #0
 80037a8:	e01d      	b.n	80037e6 <HAL_PWREx_ConfigSupply+0x66>
    }
  }

  /* Set the power supply configuration */
  MODIFY_REG (PWR->CR3, PWR_SUPPLY_CONFIG_MASK, SupplySource);
 80037aa:	4b11      	ldr	r3, [pc, #68]	; (80037f0 <HAL_PWREx_ConfigSupply+0x70>)
 80037ac:	68db      	ldr	r3, [r3, #12]
 80037ae:	f023 0207 	bic.w	r2, r3, #7
 80037b2:	490f      	ldr	r1, [pc, #60]	; (80037f0 <HAL_PWREx_ConfigSupply+0x70>)
 80037b4:	687b      	ldr	r3, [r7, #4]
 80037b6:	4313      	orrs	r3, r2
 80037b8:	60cb      	str	r3, [r1, #12]

  /* Get tick */
  tickstart = HAL_GetTick ();
 80037ba:	f7fe f88d 	bl	80018d8 <HAL_GetTick>
 80037be:	60f8      	str	r0, [r7, #12]

  /* Wait till voltage level flag is set */
  while (__HAL_PWR_GET_FLAG (PWR_FLAG_ACTVOSRDY) == 0U)
 80037c0:	e009      	b.n	80037d6 <HAL_PWREx_ConfigSupply+0x56>
  {
    if ((HAL_GetTick () - tickstart) > PWR_FLAG_SETTING_DELAY)
 80037c2:	f7fe f889 	bl	80018d8 <HAL_GetTick>
 80037c6:	4602      	mov	r2, r0
 80037c8:	68fb      	ldr	r3, [r7, #12]
 80037ca:	1ad3      	subs	r3, r2, r3
 80037cc:	f5b3 7f7a 	cmp.w	r3, #1000	; 0x3e8
 80037d0:	d901      	bls.n	80037d6 <HAL_PWREx_ConfigSupply+0x56>
    {
      return HAL_ERROR;
 80037d2:	2301      	movs	r3, #1
 80037d4:	e007      	b.n	80037e6 <HAL_PWREx_ConfigSupply+0x66>
  while (__HAL_PWR_GET_FLAG (PWR_FLAG_ACTVOSRDY) == 0U)
 80037d6:	4b06      	ldr	r3, [pc, #24]	; (80037f0 <HAL_PWREx_ConfigSupply+0x70>)
 80037d8:	685b      	ldr	r3, [r3, #4]
 80037da:	f403 5300 	and.w	r3, r3, #8192	; 0x2000
 80037de:	f5b3 5f00 	cmp.w	r3, #8192	; 0x2000
 80037e2:	d1ee      	bne.n	80037c2 <HAL_PWREx_ConfigSupply+0x42>
      }
    }
  }
#endif /* defined (SMPS) */

  return HAL_OK;
 80037e4:	2300      	movs	r3, #0
}
 80037e6:	4618      	mov	r0, r3
 80037e8:	3710      	adds	r7, #16
 80037ea:	46bd      	mov	sp, r7
 80037ec:	bd80      	pop	{r7, pc}
 80037ee:	bf00      	nop
 80037f0:	58024800 	.word	0x58024800

080037f4 <HAL_RCC_DeInit>:
  *            - Peripheral clocks
  *            - LSI, LSE and RTC clocks
  * @retval HAL status
  */
HAL_StatusTypeDef HAL_RCC_DeInit(void)
{
 80037f4:	b580      	push	{r7, lr}
 80037f6:	b082      	sub	sp, #8
 80037f8:	af00      	add	r7, sp, #0
  uint32_t tickstart;

        /* Increasing the CPU frequency */
  if(FLASH_LATENCY_DEFAULT  > __HAL_FLASH_GET_LATENCY())
 80037fa:	4b8c      	ldr	r3, [pc, #560]	; (8003a2c <HAL_RCC_DeInit+0x238>)
 80037fc:	681b      	ldr	r3, [r3, #0]
 80037fe:	f003 030f 	and.w	r3, r3, #15
 8003802:	2b02      	cmp	r3, #2
 8003804:	d80f      	bhi.n	8003826 <HAL_RCC_DeInit+0x32>
  {
    /* Program the new number of wait states to the LATENCY bits in the FLASH_ACR register */
    __HAL_FLASH_SET_LATENCY(FLASH_LATENCY_DEFAULT);
 8003806:	4b89      	ldr	r3, [pc, #548]	; (8003a2c <HAL_RCC_DeInit+0x238>)
 8003808:	681b      	ldr	r3, [r3, #0]
 800380a:	f023 030f 	bic.w	r3, r3, #15
 800380e:	4a87      	ldr	r2, [pc, #540]	; (8003a2c <HAL_RCC_DeInit+0x238>)
 8003810:	f043 0303 	orr.w	r3, r3, #3
 8003814:	6013      	str	r3, [r2, #0]

    /* Check that the new number of wait states is taken into account to access the Flash
    memory by reading the FLASH_ACR register */
    if(__HAL_FLASH_GET_LATENCY() != FLASH_LATENCY_DEFAULT)
 8003816:	4b85      	ldr	r3, [pc, #532]	; (8003a2c <HAL_RCC_DeInit+0x238>)
 8003818:	681b      	ldr	r3, [r3, #0]
 800381a:	f003 030f 	and.w	r3, r3, #15
 800381e:	2b03      	cmp	r3, #3
 8003820:	d001      	beq.n	8003826 <HAL_RCC_DeInit+0x32>
    {
      return HAL_ERROR;
 8003822:	2301      	movs	r3, #1
 8003824:	e0fd      	b.n	8003a22 <HAL_RCC_DeInit+0x22e>

  }


  /* Get Start Tick */
  tickstart = HAL_GetTick();
 8003826:	f7fe f857 	bl	80018d8 <HAL_GetTick>
 800382a:	6078      	str	r0, [r7, #4]

  /* Set HSION bit */
  SET_BIT(RCC->CR, RCC_CR_HSION);
 800382c:	4b80      	ldr	r3, [pc, #512]	; (8003a30 <HAL_RCC_DeInit+0x23c>)
 800382e:	681b      	ldr	r3, [r3, #0]
 8003830:	4a7f      	ldr	r2, [pc, #508]	; (8003a30 <HAL_RCC_DeInit+0x23c>)
 8003832:	f043 0301 	orr.w	r3, r3, #1
 8003836:	6013      	str	r3, [r2, #0]

  /* Wait till HSI is ready */
  while (READ_BIT(RCC->CR, RCC_CR_HSIRDY) == 0U)
 8003838:	e008      	b.n	800384c <HAL_RCC_DeInit+0x58>
  {
    if ((HAL_GetTick() - tickstart) > HSI_TIMEOUT_VALUE)
 800383a:	f7fe f84d 	bl	80018d8 <HAL_GetTick>
 800383e:	4602      	mov	r2, r0
 8003840:	687b      	ldr	r3, [r7, #4]
 8003842:	1ad3      	subs	r3, r2, r3
 8003844:	2b02      	cmp	r3, #2
 8003846:	d901      	bls.n	800384c <HAL_RCC_DeInit+0x58>
    {
      return HAL_TIMEOUT;
 8003848:	2303      	movs	r3, #3
 800384a:	e0ea      	b.n	8003a22 <HAL_RCC_DeInit+0x22e>
  while (READ_BIT(RCC->CR, RCC_CR_HSIRDY) == 0U)
 800384c:	4b78      	ldr	r3, [pc, #480]	; (8003a30 <HAL_RCC_DeInit+0x23c>)
 800384e:	681b      	ldr	r3, [r3, #0]
 8003850:	f003 0304 	and.w	r3, r3, #4
 8003854:	2b00      	cmp	r3, #0
 8003856:	d0f0      	beq.n	800383a <HAL_RCC_DeInit+0x46>
    }
  }

  /* Set HSITRIM[6:0] bits to the reset value */
  SET_BIT(RCC->HSICFGR, RCC_HSICFGR_HSITRIM_6);
 8003858:	4b75      	ldr	r3, [pc, #468]	; (8003a30 <HAL_RCC_DeInit+0x23c>)
 800385a:	685b      	ldr	r3, [r3, #4]
 800385c:	4a74      	ldr	r2, [pc, #464]	; (8003a30 <HAL_RCC_DeInit+0x23c>)
 800385e:	f043 4380 	orr.w	r3, r3, #1073741824	; 0x40000000
 8003862:	6053      	str	r3, [r2, #4]

  /* Reset CFGR register */
  CLEAR_REG(RCC->CFGR);
 8003864:	4b72      	ldr	r3, [pc, #456]	; (8003a30 <HAL_RCC_DeInit+0x23c>)
 8003866:	2200      	movs	r2, #0
 8003868:	611a      	str	r2, [r3, #16]

  /* Update the SystemCoreClock and SystemD2Clock global variables */
  SystemCoreClock = HSI_VALUE;
 800386a:	4b72      	ldr	r3, [pc, #456]	; (8003a34 <HAL_RCC_DeInit+0x240>)
 800386c:	4a72      	ldr	r2, [pc, #456]	; (8003a38 <HAL_RCC_DeInit+0x244>)
 800386e:	601a      	str	r2, [r3, #0]
  SystemD2Clock = HSI_VALUE;
 8003870:	4b72      	ldr	r3, [pc, #456]	; (8003a3c <HAL_RCC_DeInit+0x248>)
 8003872:	4a71      	ldr	r2, [pc, #452]	; (8003a38 <HAL_RCC_DeInit+0x244>)
 8003874:	601a      	str	r2, [r3, #0]

  /* Adapt Systick interrupt period */
  if(HAL_InitTick(uwTickPrio) != HAL_OK)
 8003876:	4b72      	ldr	r3, [pc, #456]	; (8003a40 <HAL_RCC_DeInit+0x24c>)
 8003878:	681b      	ldr	r3, [r3, #0]
 800387a:	4618      	mov	r0, r3
 800387c:	f7fd ffe2 	bl	8001844 <HAL_InitTick>
 8003880:	4603      	mov	r3, r0
 8003882:	2b00      	cmp	r3, #0
 8003884:	d001      	beq.n	800388a <HAL_RCC_DeInit+0x96>
  {
    return HAL_ERROR;
 8003886:	2301      	movs	r3, #1
 8003888:	e0cb      	b.n	8003a22 <HAL_RCC_DeInit+0x22e>
  }

  /* Get Start Tick */
  tickstart = HAL_GetTick();
 800388a:	f7fe f825 	bl	80018d8 <HAL_GetTick>
 800388e:	6078      	str	r0, [r7, #4]

  /* Wait till clock switch is ready */
  while (READ_BIT(RCC->CFGR, RCC_CFGR_SWS) != 0U)
 8003890:	e00a      	b.n	80038a8 <HAL_RCC_DeInit+0xb4>
  {
    if ((HAL_GetTick() - tickstart) > CLOCKSWITCH_TIMEOUT_VALUE)
 8003892:	f7fe f821 	bl	80018d8 <HAL_GetTick>
 8003896:	4602      	mov	r2, r0
 8003898:	687b      	ldr	r3, [r7, #4]
 800389a:	1ad3      	subs	r3, r2, r3
 800389c:	f241 3288 	movw	r2, #5000	; 0x1388
 80038a0:	4293      	cmp	r3, r2
 80038a2:	d901      	bls.n	80038a8 <HAL_RCC_DeInit+0xb4>
    {
      return HAL_TIMEOUT;
 80038a4:	2303      	movs	r3, #3
 80038a6:	e0bc      	b.n	8003a22 <HAL_RCC_DeInit+0x22e>
  while (READ_BIT(RCC->CFGR, RCC_CFGR_SWS) != 0U)
 80038a8:	4b61      	ldr	r3, [pc, #388]	; (8003a30 <HAL_RCC_DeInit+0x23c>)
 80038aa:	691b      	ldr	r3, [r3, #16]
 80038ac:	f003 0338 	and.w	r3, r3, #56	; 0x38
 80038b0:	2b00      	cmp	r3, #0
 80038b2:	d1ee      	bne.n	8003892 <HAL_RCC_DeInit+0x9e>
    }
  }

  /* Get Start Tick */
  tickstart = HAL_GetTick();
 80038b4:	f7fe f810 	bl	80018d8 <HAL_GetTick>
 80038b8:	6078      	str	r0, [r7, #4]

  /* Reset CSION, CSIKERON, HSEON, HSI48ON, HSECSSON, HSIDIV bits */
  CLEAR_BIT(RCC->CR, RCC_CR_HSEON | RCC_CR_HSIKERON| RCC_CR_HSIDIV| RCC_CR_HSIDIVF| RCC_CR_CSION | RCC_CR_CSIKERON  \
 80038ba:	4b5d      	ldr	r3, [pc, #372]	; (8003a30 <HAL_RCC_DeInit+0x23c>)
 80038bc:	681a      	ldr	r2, [r3, #0]
 80038be:	495c      	ldr	r1, [pc, #368]	; (8003a30 <HAL_RCC_DeInit+0x23c>)
 80038c0:	4b60      	ldr	r3, [pc, #384]	; (8003a44 <HAL_RCC_DeInit+0x250>)
 80038c2:	4013      	ands	r3, r2
 80038c4:	600b      	str	r3, [r1, #0]
  | RCC_CR_HSI48ON | RCC_CR_CSSHSEON);

  /* Wait till HSE is disabled */
  while (READ_BIT(RCC->CR, RCC_CR_HSERDY) != 0U)
 80038c6:	e008      	b.n	80038da <HAL_RCC_DeInit+0xe6>
  {
    if ((HAL_GetTick() - tickstart) > HSE_TIMEOUT_VALUE)
 80038c8:	f7fe f806 	bl	80018d8 <HAL_GetTick>
 80038cc:	4602      	mov	r2, r0
 80038ce:	687b      	ldr	r3, [r7, #4]
 80038d0:	1ad3      	subs	r3, r2, r3
 80038d2:	2b64      	cmp	r3, #100	; 0x64
 80038d4:	d901      	bls.n	80038da <HAL_RCC_DeInit+0xe6>
    {
      return HAL_TIMEOUT;
 80038d6:	2303      	movs	r3, #3
 80038d8:	e0a3      	b.n	8003a22 <HAL_RCC_DeInit+0x22e>
  while (READ_BIT(RCC->CR, RCC_CR_HSERDY) != 0U)
 80038da:	4b55      	ldr	r3, [pc, #340]	; (8003a30 <HAL_RCC_DeInit+0x23c>)
 80038dc:	681b      	ldr	r3, [r3, #0]
 80038de:	f403 3300 	and.w	r3, r3, #131072	; 0x20000
 80038e2:	2b00      	cmp	r3, #0
 80038e4:	d1f0      	bne.n	80038c8 <HAL_RCC_DeInit+0xd4>
    }
  }

  /* Get Start Tick */
  tickstart = HAL_GetTick();
 80038e6:	f7fd fff7 	bl	80018d8 <HAL_GetTick>
 80038ea:	6078      	str	r0, [r7, #4]

  /* Clear PLLON bit */
  CLEAR_BIT(RCC->CR, RCC_CR_PLL1ON);
 80038ec:	4b50      	ldr	r3, [pc, #320]	; (8003a30 <HAL_RCC_DeInit+0x23c>)
 80038ee:	681b      	ldr	r3, [r3, #0]
 80038f0:	4a4f      	ldr	r2, [pc, #316]	; (8003a30 <HAL_RCC_DeInit+0x23c>)
 80038f2:	f023 7380 	bic.w	r3, r3, #16777216	; 0x1000000
 80038f6:	6013      	str	r3, [r2, #0]

  /* Wait till PLL is disabled */
  while (READ_BIT(RCC->CR, RCC_CR_PLL1RDY) != 0U)
 80038f8:	e008      	b.n	800390c <HAL_RCC_DeInit+0x118>
  {
    if ((HAL_GetTick() - tickstart) > PLL_TIMEOUT_VALUE)
 80038fa:	f7fd ffed 	bl	80018d8 <HAL_GetTick>
 80038fe:	4602      	mov	r2, r0
 8003900:	687b      	ldr	r3, [r7, #4]
 8003902:	1ad3      	subs	r3, r2, r3
 8003904:	2b02      	cmp	r3, #2
 8003906:	d901      	bls.n	800390c <HAL_RCC_DeInit+0x118>
    {
      return HAL_TIMEOUT;
 8003908:	2303      	movs	r3, #3
 800390a:	e08a      	b.n	8003a22 <HAL_RCC_DeInit+0x22e>
  while (READ_BIT(RCC->CR, RCC_CR_PLL1RDY) != 0U)
 800390c:	4b48      	ldr	r3, [pc, #288]	; (8003a30 <HAL_RCC_DeInit+0x23c>)
 800390e:	681b      	ldr	r3, [r3, #0]
 8003910:	f003 7300 	and.w	r3, r3, #33554432	; 0x2000000
 8003914:	2b00      	cmp	r3, #0
 8003916:	d1f0      	bne.n	80038fa <HAL_RCC_DeInit+0x106>
    }
  }

  /* Get Start Tick */
  tickstart = HAL_GetTick();
 8003918:	f7fd ffde 	bl	80018d8 <HAL_GetTick>
 800391c:	6078      	str	r0, [r7, #4]

  /* Reset PLL2ON bit */
  CLEAR_BIT(RCC->CR, RCC_CR_PLL2ON);
 800391e:	4b44      	ldr	r3, [pc, #272]	; (8003a30 <HAL_RCC_DeInit+0x23c>)
 8003920:	681b      	ldr	r3, [r3, #0]
 8003922:	4a43      	ldr	r2, [pc, #268]	; (8003a30 <HAL_RCC_DeInit+0x23c>)
 8003924:	f023 6380 	bic.w	r3, r3, #67108864	; 0x4000000
 8003928:	6013      	str	r3, [r2, #0]

  /* Wait till PLL2 is disabled */
  while (READ_BIT(RCC->CR, RCC_CR_PLL2RDY) != 0U)
 800392a:	e008      	b.n	800393e <HAL_RCC_DeInit+0x14a>
  {
    if ((HAL_GetTick() - tickstart) > PLL_TIMEOUT_VALUE)
 800392c:	f7fd ffd4 	bl	80018d8 <HAL_GetTick>
 8003930:	4602      	mov	r2, r0
 8003932:	687b      	ldr	r3, [r7, #4]
 8003934:	1ad3      	subs	r3, r2, r3
 8003936:	2b02      	cmp	r3, #2
 8003938:	d901      	bls.n	800393e <HAL_RCC_DeInit+0x14a>
    {
      return HAL_TIMEOUT;
 800393a:	2303      	movs	r3, #3
 800393c:	e071      	b.n	8003a22 <HAL_RCC_DeInit+0x22e>
  while (READ_BIT(RCC->CR, RCC_CR_PLL2RDY) != 0U)
 800393e:	4b3c      	ldr	r3, [pc, #240]	; (8003a30 <HAL_RCC_DeInit+0x23c>)
 8003940:	681b      	ldr	r3, [r3, #0]
 8003942:	f003 6300 	and.w	r3, r3, #134217728	; 0x8000000
 8003946:	2b00      	cmp	r3, #0
 8003948:	d1f0      	bne.n	800392c <HAL_RCC_DeInit+0x138>
    }
  }

  /* Get Start Tick */
  tickstart = HAL_GetTick();
 800394a:	f7fd ffc5 	bl	80018d8 <HAL_GetTick>
 800394e:	6078      	str	r0, [r7, #4]

  /* Reset PLL3 bit */
  CLEAR_BIT(RCC->CR, RCC_CR_PLL3ON);
 8003950:	4b37      	ldr	r3, [pc, #220]	; (8003a30 <HAL_RCC_DeInit+0x23c>)
 8003952:	681b      	ldr	r3, [r3, #0]
 8003954:	4a36      	ldr	r2, [pc, #216]	; (8003a30 <HAL_RCC_DeInit+0x23c>)
 8003956:	f023 5380 	bic.w	r3, r3, #268435456	; 0x10000000
 800395a:	6013      	str	r3, [r2, #0]

  /* Wait till PLL3 is disabled */
  while (READ_BIT(RCC->CR, RCC_CR_PLL3RDY) != 0U)
 800395c:	e008      	b.n	8003970 <HAL_RCC_DeInit+0x17c>
  {
    if ((HAL_GetTick() - tickstart) > PLL_TIMEOUT_VALUE)
 800395e:	f7fd ffbb 	bl	80018d8 <HAL_GetTick>
 8003962:	4602      	mov	r2, r0
 8003964:	687b      	ldr	r3, [r7, #4]
 8003966:	1ad3      	subs	r3, r2, r3
 8003968:	2b02      	cmp	r3, #2
 800396a:	d901      	bls.n	8003970 <HAL_RCC_DeInit+0x17c>
    {
      return HAL_TIMEOUT;
 800396c:	2303      	movs	r3, #3
 800396e:	e058      	b.n	8003a22 <HAL_RCC_DeInit+0x22e>
  while (READ_BIT(RCC->CR, RCC_CR_PLL3RDY) != 0U)
 8003970:	4b2f      	ldr	r3, [pc, #188]	; (8003a30 <HAL_RCC_DeInit+0x23c>)
 8003972:	681b      	ldr	r3, [r3, #0]
 8003974:	f003 5300 	and.w	r3, r3, #536870912	; 0x20000000
 8003978:	2b00      	cmp	r3, #0
 800397a:	d1f0      	bne.n	800395e <HAL_RCC_DeInit+0x16a>

  /* Reset D3CFGR register */
  CLEAR_REG(RCC->D3CFGR);
#else
  /* Reset CDCFGR1 register */
  CLEAR_REG(RCC->CDCFGR1);
 800397c:	4b2c      	ldr	r3, [pc, #176]	; (8003a30 <HAL_RCC_DeInit+0x23c>)
 800397e:	2200      	movs	r2, #0
 8003980:	619a      	str	r2, [r3, #24]

  /* Reset CDCFGR2 register */
  CLEAR_REG(RCC->CDCFGR2);
 8003982:	4b2b      	ldr	r3, [pc, #172]	; (8003a30 <HAL_RCC_DeInit+0x23c>)
 8003984:	2200      	movs	r2, #0
 8003986:	61da      	str	r2, [r3, #28]

  /* Reset SRDCFGR register */
  CLEAR_REG(RCC->SRDCFGR);
 8003988:	4b29      	ldr	r3, [pc, #164]	; (8003a30 <HAL_RCC_DeInit+0x23c>)
 800398a:	2200      	movs	r2, #0
 800398c:	621a      	str	r2, [r3, #32]
#endif

  /* Reset PLLCKSELR register to default value */
  RCC->PLLCKSELR= RCC_PLLCKSELR_DIVM1_5|RCC_PLLCKSELR_DIVM2_5|RCC_PLLCKSELR_DIVM3_5;
 800398e:	4b28      	ldr	r3, [pc, #160]	; (8003a30 <HAL_RCC_DeInit+0x23c>)
 8003990:	4a2d      	ldr	r2, [pc, #180]	; (8003a48 <HAL_RCC_DeInit+0x254>)
 8003992:	629a      	str	r2, [r3, #40]	; 0x28

  /* Reset PLLCFGR register to default value */
  WRITE_REG(RCC->PLLCFGR, 0x01FF0000U);
 8003994:	4b26      	ldr	r3, [pc, #152]	; (8003a30 <HAL_RCC_DeInit+0x23c>)
 8003996:	4a2d      	ldr	r2, [pc, #180]	; (8003a4c <HAL_RCC_DeInit+0x258>)
 8003998:	62da      	str	r2, [r3, #44]	; 0x2c

  /* Reset PLL1DIVR register to default value */
  WRITE_REG(RCC->PLL1DIVR,0x01010280U);
 800399a:	4b25      	ldr	r3, [pc, #148]	; (8003a30 <HAL_RCC_DeInit+0x23c>)
 800399c:	4a2c      	ldr	r2, [pc, #176]	; (8003a50 <HAL_RCC_DeInit+0x25c>)
 800399e:	631a      	str	r2, [r3, #48]	; 0x30

  /* Reset PLL1FRACR register */
  CLEAR_REG(RCC->PLL1FRACR);
 80039a0:	4b23      	ldr	r3, [pc, #140]	; (8003a30 <HAL_RCC_DeInit+0x23c>)
 80039a2:	2200      	movs	r2, #0
 80039a4:	635a      	str	r2, [r3, #52]	; 0x34

  /* Reset PLL2DIVR register to default value */
  WRITE_REG(RCC->PLL2DIVR,0x01010280U);
 80039a6:	4b22      	ldr	r3, [pc, #136]	; (8003a30 <HAL_RCC_DeInit+0x23c>)
 80039a8:	4a29      	ldr	r2, [pc, #164]	; (8003a50 <HAL_RCC_DeInit+0x25c>)
 80039aa:	639a      	str	r2, [r3, #56]	; 0x38

  /* Reset PLL2FRACR register */
  CLEAR_REG(RCC->PLL2FRACR);
 80039ac:	4b20      	ldr	r3, [pc, #128]	; (8003a30 <HAL_RCC_DeInit+0x23c>)
 80039ae:	2200      	movs	r2, #0
 80039b0:	63da      	str	r2, [r3, #60]	; 0x3c

  /* Reset PLL3DIVR register to default value */
  WRITE_REG(RCC->PLL3DIVR,0x01010280U);
 80039b2:	4b1f      	ldr	r3, [pc, #124]	; (8003a30 <HAL_RCC_DeInit+0x23c>)
 80039b4:	4a26      	ldr	r2, [pc, #152]	; (8003a50 <HAL_RCC_DeInit+0x25c>)
 80039b6:	641a      	str	r2, [r3, #64]	; 0x40

  /* Reset PLL3FRACR register */
  CLEAR_REG(RCC->PLL3FRACR);
 80039b8:	4b1d      	ldr	r3, [pc, #116]	; (8003a30 <HAL_RCC_DeInit+0x23c>)
 80039ba:	2200      	movs	r2, #0
 80039bc:	645a      	str	r2, [r3, #68]	; 0x44

#if defined(RCC_CR_HSEEXT)
  /* Reset HSEEXT  */
  CLEAR_BIT(RCC->CR, RCC_CR_HSEEXT);
 80039be:	4b1c      	ldr	r3, [pc, #112]	; (8003a30 <HAL_RCC_DeInit+0x23c>)
 80039c0:	681b      	ldr	r3, [r3, #0]
 80039c2:	4a1b      	ldr	r2, [pc, #108]	; (8003a30 <HAL_RCC_DeInit+0x23c>)
 80039c4:	f423 1380 	bic.w	r3, r3, #1048576	; 0x100000
 80039c8:	6013      	str	r3, [r2, #0]
#endif /* RCC_CR_HSEEXT */

  /* Reset HSEBYP bit */
  CLEAR_BIT(RCC->CR, RCC_CR_HSEBYP);
 80039ca:	4b19      	ldr	r3, [pc, #100]	; (8003a30 <HAL_RCC_DeInit+0x23c>)
 80039cc:	681b      	ldr	r3, [r3, #0]
 80039ce:	4a18      	ldr	r2, [pc, #96]	; (8003a30 <HAL_RCC_DeInit+0x23c>)
 80039d0:	f423 2380 	bic.w	r3, r3, #262144	; 0x40000
 80039d4:	6013      	str	r3, [r2, #0]

  /* Disable all interrupts */
  CLEAR_REG(RCC->CIER);
 80039d6:	4b16      	ldr	r3, [pc, #88]	; (8003a30 <HAL_RCC_DeInit+0x23c>)
 80039d8:	2200      	movs	r2, #0
 80039da:	661a      	str	r2, [r3, #96]	; 0x60

  /* Clear all interrupts flags */
  WRITE_REG(RCC->CICR,0xFFFFFFFFU);
 80039dc:	4b14      	ldr	r3, [pc, #80]	; (8003a30 <HAL_RCC_DeInit+0x23c>)
 80039de:	f04f 32ff 	mov.w	r2, #4294967295
 80039e2:	669a      	str	r2, [r3, #104]	; 0x68

  /* Reset all RSR flags */
  SET_BIT(RCC->RSR, RCC_RSR_RMVF);
 80039e4:	4b12      	ldr	r3, [pc, #72]	; (8003a30 <HAL_RCC_DeInit+0x23c>)
 80039e6:	f8d3 3130 	ldr.w	r3, [r3, #304]	; 0x130
 80039ea:	4a11      	ldr	r2, [pc, #68]	; (8003a30 <HAL_RCC_DeInit+0x23c>)
 80039ec:	f443 3380 	orr.w	r3, r3, #65536	; 0x10000
 80039f0:	f8c2 3130 	str.w	r3, [r2, #304]	; 0x130

      /* Decreasing the number of wait states because of lower CPU frequency */
  if(FLASH_LATENCY_DEFAULT  < __HAL_FLASH_GET_LATENCY())
 80039f4:	4b0d      	ldr	r3, [pc, #52]	; (8003a2c <HAL_RCC_DeInit+0x238>)
 80039f6:	681b      	ldr	r3, [r3, #0]
 80039f8:	f003 030c 	and.w	r3, r3, #12
 80039fc:	2b00      	cmp	r3, #0
 80039fe:	d00f      	beq.n	8003a20 <HAL_RCC_DeInit+0x22c>
  {
    /* Program the new number of wait states to the LATENCY bits in the FLASH_ACR register */
    __HAL_FLASH_SET_LATENCY(FLASH_LATENCY_DEFAULT);
 8003a00:	4b0a      	ldr	r3, [pc, #40]	; (8003a2c <HAL_RCC_DeInit+0x238>)
 8003a02:	681b      	ldr	r3, [r3, #0]
 8003a04:	f023 030f 	bic.w	r3, r3, #15
 8003a08:	4a08      	ldr	r2, [pc, #32]	; (8003a2c <HAL_RCC_DeInit+0x238>)
 8003a0a:	f043 0303 	orr.w	r3, r3, #3
 8003a0e:	6013      	str	r3, [r2, #0]

    /* Check that the new number of wait states is taken into account to access the Flash
    memory by reading the FLASH_ACR register */
    if(__HAL_FLASH_GET_LATENCY() != FLASH_LATENCY_DEFAULT)
 8003a10:	4b06      	ldr	r3, [pc, #24]	; (8003a2c <HAL_RCC_DeInit+0x238>)
 8003a12:	681b      	ldr	r3, [r3, #0]
 8003a14:	f003 030f 	and.w	r3, r3, #15
 8003a18:	2b03      	cmp	r3, #3
 8003a1a:	d001      	beq.n	8003a20 <HAL_RCC_DeInit+0x22c>
    {
      return HAL_ERROR;
 8003a1c:	2301      	movs	r3, #1
 8003a1e:	e000      	b.n	8003a22 <HAL_RCC_DeInit+0x22e>
    }

}

  return HAL_OK;
 8003a20:	2300      	movs	r3, #0
}
 8003a22:	4618      	mov	r0, r3
 8003a24:	3708      	adds	r7, #8
 8003a26:	46bd      	mov	sp, r7
 8003a28:	bd80      	pop	{r7, pc}
 8003a2a:	bf00      	nop
 8003a2c:	52002000 	.word	0x52002000
 8003a30:	58024400 	.word	0x58024400
 8003a34:	24000008 	.word	0x24000008
 8003a38:	03d09000 	.word	0x03d09000
 8003a3c:	2400000c 	.word	0x2400000c
 8003a40:	24000010 	.word	0x24000010
 8003a44:	fff6ed45 	.word	0xfff6ed45
 8003a48:	02020200 	.word	0x02020200
 8003a4c:	01ff0000 	.word	0x01ff0000
 8003a50:	01010280 	.word	0x01010280

08003a54 <HAL_RCC_OscConfig>:
  *         supported by this function. User should request a transition to HSE Off
  *         first and then HSE On or HSE Bypass.
  * @retval HAL status
  */
__weak HAL_StatusTypeDef HAL_RCC_OscConfig(RCC_OscInitTypeDef  *RCC_OscInitStruct)
{
 8003a54:	b580      	push	{r7, lr}
 8003a56:	b08c      	sub	sp, #48	; 0x30
 8003a58:	af00      	add	r7, sp, #0
 8003a5a:	6078      	str	r0, [r7, #4]
  uint32_t tickstart;
  uint32_t temp1_pllckcfg, temp2_pllckcfg;

    /* Check Null pointer */
  if(RCC_OscInitStruct == NULL)
 8003a5c:	687b      	ldr	r3, [r7, #4]
 8003a5e:	2b00      	cmp	r3, #0
 8003a60:	d101      	bne.n	8003a66 <HAL_RCC_OscConfig+0x12>
  {
    return HAL_ERROR;
 8003a62:	2301      	movs	r3, #1
 8003a64:	e3f3      	b.n	800424e <HAL_RCC_OscConfig+0x7fa>
  }

  /* Check the parameters */
  assert_param(IS_RCC_OSCILLATORTYPE(RCC_OscInitStruct->OscillatorType));
  /*------------------------------- HSE Configuration ------------------------*/
  if(((RCC_OscInitStruct->OscillatorType) & RCC_OSCILLATORTYPE_HSE) == RCC_OSCILLATORTYPE_HSE)
 8003a66:	687b      	ldr	r3, [r7, #4]
 8003a68:	681b      	ldr	r3, [r3, #0]
 8003a6a:	f003 0301 	and.w	r3, r3, #1
 8003a6e:	2b00      	cmp	r3, #0
 8003a70:	f000 80b3 	beq.w	8003bda <HAL_RCC_OscConfig+0x186>
  {
    /* Check the parameters */
    assert_param(IS_RCC_HSE(RCC_OscInitStruct->HSEState));

    const uint32_t temp_sysclksrc = __HAL_RCC_GET_SYSCLK_SOURCE();
 8003a74:	4b9e      	ldr	r3, [pc, #632]	; (8003cf0 <HAL_RCC_OscConfig+0x29c>)
 8003a76:	691b      	ldr	r3, [r3, #16]
 8003a78:	f003 0338 	and.w	r3, r3, #56	; 0x38
 8003a7c:	62fb      	str	r3, [r7, #44]	; 0x2c
    const uint32_t temp_pllckselr = RCC->PLLCKSELR;
 8003a7e:	4b9c      	ldr	r3, [pc, #624]	; (8003cf0 <HAL_RCC_OscConfig+0x29c>)
 8003a80:	6a9b      	ldr	r3, [r3, #40]	; 0x28
 8003a82:	62bb      	str	r3, [r7, #40]	; 0x28
    /* When the HSE is used as system clock or clock source for PLL in these cases HSE will not disabled */
    if((temp_sysclksrc == RCC_CFGR_SWS_HSE) || ((temp_sysclksrc == RCC_CFGR_SWS_PLL1) && ((temp_pllckselr & RCC_PLLCKSELR_PLLSRC) == RCC_PLLCKSELR_PLLSRC_HSE)))
 8003a84:	6afb      	ldr	r3, [r7, #44]	; 0x2c
 8003a86:	2b10      	cmp	r3, #16
 8003a88:	d007      	beq.n	8003a9a <HAL_RCC_OscConfig+0x46>
 8003a8a:	6afb      	ldr	r3, [r7, #44]	; 0x2c
 8003a8c:	2b18      	cmp	r3, #24
 8003a8e:	d112      	bne.n	8003ab6 <HAL_RCC_OscConfig+0x62>
 8003a90:	6abb      	ldr	r3, [r7, #40]	; 0x28
 8003a92:	f003 0303 	and.w	r3, r3, #3
 8003a96:	2b02      	cmp	r3, #2
 8003a98:	d10d      	bne.n	8003ab6 <HAL_RCC_OscConfig+0x62>
    {
      if((__HAL_RCC_GET_FLAG(RCC_FLAG_HSERDY) != 0U) && (RCC_OscInitStruct->HSEState == RCC_HSE_OFF))
 8003a9a:	4b95      	ldr	r3, [pc, #596]	; (8003cf0 <HAL_RCC_OscConfig+0x29c>)
 8003a9c:	681b      	ldr	r3, [r3, #0]
 8003a9e:	f403 3300 	and.w	r3, r3, #131072	; 0x20000
 8003aa2:	2b00      	cmp	r3, #0
 8003aa4:	f000 8098 	beq.w	8003bd8 <HAL_RCC_OscConfig+0x184>
 8003aa8:	687b      	ldr	r3, [r7, #4]
 8003aaa:	685b      	ldr	r3, [r3, #4]
 8003aac:	2b00      	cmp	r3, #0
 8003aae:	f040 8093 	bne.w	8003bd8 <HAL_RCC_OscConfig+0x184>
      {
        return HAL_ERROR;
 8003ab2:	2301      	movs	r3, #1
 8003ab4:	e3cb      	b.n	800424e <HAL_RCC_OscConfig+0x7fa>
      }
    }
    else
    {
      /* Set the new HSE configuration ---------------------------------------*/
      __HAL_RCC_HSE_CONFIG(RCC_OscInitStruct->HSEState);
 8003ab6:	687b      	ldr	r3, [r7, #4]
 8003ab8:	685b      	ldr	r3, [r3, #4]
 8003aba:	f5b3 3f80 	cmp.w	r3, #65536	; 0x10000
 8003abe:	d106      	bne.n	8003ace <HAL_RCC_OscConfig+0x7a>
 8003ac0:	4b8b      	ldr	r3, [pc, #556]	; (8003cf0 <HAL_RCC_OscConfig+0x29c>)
 8003ac2:	681b      	ldr	r3, [r3, #0]
 8003ac4:	4a8a      	ldr	r2, [pc, #552]	; (8003cf0 <HAL_RCC_OscConfig+0x29c>)
 8003ac6:	f443 3380 	orr.w	r3, r3, #65536	; 0x10000
 8003aca:	6013      	str	r3, [r2, #0]
 8003acc:	e058      	b.n	8003b80 <HAL_RCC_OscConfig+0x12c>
 8003ace:	687b      	ldr	r3, [r7, #4]
 8003ad0:	685b      	ldr	r3, [r3, #4]
 8003ad2:	2b00      	cmp	r3, #0
 8003ad4:	d112      	bne.n	8003afc <HAL_RCC_OscConfig+0xa8>
 8003ad6:	4b86      	ldr	r3, [pc, #536]	; (8003cf0 <HAL_RCC_OscConfig+0x29c>)
 8003ad8:	681b      	ldr	r3, [r3, #0]
 8003ada:	4a85      	ldr	r2, [pc, #532]	; (8003cf0 <HAL_RCC_OscConfig+0x29c>)
 8003adc:	f423 3380 	bic.w	r3, r3, #65536	; 0x10000
 8003ae0:	6013      	str	r3, [r2, #0]
 8003ae2:	4b83      	ldr	r3, [pc, #524]	; (8003cf0 <HAL_RCC_OscConfig+0x29c>)
 8003ae4:	681b      	ldr	r3, [r3, #0]
 8003ae6:	4a82      	ldr	r2, [pc, #520]	; (8003cf0 <HAL_RCC_OscConfig+0x29c>)
 8003ae8:	f423 1380 	bic.w	r3, r3, #1048576	; 0x100000
 8003aec:	6013      	str	r3, [r2, #0]
 8003aee:	4b80      	ldr	r3, [pc, #512]	; (8003cf0 <HAL_RCC_OscConfig+0x29c>)
 8003af0:	681b      	ldr	r3, [r3, #0]
 8003af2:	4a7f      	ldr	r2, [pc, #508]	; (8003cf0 <HAL_RCC_OscConfig+0x29c>)
 8003af4:	f423 2380 	bic.w	r3, r3, #262144	; 0x40000
 8003af8:	6013      	str	r3, [r2, #0]
 8003afa:	e041      	b.n	8003b80 <HAL_RCC_OscConfig+0x12c>
 8003afc:	687b      	ldr	r3, [r7, #4]
 8003afe:	685b      	ldr	r3, [r3, #4]
 8003b00:	f5b3 2fa0 	cmp.w	r3, #327680	; 0x50000
 8003b04:	d112      	bne.n	8003b2c <HAL_RCC_OscConfig+0xd8>
 8003b06:	4b7a      	ldr	r3, [pc, #488]	; (8003cf0 <HAL_RCC_OscConfig+0x29c>)
 8003b08:	681b      	ldr	r3, [r3, #0]
 8003b0a:	4a79      	ldr	r2, [pc, #484]	; (8003cf0 <HAL_RCC_OscConfig+0x29c>)
 8003b0c:	f443 2380 	orr.w	r3, r3, #262144	; 0x40000
 8003b10:	6013      	str	r3, [r2, #0]
 8003b12:	4b77      	ldr	r3, [pc, #476]	; (8003cf0 <HAL_RCC_OscConfig+0x29c>)
 8003b14:	681b      	ldr	r3, [r3, #0]
 8003b16:	4a76      	ldr	r2, [pc, #472]	; (8003cf0 <HAL_RCC_OscConfig+0x29c>)
 8003b18:	f423 1380 	bic.w	r3, r3, #1048576	; 0x100000
 8003b1c:	6013      	str	r3, [r2, #0]
 8003b1e:	4b74      	ldr	r3, [pc, #464]	; (8003cf0 <HAL_RCC_OscConfig+0x29c>)
 8003b20:	681b      	ldr	r3, [r3, #0]
 8003b22:	4a73      	ldr	r2, [pc, #460]	; (8003cf0 <HAL_RCC_OscConfig+0x29c>)
 8003b24:	f443 3380 	orr.w	r3, r3, #65536	; 0x10000
 8003b28:	6013      	str	r3, [r2, #0]
 8003b2a:	e029      	b.n	8003b80 <HAL_RCC_OscConfig+0x12c>
 8003b2c:	687b      	ldr	r3, [r7, #4]
 8003b2e:	685b      	ldr	r3, [r3, #4]
 8003b30:	f5b3 1fa8 	cmp.w	r3, #1376256	; 0x150000
 8003b34:	d112      	bne.n	8003b5c <HAL_RCC_OscConfig+0x108>
 8003b36:	4b6e      	ldr	r3, [pc, #440]	; (8003cf0 <HAL_RCC_OscConfig+0x29c>)
 8003b38:	681b      	ldr	r3, [r3, #0]
 8003b3a:	4a6d      	ldr	r2, [pc, #436]	; (8003cf0 <HAL_RCC_OscConfig+0x29c>)
 8003b3c:	f443 2380 	orr.w	r3, r3, #262144	; 0x40000
 8003b40:	6013      	str	r3, [r2, #0]
 8003b42:	4b6b      	ldr	r3, [pc, #428]	; (8003cf0 <HAL_RCC_OscConfig+0x29c>)
 8003b44:	681b      	ldr	r3, [r3, #0]
 8003b46:	4a6a      	ldr	r2, [pc, #424]	; (8003cf0 <HAL_RCC_OscConfig+0x29c>)
 8003b48:	f443 1380 	orr.w	r3, r3, #1048576	; 0x100000
 8003b4c:	6013      	str	r3, [r2, #0]
 8003b4e:	4b68      	ldr	r3, [pc, #416]	; (8003cf0 <HAL_RCC_OscConfig+0x29c>)
 8003b50:	681b      	ldr	r3, [r3, #0]
 8003b52:	4a67      	ldr	r2, [pc, #412]	; (8003cf0 <HAL_RCC_OscConfig+0x29c>)
 8003b54:	f443 3380 	orr.w	r3, r3, #65536	; 0x10000
 8003b58:	6013      	str	r3, [r2, #0]
 8003b5a:	e011      	b.n	8003b80 <HAL_RCC_OscConfig+0x12c>
 8003b5c:	4b64      	ldr	r3, [pc, #400]	; (8003cf0 <HAL_RCC_OscConfig+0x29c>)
 8003b5e:	681b      	ldr	r3, [r3, #0]
 8003b60:	4a63      	ldr	r2, [pc, #396]	; (8003cf0 <HAL_RCC_OscConfig+0x29c>)
 8003b62:	f423 3380 	bic.w	r3, r3, #65536	; 0x10000
 8003b66:	6013      	str	r3, [r2, #0]
 8003b68:	4b61      	ldr	r3, [pc, #388]	; (8003cf0 <HAL_RCC_OscConfig+0x29c>)
 8003b6a:	681b      	ldr	r3, [r3, #0]
 8003b6c:	4a60      	ldr	r2, [pc, #384]	; (8003cf0 <HAL_RCC_OscConfig+0x29c>)
 8003b6e:	f423 2380 	bic.w	r3, r3, #262144	; 0x40000
 8003b72:	6013      	str	r3, [r2, #0]
 8003b74:	4b5e      	ldr	r3, [pc, #376]	; (8003cf0 <HAL_RCC_OscConfig+0x29c>)
 8003b76:	681b      	ldr	r3, [r3, #0]
 8003b78:	4a5d      	ldr	r2, [pc, #372]	; (8003cf0 <HAL_RCC_OscConfig+0x29c>)
 8003b7a:	f423 1380 	bic.w	r3, r3, #1048576	; 0x100000
 8003b7e:	6013      	str	r3, [r2, #0]

      /* Check the HSE State */
      if(RCC_OscInitStruct->HSEState != RCC_HSE_OFF)
 8003b80:	687b      	ldr	r3, [r7, #4]
 8003b82:	685b      	ldr	r3, [r3, #4]
 8003b84:	2b00      	cmp	r3, #0
 8003b86:	d013      	beq.n	8003bb0 <HAL_RCC_OscConfig+0x15c>
      {
        /* Get Start Tick*/
        tickstart = HAL_GetTick();
 8003b88:	f7fd fea6 	bl	80018d8 <HAL_GetTick>
 8003b8c:	6278      	str	r0, [r7, #36]	; 0x24

        /* Wait till HSE is ready */
        while(__HAL_RCC_GET_FLAG(RCC_FLAG_HSERDY) == 0U)
 8003b8e:	e008      	b.n	8003ba2 <HAL_RCC_OscConfig+0x14e>
        {
          if((uint32_t) (HAL_GetTick() - tickstart ) > HSE_TIMEOUT_VALUE)
 8003b90:	f7fd fea2 	bl	80018d8 <HAL_GetTick>
 8003b94:	4602      	mov	r2, r0
 8003b96:	6a7b      	ldr	r3, [r7, #36]	; 0x24
 8003b98:	1ad3      	subs	r3, r2, r3
 8003b9a:	2b64      	cmp	r3, #100	; 0x64
 8003b9c:	d901      	bls.n	8003ba2 <HAL_RCC_OscConfig+0x14e>
          {
            return HAL_TIMEOUT;
 8003b9e:	2303      	movs	r3, #3
 8003ba0:	e355      	b.n	800424e <HAL_RCC_OscConfig+0x7fa>
        while(__HAL_RCC_GET_FLAG(RCC_FLAG_HSERDY) == 0U)
 8003ba2:	4b53      	ldr	r3, [pc, #332]	; (8003cf0 <HAL_RCC_OscConfig+0x29c>)
 8003ba4:	681b      	ldr	r3, [r3, #0]
 8003ba6:	f403 3300 	and.w	r3, r3, #131072	; 0x20000
 8003baa:	2b00      	cmp	r3, #0
 8003bac:	d0f0      	beq.n	8003b90 <HAL_RCC_OscConfig+0x13c>
 8003bae:	e014      	b.n	8003bda <HAL_RCC_OscConfig+0x186>
        }
      }
      else
      {
        /* Get Start Tick*/
        tickstart = HAL_GetTick();
 8003bb0:	f7fd fe92 	bl	80018d8 <HAL_GetTick>
 8003bb4:	6278      	str	r0, [r7, #36]	; 0x24

        /* Wait till HSE is disabled */
        while(__HAL_RCC_GET_FLAG(RCC_FLAG_HSERDY) != 0U)
 8003bb6:	e008      	b.n	8003bca <HAL_RCC_OscConfig+0x176>
        {
          if((uint32_t) (HAL_GetTick() - tickstart ) > HSE_TIMEOUT_VALUE)
 8003bb8:	f7fd fe8e 	bl	80018d8 <HAL_GetTick>
 8003bbc:	4602      	mov	r2, r0
 8003bbe:	6a7b      	ldr	r3, [r7, #36]	; 0x24
 8003bc0:	1ad3      	subs	r3, r2, r3
 8003bc2:	2b64      	cmp	r3, #100	; 0x64
 8003bc4:	d901      	bls.n	8003bca <HAL_RCC_OscConfig+0x176>
          {
            return HAL_TIMEOUT;
 8003bc6:	2303      	movs	r3, #3
 8003bc8:	e341      	b.n	800424e <HAL_RCC_OscConfig+0x7fa>
        while(__HAL_RCC_GET_FLAG(RCC_FLAG_HSERDY) != 0U)
 8003bca:	4b49      	ldr	r3, [pc, #292]	; (8003cf0 <HAL_RCC_OscConfig+0x29c>)
 8003bcc:	681b      	ldr	r3, [r3, #0]
 8003bce:	f403 3300 	and.w	r3, r3, #131072	; 0x20000
 8003bd2:	2b00      	cmp	r3, #0
 8003bd4:	d1f0      	bne.n	8003bb8 <HAL_RCC_OscConfig+0x164>
 8003bd6:	e000      	b.n	8003bda <HAL_RCC_OscConfig+0x186>
      if((__HAL_RCC_GET_FLAG(RCC_FLAG_HSERDY) != 0U) && (RCC_OscInitStruct->HSEState == RCC_HSE_OFF))
 8003bd8:	bf00      	nop
        }
      }
    }
  }
  /*----------------------------- HSI Configuration --------------------------*/
  if(((RCC_OscInitStruct->OscillatorType) & RCC_OSCILLATORTYPE_HSI) == RCC_OSCILLATORTYPE_HSI)
 8003bda:	687b      	ldr	r3, [r7, #4]
 8003bdc:	681b      	ldr	r3, [r3, #0]
 8003bde:	f003 0302 	and.w	r3, r3, #2
 8003be2:	2b00      	cmp	r3, #0
 8003be4:	f000 808c 	beq.w	8003d00 <HAL_RCC_OscConfig+0x2ac>
    /* Check the parameters */
    assert_param(IS_RCC_HSI(RCC_OscInitStruct->HSIState));
    assert_param(IS_RCC_HSICALIBRATION_VALUE(RCC_OscInitStruct->HSICalibrationValue));

    /* When the HSI is used as system clock it will not be disabled */
    const uint32_t temp_sysclksrc = __HAL_RCC_GET_SYSCLK_SOURCE();
 8003be8:	4b41      	ldr	r3, [pc, #260]	; (8003cf0 <HAL_RCC_OscConfig+0x29c>)
 8003bea:	691b      	ldr	r3, [r3, #16]
 8003bec:	f003 0338 	and.w	r3, r3, #56	; 0x38
 8003bf0:	623b      	str	r3, [r7, #32]
    const uint32_t temp_pllckselr = RCC->PLLCKSELR;
 8003bf2:	4b3f      	ldr	r3, [pc, #252]	; (8003cf0 <HAL_RCC_OscConfig+0x29c>)
 8003bf4:	6a9b      	ldr	r3, [r3, #40]	; 0x28
 8003bf6:	61fb      	str	r3, [r7, #28]
    if((temp_sysclksrc == RCC_CFGR_SWS_HSI) || ((temp_sysclksrc == RCC_CFGR_SWS_PLL1) && ((temp_pllckselr & RCC_PLLCKSELR_PLLSRC) == RCC_PLLCKSELR_PLLSRC_HSI)))
 8003bf8:	6a3b      	ldr	r3, [r7, #32]
 8003bfa:	2b00      	cmp	r3, #0
 8003bfc:	d007      	beq.n	8003c0e <HAL_RCC_OscConfig+0x1ba>
 8003bfe:	6a3b      	ldr	r3, [r7, #32]
 8003c00:	2b18      	cmp	r3, #24
 8003c02:	d137      	bne.n	8003c74 <HAL_RCC_OscConfig+0x220>
 8003c04:	69fb      	ldr	r3, [r7, #28]
 8003c06:	f003 0303 	and.w	r3, r3, #3
 8003c0a:	2b00      	cmp	r3, #0
 8003c0c:	d132      	bne.n	8003c74 <HAL_RCC_OscConfig+0x220>
    {
      /* When HSI is used as system clock it will not be disabled */
      if((__HAL_RCC_GET_FLAG(RCC_FLAG_HSIRDY) != 0U) && (RCC_OscInitStruct->HSIState == RCC_HSI_OFF))
 8003c0e:	4b38      	ldr	r3, [pc, #224]	; (8003cf0 <HAL_RCC_OscConfig+0x29c>)
 8003c10:	681b      	ldr	r3, [r3, #0]
 8003c12:	f003 0304 	and.w	r3, r3, #4
 8003c16:	2b00      	cmp	r3, #0
 8003c18:	d005      	beq.n	8003c26 <HAL_RCC_OscConfig+0x1d2>
 8003c1a:	687b      	ldr	r3, [r7, #4]
 8003c1c:	68db      	ldr	r3, [r3, #12]
 8003c1e:	2b00      	cmp	r3, #0
 8003c20:	d101      	bne.n	8003c26 <HAL_RCC_OscConfig+0x1d2>
      {
        return HAL_ERROR;
 8003c22:	2301      	movs	r3, #1
 8003c24:	e313      	b.n	800424e <HAL_RCC_OscConfig+0x7fa>
      }
      /* Otherwise, only HSI division and calibration are allowed */
      else
      {
          /* Enable the Internal High Speed oscillator (HSI, HSIDIV2, HSIDIV4, or HSIDIV8) */
          __HAL_RCC_HSI_CONFIG(RCC_OscInitStruct->HSIState);
 8003c26:	4b32      	ldr	r3, [pc, #200]	; (8003cf0 <HAL_RCC_OscConfig+0x29c>)
 8003c28:	681b      	ldr	r3, [r3, #0]
 8003c2a:	f023 0219 	bic.w	r2, r3, #25
 8003c2e:	687b      	ldr	r3, [r7, #4]
 8003c30:	68db      	ldr	r3, [r3, #12]
 8003c32:	492f      	ldr	r1, [pc, #188]	; (8003cf0 <HAL_RCC_OscConfig+0x29c>)
 8003c34:	4313      	orrs	r3, r2
 8003c36:	600b      	str	r3, [r1, #0]

          /* Get Start Tick*/
          tickstart = HAL_GetTick();
 8003c38:	f7fd fe4e 	bl	80018d8 <HAL_GetTick>
 8003c3c:	6278      	str	r0, [r7, #36]	; 0x24

          /* Wait till HSI is ready */
          while(__HAL_RCC_GET_FLAG(RCC_FLAG_HSIRDY) == 0U)
 8003c3e:	e008      	b.n	8003c52 <HAL_RCC_OscConfig+0x1fe>
          {
            if((uint32_t) (HAL_GetTick() - tickstart ) > HSI_TIMEOUT_VALUE)
 8003c40:	f7fd fe4a 	bl	80018d8 <HAL_GetTick>
 8003c44:	4602      	mov	r2, r0
 8003c46:	6a7b      	ldr	r3, [r7, #36]	; 0x24
 8003c48:	1ad3      	subs	r3, r2, r3
 8003c4a:	2b02      	cmp	r3, #2
 8003c4c:	d901      	bls.n	8003c52 <HAL_RCC_OscConfig+0x1fe>
            {
              return HAL_TIMEOUT;
 8003c4e:	2303      	movs	r3, #3
 8003c50:	e2fd      	b.n	800424e <HAL_RCC_OscConfig+0x7fa>
          while(__HAL_RCC_GET_FLAG(RCC_FLAG_HSIRDY) == 0U)
 8003c52:	4b27      	ldr	r3, [pc, #156]	; (8003cf0 <HAL_RCC_OscConfig+0x29c>)
 8003c54:	681b      	ldr	r3, [r3, #0]
 8003c56:	f003 0304 	and.w	r3, r3, #4
 8003c5a:	2b00      	cmp	r3, #0
 8003c5c:	d0f0      	beq.n	8003c40 <HAL_RCC_OscConfig+0x1ec>
            }
          }
        /* Adjusts the Internal High Speed oscillator (HSI) calibration value.*/
        __HAL_RCC_HSI_CALIBRATIONVALUE_ADJUST(RCC_OscInitStruct->HSICalibrationValue);
 8003c5e:	4b24      	ldr	r3, [pc, #144]	; (8003cf0 <HAL_RCC_OscConfig+0x29c>)
 8003c60:	685b      	ldr	r3, [r3, #4]
 8003c62:	f023 42fe 	bic.w	r2, r3, #2130706432	; 0x7f000000
 8003c66:	687b      	ldr	r3, [r7, #4]
 8003c68:	691b      	ldr	r3, [r3, #16]
 8003c6a:	061b      	lsls	r3, r3, #24
 8003c6c:	4920      	ldr	r1, [pc, #128]	; (8003cf0 <HAL_RCC_OscConfig+0x29c>)
 8003c6e:	4313      	orrs	r3, r2
 8003c70:	604b      	str	r3, [r1, #4]
      if((__HAL_RCC_GET_FLAG(RCC_FLAG_HSIRDY) != 0U) && (RCC_OscInitStruct->HSIState == RCC_HSI_OFF))
 8003c72:	e045      	b.n	8003d00 <HAL_RCC_OscConfig+0x2ac>
    }

    else
    {
      /* Check the HSI State */
      if((RCC_OscInitStruct->HSIState)!= RCC_HSI_OFF)
 8003c74:	687b      	ldr	r3, [r7, #4]
 8003c76:	68db      	ldr	r3, [r3, #12]
 8003c78:	2b00      	cmp	r3, #0
 8003c7a:	d026      	beq.n	8003cca <HAL_RCC_OscConfig+0x276>
      {
     /* Enable the Internal High Speed oscillator (HSI, HSIDIV2,HSIDIV4, or HSIDIV8) */
        __HAL_RCC_HSI_CONFIG(RCC_OscInitStruct->HSIState);
 8003c7c:	4b1c      	ldr	r3, [pc, #112]	; (8003cf0 <HAL_RCC_OscConfig+0x29c>)
 8003c7e:	681b      	ldr	r3, [r3, #0]
 8003c80:	f023 0219 	bic.w	r2, r3, #25
 8003c84:	687b      	ldr	r3, [r7, #4]
 8003c86:	68db      	ldr	r3, [r3, #12]
 8003c88:	4919      	ldr	r1, [pc, #100]	; (8003cf0 <HAL_RCC_OscConfig+0x29c>)
 8003c8a:	4313      	orrs	r3, r2
 8003c8c:	600b      	str	r3, [r1, #0]

        /* Get Start Tick*/
        tickstart = HAL_GetTick();
 8003c8e:	f7fd fe23 	bl	80018d8 <HAL_GetTick>
 8003c92:	6278      	str	r0, [r7, #36]	; 0x24

        /* Wait till HSI is ready */
        while(__HAL_RCC_GET_FLAG(RCC_FLAG_HSIRDY) == 0U)
 8003c94:	e008      	b.n	8003ca8 <HAL_RCC_OscConfig+0x254>
        {
          if((HAL_GetTick() - tickstart ) > HSI_TIMEOUT_VALUE)
 8003c96:	f7fd fe1f 	bl	80018d8 <HAL_GetTick>
 8003c9a:	4602      	mov	r2, r0
 8003c9c:	6a7b      	ldr	r3, [r7, #36]	; 0x24
 8003c9e:	1ad3      	subs	r3, r2, r3
 8003ca0:	2b02      	cmp	r3, #2
 8003ca2:	d901      	bls.n	8003ca8 <HAL_RCC_OscConfig+0x254>
          {
            return HAL_TIMEOUT;
 8003ca4:	2303      	movs	r3, #3
 8003ca6:	e2d2      	b.n	800424e <HAL_RCC_OscConfig+0x7fa>
        while(__HAL_RCC_GET_FLAG(RCC_FLAG_HSIRDY) == 0U)
 8003ca8:	4b11      	ldr	r3, [pc, #68]	; (8003cf0 <HAL_RCC_OscConfig+0x29c>)
 8003caa:	681b      	ldr	r3, [r3, #0]
 8003cac:	f003 0304 	and.w	r3, r3, #4
 8003cb0:	2b00      	cmp	r3, #0
 8003cb2:	d0f0      	beq.n	8003c96 <HAL_RCC_OscConfig+0x242>
          }
        }

        /* Adjusts the Internal High Speed oscillator (HSI) calibration value.*/
        __HAL_RCC_HSI_CALIBRATIONVALUE_ADJUST(RCC_OscInitStruct->HSICalibrationValue);
 8003cb4:	4b0e      	ldr	r3, [pc, #56]	; (8003cf0 <HAL_RCC_OscConfig+0x29c>)
 8003cb6:	685b      	ldr	r3, [r3, #4]
 8003cb8:	f023 42fe 	bic.w	r2, r3, #2130706432	; 0x7f000000
 8003cbc:	687b      	ldr	r3, [r7, #4]
 8003cbe:	691b      	ldr	r3, [r3, #16]
 8003cc0:	061b      	lsls	r3, r3, #24
 8003cc2:	490b      	ldr	r1, [pc, #44]	; (8003cf0 <HAL_RCC_OscConfig+0x29c>)
 8003cc4:	4313      	orrs	r3, r2
 8003cc6:	604b      	str	r3, [r1, #4]
 8003cc8:	e01a      	b.n	8003d00 <HAL_RCC_OscConfig+0x2ac>
      }
      else
      {
        /* Disable the Internal High Speed oscillator (HSI). */
        __HAL_RCC_HSI_DISABLE();
 8003cca:	4b09      	ldr	r3, [pc, #36]	; (8003cf0 <HAL_RCC_OscConfig+0x29c>)
 8003ccc:	681b      	ldr	r3, [r3, #0]
 8003cce:	4a08      	ldr	r2, [pc, #32]	; (8003cf0 <HAL_RCC_OscConfig+0x29c>)
 8003cd0:	f023 0301 	bic.w	r3, r3, #1
 8003cd4:	6013      	str	r3, [r2, #0]

        /* Get Start Tick*/
        tickstart = HAL_GetTick();
 8003cd6:	f7fd fdff 	bl	80018d8 <HAL_GetTick>
 8003cda:	6278      	str	r0, [r7, #36]	; 0x24

        /* Wait till HSI is disabled */
        while(__HAL_RCC_GET_FLAG(RCC_FLAG_HSIRDY) != 0U)
 8003cdc:	e00a      	b.n	8003cf4 <HAL_RCC_OscConfig+0x2a0>
        {
          if((HAL_GetTick() - tickstart ) > HSI_TIMEOUT_VALUE)
 8003cde:	f7fd fdfb 	bl	80018d8 <HAL_GetTick>
 8003ce2:	4602      	mov	r2, r0
 8003ce4:	6a7b      	ldr	r3, [r7, #36]	; 0x24
 8003ce6:	1ad3      	subs	r3, r2, r3
 8003ce8:	2b02      	cmp	r3, #2
 8003cea:	d903      	bls.n	8003cf4 <HAL_RCC_OscConfig+0x2a0>
          {
            return HAL_TIMEOUT;
 8003cec:	2303      	movs	r3, #3
 8003cee:	e2ae      	b.n	800424e <HAL_RCC_OscConfig+0x7fa>
 8003cf0:	58024400 	.word	0x58024400
        while(__HAL_RCC_GET_FLAG(RCC_FLAG_HSIRDY) != 0U)
 8003cf4:	4b99      	ldr	r3, [pc, #612]	; (8003f5c <HAL_RCC_OscConfig+0x508>)
 8003cf6:	681b      	ldr	r3, [r3, #0]
 8003cf8:	f003 0304 	and.w	r3, r3, #4
 8003cfc:	2b00      	cmp	r3, #0
 8003cfe:	d1ee      	bne.n	8003cde <HAL_RCC_OscConfig+0x28a>
        }
      }
    }
  }
  /*----------------------------- CSI Configuration --------------------------*/
  if(((RCC_OscInitStruct->OscillatorType) & RCC_OSCILLATORTYPE_CSI) == RCC_OSCILLATORTYPE_CSI)
 8003d00:	687b      	ldr	r3, [r7, #4]
 8003d02:	681b      	ldr	r3, [r3, #0]
 8003d04:	f003 0310 	and.w	r3, r3, #16
 8003d08:	2b00      	cmp	r3, #0
 8003d0a:	d06a      	beq.n	8003de2 <HAL_RCC_OscConfig+0x38e>
    /* Check the parameters */
    assert_param(IS_RCC_CSI(RCC_OscInitStruct->CSIState));
    assert_param(IS_RCC_CSICALIBRATION_VALUE(RCC_OscInitStruct->CSICalibrationValue));

    /* When the CSI is used as system clock it will not disabled */
    const uint32_t temp_sysclksrc = __HAL_RCC_GET_SYSCLK_SOURCE();
 8003d0c:	4b93      	ldr	r3, [pc, #588]	; (8003f5c <HAL_RCC_OscConfig+0x508>)
 8003d0e:	691b      	ldr	r3, [r3, #16]
 8003d10:	f003 0338 	and.w	r3, r3, #56	; 0x38
 8003d14:	61bb      	str	r3, [r7, #24]
    const uint32_t temp_pllckselr = RCC->PLLCKSELR;
 8003d16:	4b91      	ldr	r3, [pc, #580]	; (8003f5c <HAL_RCC_OscConfig+0x508>)
 8003d18:	6a9b      	ldr	r3, [r3, #40]	; 0x28
 8003d1a:	617b      	str	r3, [r7, #20]
    if((temp_sysclksrc == RCC_CFGR_SWS_CSI) || ((temp_sysclksrc == RCC_CFGR_SWS_PLL1) && ((temp_pllckselr & RCC_PLLCKSELR_PLLSRC) == RCC_PLLCKSELR_PLLSRC_CSI)))
 8003d1c:	69bb      	ldr	r3, [r7, #24]
 8003d1e:	2b08      	cmp	r3, #8
 8003d20:	d007      	beq.n	8003d32 <HAL_RCC_OscConfig+0x2de>
 8003d22:	69bb      	ldr	r3, [r7, #24]
 8003d24:	2b18      	cmp	r3, #24
 8003d26:	d11b      	bne.n	8003d60 <HAL_RCC_OscConfig+0x30c>
 8003d28:	697b      	ldr	r3, [r7, #20]
 8003d2a:	f003 0303 	and.w	r3, r3, #3
 8003d2e:	2b01      	cmp	r3, #1
 8003d30:	d116      	bne.n	8003d60 <HAL_RCC_OscConfig+0x30c>
    {
      /* When CSI is used as system clock it will not disabled */
      if((__HAL_RCC_GET_FLAG(RCC_FLAG_CSIRDY) != 0U) && (RCC_OscInitStruct->CSIState != RCC_CSI_ON))
 8003d32:	4b8a      	ldr	r3, [pc, #552]	; (8003f5c <HAL_RCC_OscConfig+0x508>)
 8003d34:	681b      	ldr	r3, [r3, #0]
 8003d36:	f403 7380 	and.w	r3, r3, #256	; 0x100
 8003d3a:	2b00      	cmp	r3, #0
 8003d3c:	d005      	beq.n	8003d4a <HAL_RCC_OscConfig+0x2f6>
 8003d3e:	687b      	ldr	r3, [r7, #4]
 8003d40:	69db      	ldr	r3, [r3, #28]
 8003d42:	2b80      	cmp	r3, #128	; 0x80
 8003d44:	d001      	beq.n	8003d4a <HAL_RCC_OscConfig+0x2f6>
      {
        return HAL_ERROR;
 8003d46:	2301      	movs	r3, #1
 8003d48:	e281      	b.n	800424e <HAL_RCC_OscConfig+0x7fa>
      }
      /* Otherwise, just the calibration is allowed */
      else
      {
        /* Adjusts the Internal High Speed oscillator (CSI) calibration value.*/
        __HAL_RCC_CSI_CALIBRATIONVALUE_ADJUST(RCC_OscInitStruct->CSICalibrationValue);
 8003d4a:	4b84      	ldr	r3, [pc, #528]	; (8003f5c <HAL_RCC_OscConfig+0x508>)
 8003d4c:	68db      	ldr	r3, [r3, #12]
 8003d4e:	f023 527c 	bic.w	r2, r3, #1056964608	; 0x3f000000
 8003d52:	687b      	ldr	r3, [r7, #4]
 8003d54:	6a1b      	ldr	r3, [r3, #32]
 8003d56:	061b      	lsls	r3, r3, #24
 8003d58:	4980      	ldr	r1, [pc, #512]	; (8003f5c <HAL_RCC_OscConfig+0x508>)
 8003d5a:	4313      	orrs	r3, r2
 8003d5c:	60cb      	str	r3, [r1, #12]
      if((__HAL_RCC_GET_FLAG(RCC_FLAG_CSIRDY) != 0U) && (RCC_OscInitStruct->CSIState != RCC_CSI_ON))
 8003d5e:	e040      	b.n	8003de2 <HAL_RCC_OscConfig+0x38e>
      }
    }
    else
    {
      /* Check the CSI State */
      if((RCC_OscInitStruct->CSIState)!= RCC_CSI_OFF)
 8003d60:	687b      	ldr	r3, [r7, #4]
 8003d62:	69db      	ldr	r3, [r3, #28]
 8003d64:	2b00      	cmp	r3, #0
 8003d66:	d023      	beq.n	8003db0 <HAL_RCC_OscConfig+0x35c>
      {
        /* Enable the Internal High Speed oscillator (CSI). */
        __HAL_RCC_CSI_ENABLE();
 8003d68:	4b7c      	ldr	r3, [pc, #496]	; (8003f5c <HAL_RCC_OscConfig+0x508>)
 8003d6a:	681b      	ldr	r3, [r3, #0]
 8003d6c:	4a7b      	ldr	r2, [pc, #492]	; (8003f5c <HAL_RCC_OscConfig+0x508>)
 8003d6e:	f043 0380 	orr.w	r3, r3, #128	; 0x80
 8003d72:	6013      	str	r3, [r2, #0]

        /* Get Start Tick*/
        tickstart = HAL_GetTick();
 8003d74:	f7fd fdb0 	bl	80018d8 <HAL_GetTick>
 8003d78:	6278      	str	r0, [r7, #36]	; 0x24

        /* Wait till CSI is ready */
        while(__HAL_RCC_GET_FLAG(RCC_FLAG_CSIRDY) == 0U)
 8003d7a:	e008      	b.n	8003d8e <HAL_RCC_OscConfig+0x33a>
        {
          if((HAL_GetTick() - tickstart ) > CSI_TIMEOUT_VALUE)
 8003d7c:	f7fd fdac 	bl	80018d8 <HAL_GetTick>
 8003d80:	4602      	mov	r2, r0
 8003d82:	6a7b      	ldr	r3, [r7, #36]	; 0x24
 8003d84:	1ad3      	subs	r3, r2, r3
 8003d86:	2b02      	cmp	r3, #2
 8003d88:	d901      	bls.n	8003d8e <HAL_RCC_OscConfig+0x33a>
          {
            return HAL_TIMEOUT;
 8003d8a:	2303      	movs	r3, #3
 8003d8c:	e25f      	b.n	800424e <HAL_RCC_OscConfig+0x7fa>
        while(__HAL_RCC_GET_FLAG(RCC_FLAG_CSIRDY) == 0U)
 8003d8e:	4b73      	ldr	r3, [pc, #460]	; (8003f5c <HAL_RCC_OscConfig+0x508>)
 8003d90:	681b      	ldr	r3, [r3, #0]
 8003d92:	f403 7380 	and.w	r3, r3, #256	; 0x100
 8003d96:	2b00      	cmp	r3, #0
 8003d98:	d0f0      	beq.n	8003d7c <HAL_RCC_OscConfig+0x328>
          }
        }

        /* Adjusts the Internal High Speed oscillator (CSI) calibration value.*/
        __HAL_RCC_CSI_CALIBRATIONVALUE_ADJUST(RCC_OscInitStruct->CSICalibrationValue);
 8003d9a:	4b70      	ldr	r3, [pc, #448]	; (8003f5c <HAL_RCC_OscConfig+0x508>)
 8003d9c:	68db      	ldr	r3, [r3, #12]
 8003d9e:	f023 527c 	bic.w	r2, r3, #1056964608	; 0x3f000000
 8003da2:	687b      	ldr	r3, [r7, #4]
 8003da4:	6a1b      	ldr	r3, [r3, #32]
 8003da6:	061b      	lsls	r3, r3, #24
 8003da8:	496c      	ldr	r1, [pc, #432]	; (8003f5c <HAL_RCC_OscConfig+0x508>)
 8003daa:	4313      	orrs	r3, r2
 8003dac:	60cb      	str	r3, [r1, #12]
 8003dae:	e018      	b.n	8003de2 <HAL_RCC_OscConfig+0x38e>
      }
      else
      {
        /* Disable the Internal High Speed oscillator (CSI). */
        __HAL_RCC_CSI_DISABLE();
 8003db0:	4b6a      	ldr	r3, [pc, #424]	; (8003f5c <HAL_RCC_OscConfig+0x508>)
 8003db2:	681b      	ldr	r3, [r3, #0]
 8003db4:	4a69      	ldr	r2, [pc, #420]	; (8003f5c <HAL_RCC_OscConfig+0x508>)
 8003db6:	f023 0380 	bic.w	r3, r3, #128	; 0x80
 8003dba:	6013      	str	r3, [r2, #0]

        /* Get Start Tick*/
        tickstart = HAL_GetTick();
 8003dbc:	f7fd fd8c 	bl	80018d8 <HAL_GetTick>
 8003dc0:	6278      	str	r0, [r7, #36]	; 0x24

        /* Wait till CSI is disabled */
        while(__HAL_RCC_GET_FLAG(RCC_FLAG_CSIRDY) != 0U)
 8003dc2:	e008      	b.n	8003dd6 <HAL_RCC_OscConfig+0x382>
        {
          if((HAL_GetTick() - tickstart ) > CSI_TIMEOUT_VALUE)
 8003dc4:	f7fd fd88 	bl	80018d8 <HAL_GetTick>
 8003dc8:	4602      	mov	r2, r0
 8003dca:	6a7b      	ldr	r3, [r7, #36]	; 0x24
 8003dcc:	1ad3      	subs	r3, r2, r3
 8003dce:	2b02      	cmp	r3, #2
 8003dd0:	d901      	bls.n	8003dd6 <HAL_RCC_OscConfig+0x382>
          {
            return HAL_TIMEOUT;
 8003dd2:	2303      	movs	r3, #3
 8003dd4:	e23b      	b.n	800424e <HAL_RCC_OscConfig+0x7fa>
        while(__HAL_RCC_GET_FLAG(RCC_FLAG_CSIRDY) != 0U)
 8003dd6:	4b61      	ldr	r3, [pc, #388]	; (8003f5c <HAL_RCC_OscConfig+0x508>)
 8003dd8:	681b      	ldr	r3, [r3, #0]
 8003dda:	f403 7380 	and.w	r3, r3, #256	; 0x100
 8003dde:	2b00      	cmp	r3, #0
 8003de0:	d1f0      	bne.n	8003dc4 <HAL_RCC_OscConfig+0x370>
        }
      }
    }
  }
  /*------------------------------ LSI Configuration -------------------------*/
  if(((RCC_OscInitStruct->OscillatorType) & RCC_OSCILLATORTYPE_LSI) == RCC_OSCILLATORTYPE_LSI)
 8003de2:	687b      	ldr	r3, [r7, #4]
 8003de4:	681b      	ldr	r3, [r3, #0]
 8003de6:	f003 0308 	and.w	r3, r3, #8
 8003dea:	2b00      	cmp	r3, #0
 8003dec:	d036      	beq.n	8003e5c <HAL_RCC_OscConfig+0x408>
  {
    /* Check the parameters */
    assert_param(IS_RCC_LSI(RCC_OscInitStruct->LSIState));

    /* Check the LSI State */
    if((RCC_OscInitStruct->LSIState)!= RCC_LSI_OFF)
 8003dee:	687b      	ldr	r3, [r7, #4]
 8003df0:	695b      	ldr	r3, [r3, #20]
 8003df2:	2b00      	cmp	r3, #0
 8003df4:	d019      	beq.n	8003e2a <HAL_RCC_OscConfig+0x3d6>
    {
      /* Enable the Internal Low Speed oscillator (LSI). */
      __HAL_RCC_LSI_ENABLE();
 8003df6:	4b59      	ldr	r3, [pc, #356]	; (8003f5c <HAL_RCC_OscConfig+0x508>)
 8003df8:	6f5b      	ldr	r3, [r3, #116]	; 0x74
 8003dfa:	4a58      	ldr	r2, [pc, #352]	; (8003f5c <HAL_RCC_OscConfig+0x508>)
 8003dfc:	f043 0301 	orr.w	r3, r3, #1
 8003e00:	6753      	str	r3, [r2, #116]	; 0x74

      /* Get Start Tick*/
      tickstart = HAL_GetTick();
 8003e02:	f7fd fd69 	bl	80018d8 <HAL_GetTick>
 8003e06:	6278      	str	r0, [r7, #36]	; 0x24

      /* Wait till LSI is ready */
      while(__HAL_RCC_GET_FLAG(RCC_FLAG_LSIRDY) == 0U)
 8003e08:	e008      	b.n	8003e1c <HAL_RCC_OscConfig+0x3c8>
      {
        if((HAL_GetTick() - tickstart ) > LSI_TIMEOUT_VALUE)
 8003e0a:	f7fd fd65 	bl	80018d8 <HAL_GetTick>
 8003e0e:	4602      	mov	r2, r0
 8003e10:	6a7b      	ldr	r3, [r7, #36]	; 0x24
 8003e12:	1ad3      	subs	r3, r2, r3
 8003e14:	2b02      	cmp	r3, #2
 8003e16:	d901      	bls.n	8003e1c <HAL_RCC_OscConfig+0x3c8>
        {
          return HAL_TIMEOUT;
 8003e18:	2303      	movs	r3, #3
 8003e1a:	e218      	b.n	800424e <HAL_RCC_OscConfig+0x7fa>
      while(__HAL_RCC_GET_FLAG(RCC_FLAG_LSIRDY) == 0U)
 8003e1c:	4b4f      	ldr	r3, [pc, #316]	; (8003f5c <HAL_RCC_OscConfig+0x508>)
 8003e1e:	6f5b      	ldr	r3, [r3, #116]	; 0x74
 8003e20:	f003 0302 	and.w	r3, r3, #2
 8003e24:	2b00      	cmp	r3, #0
 8003e26:	d0f0      	beq.n	8003e0a <HAL_RCC_OscConfig+0x3b6>
 8003e28:	e018      	b.n	8003e5c <HAL_RCC_OscConfig+0x408>
      }
    }
    else
    {
      /* Disable the Internal Low Speed oscillator (LSI). */
      __HAL_RCC_LSI_DISABLE();
 8003e2a:	4b4c      	ldr	r3, [pc, #304]	; (8003f5c <HAL_RCC_OscConfig+0x508>)
 8003e2c:	6f5b      	ldr	r3, [r3, #116]	; 0x74
 8003e2e:	4a4b      	ldr	r2, [pc, #300]	; (8003f5c <HAL_RCC_OscConfig+0x508>)
 8003e30:	f023 0301 	bic.w	r3, r3, #1
 8003e34:	6753      	str	r3, [r2, #116]	; 0x74

      /* Get Start Tick*/
      tickstart = HAL_GetTick();
 8003e36:	f7fd fd4f 	bl	80018d8 <HAL_GetTick>
 8003e3a:	6278      	str	r0, [r7, #36]	; 0x24

      /* Wait till LSI is ready */
      while(__HAL_RCC_GET_FLAG(RCC_FLAG_LSIRDY) != 0U)
 8003e3c:	e008      	b.n	8003e50 <HAL_RCC_OscConfig+0x3fc>
      {
        if((HAL_GetTick() - tickstart ) > LSI_TIMEOUT_VALUE)
 8003e3e:	f7fd fd4b 	bl	80018d8 <HAL_GetTick>
 8003e42:	4602      	mov	r2, r0
 8003e44:	6a7b      	ldr	r3, [r7, #36]	; 0x24
 8003e46:	1ad3      	subs	r3, r2, r3
 8003e48:	2b02      	cmp	r3, #2
 8003e4a:	d901      	bls.n	8003e50 <HAL_RCC_OscConfig+0x3fc>
        {
          return HAL_TIMEOUT;
 8003e4c:	2303      	movs	r3, #3
 8003e4e:	e1fe      	b.n	800424e <HAL_RCC_OscConfig+0x7fa>
      while(__HAL_RCC_GET_FLAG(RCC_FLAG_LSIRDY) != 0U)
 8003e50:	4b42      	ldr	r3, [pc, #264]	; (8003f5c <HAL_RCC_OscConfig+0x508>)
 8003e52:	6f5b      	ldr	r3, [r3, #116]	; 0x74
 8003e54:	f003 0302 	and.w	r3, r3, #2
 8003e58:	2b00      	cmp	r3, #0
 8003e5a:	d1f0      	bne.n	8003e3e <HAL_RCC_OscConfig+0x3ea>
      }
    }
  }

  /*------------------------------ HSI48 Configuration -------------------------*/
  if(((RCC_OscInitStruct->OscillatorType) & RCC_OSCILLATORTYPE_HSI48) == RCC_OSCILLATORTYPE_HSI48)
 8003e5c:	687b      	ldr	r3, [r7, #4]
 8003e5e:	681b      	ldr	r3, [r3, #0]
 8003e60:	f003 0320 	and.w	r3, r3, #32
 8003e64:	2b00      	cmp	r3, #0
 8003e66:	d036      	beq.n	8003ed6 <HAL_RCC_OscConfig+0x482>
  {
    /* Check the parameters */
    assert_param(IS_RCC_HSI48(RCC_OscInitStruct->HSI48State));

    /* Check the HSI48 State */
    if((RCC_OscInitStruct->HSI48State)!= RCC_HSI48_OFF)
 8003e68:	687b      	ldr	r3, [r7, #4]
 8003e6a:	699b      	ldr	r3, [r3, #24]
 8003e6c:	2b00      	cmp	r3, #0
 8003e6e:	d019      	beq.n	8003ea4 <HAL_RCC_OscConfig+0x450>
    {
      /* Enable the Internal Low Speed oscillator (HSI48). */
      __HAL_RCC_HSI48_ENABLE();
 8003e70:	4b3a      	ldr	r3, [pc, #232]	; (8003f5c <HAL_RCC_OscConfig+0x508>)
 8003e72:	681b      	ldr	r3, [r3, #0]
 8003e74:	4a39      	ldr	r2, [pc, #228]	; (8003f5c <HAL_RCC_OscConfig+0x508>)
 8003e76:	f443 5380 	orr.w	r3, r3, #4096	; 0x1000
 8003e7a:	6013      	str	r3, [r2, #0]

      /* Get time-out */
      tickstart = HAL_GetTick();
 8003e7c:	f7fd fd2c 	bl	80018d8 <HAL_GetTick>
 8003e80:	6278      	str	r0, [r7, #36]	; 0x24

      /* Wait till HSI48 is ready */
      while(__HAL_RCC_GET_FLAG(RCC_FLAG_HSI48RDY) == 0U)
 8003e82:	e008      	b.n	8003e96 <HAL_RCC_OscConfig+0x442>
      {
        if((HAL_GetTick() - tickstart ) > HSI48_TIMEOUT_VALUE)
 8003e84:	f7fd fd28 	bl	80018d8 <HAL_GetTick>
 8003e88:	4602      	mov	r2, r0
 8003e8a:	6a7b      	ldr	r3, [r7, #36]	; 0x24
 8003e8c:	1ad3      	subs	r3, r2, r3
 8003e8e:	2b02      	cmp	r3, #2
 8003e90:	d901      	bls.n	8003e96 <HAL_RCC_OscConfig+0x442>
        {
          return HAL_TIMEOUT;
 8003e92:	2303      	movs	r3, #3
 8003e94:	e1db      	b.n	800424e <HAL_RCC_OscConfig+0x7fa>
      while(__HAL_RCC_GET_FLAG(RCC_FLAG_HSI48RDY) == 0U)
 8003e96:	4b31      	ldr	r3, [pc, #196]	; (8003f5c <HAL_RCC_OscConfig+0x508>)
 8003e98:	681b      	ldr	r3, [r3, #0]
 8003e9a:	f403 5300 	and.w	r3, r3, #8192	; 0x2000
 8003e9e:	2b00      	cmp	r3, #0
 8003ea0:	d0f0      	beq.n	8003e84 <HAL_RCC_OscConfig+0x430>
 8003ea2:	e018      	b.n	8003ed6 <HAL_RCC_OscConfig+0x482>
      }
    }
    else
    {
      /* Disable the Internal Low Speed oscillator (HSI48). */
      __HAL_RCC_HSI48_DISABLE();
 8003ea4:	4b2d      	ldr	r3, [pc, #180]	; (8003f5c <HAL_RCC_OscConfig+0x508>)
 8003ea6:	681b      	ldr	r3, [r3, #0]
 8003ea8:	4a2c      	ldr	r2, [pc, #176]	; (8003f5c <HAL_RCC_OscConfig+0x508>)
 8003eaa:	f423 5380 	bic.w	r3, r3, #4096	; 0x1000
 8003eae:	6013      	str	r3, [r2, #0]

      /* Get time-out */
      tickstart = HAL_GetTick();
 8003eb0:	f7fd fd12 	bl	80018d8 <HAL_GetTick>
 8003eb4:	6278      	str	r0, [r7, #36]	; 0x24

      /* Wait till HSI48 is ready */
      while(__HAL_RCC_GET_FLAG(RCC_FLAG_HSI48RDY) != 0U)
 8003eb6:	e008      	b.n	8003eca <HAL_RCC_OscConfig+0x476>
      {
        if((HAL_GetTick() - tickstart ) > HSI48_TIMEOUT_VALUE)
 8003eb8:	f7fd fd0e 	bl	80018d8 <HAL_GetTick>
 8003ebc:	4602      	mov	r2, r0
 8003ebe:	6a7b      	ldr	r3, [r7, #36]	; 0x24
 8003ec0:	1ad3      	subs	r3, r2, r3
 8003ec2:	2b02      	cmp	r3, #2
 8003ec4:	d901      	bls.n	8003eca <HAL_RCC_OscConfig+0x476>
        {
          return HAL_TIMEOUT;
 8003ec6:	2303      	movs	r3, #3
 8003ec8:	e1c1      	b.n	800424e <HAL_RCC_OscConfig+0x7fa>
      while(__HAL_RCC_GET_FLAG(RCC_FLAG_HSI48RDY) != 0U)
 8003eca:	4b24      	ldr	r3, [pc, #144]	; (8003f5c <HAL_RCC_OscConfig+0x508>)
 8003ecc:	681b      	ldr	r3, [r3, #0]
 8003ece:	f403 5300 	and.w	r3, r3, #8192	; 0x2000
 8003ed2:	2b00      	cmp	r3, #0
 8003ed4:	d1f0      	bne.n	8003eb8 <HAL_RCC_OscConfig+0x464>
        }
      }
    }
  }
  /*------------------------------ LSE Configuration -------------------------*/
  if(((RCC_OscInitStruct->OscillatorType) & RCC_OSCILLATORTYPE_LSE) == RCC_OSCILLATORTYPE_LSE)
 8003ed6:	687b      	ldr	r3, [r7, #4]
 8003ed8:	681b      	ldr	r3, [r3, #0]
 8003eda:	f003 0304 	and.w	r3, r3, #4
 8003ede:	2b00      	cmp	r3, #0
 8003ee0:	f000 80af 	beq.w	8004042 <HAL_RCC_OscConfig+0x5ee>
  {
    /* Check the parameters */
    assert_param(IS_RCC_LSE(RCC_OscInitStruct->LSEState));

    /* Enable write access to Backup domain */
    PWR->CR1 |= PWR_CR1_DBP;
 8003ee4:	4b1e      	ldr	r3, [pc, #120]	; (8003f60 <HAL_RCC_OscConfig+0x50c>)
 8003ee6:	681b      	ldr	r3, [r3, #0]
 8003ee8:	4a1d      	ldr	r2, [pc, #116]	; (8003f60 <HAL_RCC_OscConfig+0x50c>)
 8003eea:	f443 7380 	orr.w	r3, r3, #256	; 0x100
 8003eee:	6013      	str	r3, [r2, #0]

    /* Wait for Backup domain Write protection disable */
    tickstart = HAL_GetTick();
 8003ef0:	f7fd fcf2 	bl	80018d8 <HAL_GetTick>
 8003ef4:	6278      	str	r0, [r7, #36]	; 0x24

    while((PWR->CR1 & PWR_CR1_DBP) == 0U)
 8003ef6:	e008      	b.n	8003f0a <HAL_RCC_OscConfig+0x4b6>
    {
      if((HAL_GetTick() - tickstart ) > RCC_DBP_TIMEOUT_VALUE)
 8003ef8:	f7fd fcee 	bl	80018d8 <HAL_GetTick>
 8003efc:	4602      	mov	r2, r0
 8003efe:	6a7b      	ldr	r3, [r7, #36]	; 0x24
 8003f00:	1ad3      	subs	r3, r2, r3
 8003f02:	2b64      	cmp	r3, #100	; 0x64
 8003f04:	d901      	bls.n	8003f0a <HAL_RCC_OscConfig+0x4b6>
      {
        return HAL_TIMEOUT;
 8003f06:	2303      	movs	r3, #3
 8003f08:	e1a1      	b.n	800424e <HAL_RCC_OscConfig+0x7fa>
    while((PWR->CR1 & PWR_CR1_DBP) == 0U)
 8003f0a:	4b15      	ldr	r3, [pc, #84]	; (8003f60 <HAL_RCC_OscConfig+0x50c>)
 8003f0c:	681b      	ldr	r3, [r3, #0]
 8003f0e:	f403 7380 	and.w	r3, r3, #256	; 0x100
 8003f12:	2b00      	cmp	r3, #0
 8003f14:	d0f0      	beq.n	8003ef8 <HAL_RCC_OscConfig+0x4a4>
      }
    }

    /* Set the new LSE configuration -----------------------------------------*/
    __HAL_RCC_LSE_CONFIG(RCC_OscInitStruct->LSEState);
 8003f16:	687b      	ldr	r3, [r7, #4]
 8003f18:	689b      	ldr	r3, [r3, #8]
 8003f1a:	2b01      	cmp	r3, #1
 8003f1c:	d106      	bne.n	8003f2c <HAL_RCC_OscConfig+0x4d8>
 8003f1e:	4b0f      	ldr	r3, [pc, #60]	; (8003f5c <HAL_RCC_OscConfig+0x508>)
 8003f20:	6f1b      	ldr	r3, [r3, #112]	; 0x70
 8003f22:	4a0e      	ldr	r2, [pc, #56]	; (8003f5c <HAL_RCC_OscConfig+0x508>)
 8003f24:	f043 0301 	orr.w	r3, r3, #1
 8003f28:	6713      	str	r3, [r2, #112]	; 0x70
 8003f2a:	e05b      	b.n	8003fe4 <HAL_RCC_OscConfig+0x590>
 8003f2c:	687b      	ldr	r3, [r7, #4]
 8003f2e:	689b      	ldr	r3, [r3, #8]
 8003f30:	2b00      	cmp	r3, #0
 8003f32:	d117      	bne.n	8003f64 <HAL_RCC_OscConfig+0x510>
 8003f34:	4b09      	ldr	r3, [pc, #36]	; (8003f5c <HAL_RCC_OscConfig+0x508>)
 8003f36:	6f1b      	ldr	r3, [r3, #112]	; 0x70
 8003f38:	4a08      	ldr	r2, [pc, #32]	; (8003f5c <HAL_RCC_OscConfig+0x508>)
 8003f3a:	f023 0301 	bic.w	r3, r3, #1
 8003f3e:	6713      	str	r3, [r2, #112]	; 0x70
 8003f40:	4b06      	ldr	r3, [pc, #24]	; (8003f5c <HAL_RCC_OscConfig+0x508>)
 8003f42:	6f1b      	ldr	r3, [r3, #112]	; 0x70
 8003f44:	4a05      	ldr	r2, [pc, #20]	; (8003f5c <HAL_RCC_OscConfig+0x508>)
 8003f46:	f023 0380 	bic.w	r3, r3, #128	; 0x80
 8003f4a:	6713      	str	r3, [r2, #112]	; 0x70
 8003f4c:	4b03      	ldr	r3, [pc, #12]	; (8003f5c <HAL_RCC_OscConfig+0x508>)
 8003f4e:	6f1b      	ldr	r3, [r3, #112]	; 0x70
 8003f50:	4a02      	ldr	r2, [pc, #8]	; (8003f5c <HAL_RCC_OscConfig+0x508>)
 8003f52:	f023 0304 	bic.w	r3, r3, #4
 8003f56:	6713      	str	r3, [r2, #112]	; 0x70
 8003f58:	e044      	b.n	8003fe4 <HAL_RCC_OscConfig+0x590>
 8003f5a:	bf00      	nop
 8003f5c:	58024400 	.word	0x58024400
 8003f60:	58024800 	.word	0x58024800
 8003f64:	687b      	ldr	r3, [r7, #4]
 8003f66:	689b      	ldr	r3, [r3, #8]
 8003f68:	2b05      	cmp	r3, #5
 8003f6a:	d112      	bne.n	8003f92 <HAL_RCC_OscConfig+0x53e>
 8003f6c:	4b95      	ldr	r3, [pc, #596]	; (80041c4 <HAL_RCC_OscConfig+0x770>)
 8003f6e:	6f1b      	ldr	r3, [r3, #112]	; 0x70
 8003f70:	4a94      	ldr	r2, [pc, #592]	; (80041c4 <HAL_RCC_OscConfig+0x770>)
 8003f72:	f043 0304 	orr.w	r3, r3, #4
 8003f76:	6713      	str	r3, [r2, #112]	; 0x70
 8003f78:	4b92      	ldr	r3, [pc, #584]	; (80041c4 <HAL_RCC_OscConfig+0x770>)
 8003f7a:	6f1b      	ldr	r3, [r3, #112]	; 0x70
 8003f7c:	4a91      	ldr	r2, [pc, #580]	; (80041c4 <HAL_RCC_OscConfig+0x770>)
 8003f7e:	f023 0380 	bic.w	r3, r3, #128	; 0x80
 8003f82:	6713      	str	r3, [r2, #112]	; 0x70
 8003f84:	4b8f      	ldr	r3, [pc, #572]	; (80041c4 <HAL_RCC_OscConfig+0x770>)
 8003f86:	6f1b      	ldr	r3, [r3, #112]	; 0x70
 8003f88:	4a8e      	ldr	r2, [pc, #568]	; (80041c4 <HAL_RCC_OscConfig+0x770>)
 8003f8a:	f043 0301 	orr.w	r3, r3, #1
 8003f8e:	6713      	str	r3, [r2, #112]	; 0x70
 8003f90:	e028      	b.n	8003fe4 <HAL_RCC_OscConfig+0x590>
 8003f92:	687b      	ldr	r3, [r7, #4]
 8003f94:	689b      	ldr	r3, [r3, #8]
 8003f96:	2b85      	cmp	r3, #133	; 0x85
 8003f98:	d112      	bne.n	8003fc0 <HAL_RCC_OscConfig+0x56c>
 8003f9a:	4b8a      	ldr	r3, [pc, #552]	; (80041c4 <HAL_RCC_OscConfig+0x770>)
 8003f9c:	6f1b      	ldr	r3, [r3, #112]	; 0x70
 8003f9e:	4a89      	ldr	r2, [pc, #548]	; (80041c4 <HAL_RCC_OscConfig+0x770>)
 8003fa0:	f043 0304 	orr.w	r3, r3, #4
 8003fa4:	6713      	str	r3, [r2, #112]	; 0x70
 8003fa6:	4b87      	ldr	r3, [pc, #540]	; (80041c4 <HAL_RCC_OscConfig+0x770>)
 8003fa8:	6f1b      	ldr	r3, [r3, #112]	; 0x70
 8003faa:	4a86      	ldr	r2, [pc, #536]	; (80041c4 <HAL_RCC_OscConfig+0x770>)
 8003fac:	f043 0380 	orr.w	r3, r3, #128	; 0x80
 8003fb0:	6713      	str	r3, [r2, #112]	; 0x70
 8003fb2:	4b84      	ldr	r3, [pc, #528]	; (80041c4 <HAL_RCC_OscConfig+0x770>)
 8003fb4:	6f1b      	ldr	r3, [r3, #112]	; 0x70
 8003fb6:	4a83      	ldr	r2, [pc, #524]	; (80041c4 <HAL_RCC_OscConfig+0x770>)
 8003fb8:	f043 0301 	orr.w	r3, r3, #1
 8003fbc:	6713      	str	r3, [r2, #112]	; 0x70
 8003fbe:	e011      	b.n	8003fe4 <HAL_RCC_OscConfig+0x590>
 8003fc0:	4b80      	ldr	r3, [pc, #512]	; (80041c4 <HAL_RCC_OscConfig+0x770>)
 8003fc2:	6f1b      	ldr	r3, [r3, #112]	; 0x70
 8003fc4:	4a7f      	ldr	r2, [pc, #508]	; (80041c4 <HAL_RCC_OscConfig+0x770>)
 8003fc6:	f023 0301 	bic.w	r3, r3, #1
 8003fca:	6713      	str	r3, [r2, #112]	; 0x70
 8003fcc:	4b7d      	ldr	r3, [pc, #500]	; (80041c4 <HAL_RCC_OscConfig+0x770>)
 8003fce:	6f1b      	ldr	r3, [r3, #112]	; 0x70
 8003fd0:	4a7c      	ldr	r2, [pc, #496]	; (80041c4 <HAL_RCC_OscConfig+0x770>)
 8003fd2:	f023 0304 	bic.w	r3, r3, #4
 8003fd6:	6713      	str	r3, [r2, #112]	; 0x70
 8003fd8:	4b7a      	ldr	r3, [pc, #488]	; (80041c4 <HAL_RCC_OscConfig+0x770>)
 8003fda:	6f1b      	ldr	r3, [r3, #112]	; 0x70
 8003fdc:	4a79      	ldr	r2, [pc, #484]	; (80041c4 <HAL_RCC_OscConfig+0x770>)
 8003fde:	f023 0380 	bic.w	r3, r3, #128	; 0x80
 8003fe2:	6713      	str	r3, [r2, #112]	; 0x70
    /* Check the LSE State */
    if((RCC_OscInitStruct->LSEState) != RCC_LSE_OFF)
 8003fe4:	687b      	ldr	r3, [r7, #4]
 8003fe6:	689b      	ldr	r3, [r3, #8]
 8003fe8:	2b00      	cmp	r3, #0
 8003fea:	d015      	beq.n	8004018 <HAL_RCC_OscConfig+0x5c4>
    {
      /* Get Start Tick*/
      tickstart = HAL_GetTick();
 8003fec:	f7fd fc74 	bl	80018d8 <HAL_GetTick>
 8003ff0:	6278      	str	r0, [r7, #36]	; 0x24

      /* Wait till LSE is ready */
      while(__HAL_RCC_GET_FLAG(RCC_FLAG_LSERDY) == 0U)
 8003ff2:	e00a      	b.n	800400a <HAL_RCC_OscConfig+0x5b6>
      {
        if((HAL_GetTick() - tickstart ) > RCC_LSE_TIMEOUT_VALUE)
 8003ff4:	f7fd fc70 	bl	80018d8 <HAL_GetTick>
 8003ff8:	4602      	mov	r2, r0
 8003ffa:	6a7b      	ldr	r3, [r7, #36]	; 0x24
 8003ffc:	1ad3      	subs	r3, r2, r3
 8003ffe:	f241 3288 	movw	r2, #5000	; 0x1388
 8004002:	4293      	cmp	r3, r2
 8004004:	d901      	bls.n	800400a <HAL_RCC_OscConfig+0x5b6>
        {
          return HAL_TIMEOUT;
 8004006:	2303      	movs	r3, #3
 8004008:	e121      	b.n	800424e <HAL_RCC_OscConfig+0x7fa>
      while(__HAL_RCC_GET_FLAG(RCC_FLAG_LSERDY) == 0U)
 800400a:	4b6e      	ldr	r3, [pc, #440]	; (80041c4 <HAL_RCC_OscConfig+0x770>)
 800400c:	6f1b      	ldr	r3, [r3, #112]	; 0x70
 800400e:	f003 0302 	and.w	r3, r3, #2
 8004012:	2b00      	cmp	r3, #0
 8004014:	d0ee      	beq.n	8003ff4 <HAL_RCC_OscConfig+0x5a0>
 8004016:	e014      	b.n	8004042 <HAL_RCC_OscConfig+0x5ee>
      }
    }
    else
    {
      /* Get Start Tick*/
      tickstart = HAL_GetTick();
 8004018:	f7fd fc5e 	bl	80018d8 <HAL_GetTick>
 800401c:	6278      	str	r0, [r7, #36]	; 0x24

      /* Wait till LSE is disabled */
      while(__HAL_RCC_GET_FLAG(RCC_FLAG_LSERDY) != 0U)
 800401e:	e00a      	b.n	8004036 <HAL_RCC_OscConfig+0x5e2>
      {
        if((HAL_GetTick() - tickstart ) > RCC_LSE_TIMEOUT_VALUE)
 8004020:	f7fd fc5a 	bl	80018d8 <HAL_GetTick>
 8004024:	4602      	mov	r2, r0
 8004026:	6a7b      	ldr	r3, [r7, #36]	; 0x24
 8004028:	1ad3      	subs	r3, r2, r3
 800402a:	f241 3288 	movw	r2, #5000	; 0x1388
 800402e:	4293      	cmp	r3, r2
 8004030:	d901      	bls.n	8004036 <HAL_RCC_OscConfig+0x5e2>
        {
          return HAL_TIMEOUT;
 8004032:	2303      	movs	r3, #3
 8004034:	e10b      	b.n	800424e <HAL_RCC_OscConfig+0x7fa>
      while(__HAL_RCC_GET_FLAG(RCC_FLAG_LSERDY) != 0U)
 8004036:	4b63      	ldr	r3, [pc, #396]	; (80041c4 <HAL_RCC_OscConfig+0x770>)
 8004038:	6f1b      	ldr	r3, [r3, #112]	; 0x70
 800403a:	f003 0302 	and.w	r3, r3, #2
 800403e:	2b00      	cmp	r3, #0
 8004040:	d1ee      	bne.n	8004020 <HAL_RCC_OscConfig+0x5cc>
    }
  }
  /*-------------------------------- PLL Configuration -----------------------*/
  /* Check the parameters */
  assert_param(IS_RCC_PLL(RCC_OscInitStruct->PLL.PLLState));
  if ((RCC_OscInitStruct->PLL.PLLState) != RCC_PLL_NONE)
 8004042:	687b      	ldr	r3, [r7, #4]
 8004044:	6a5b      	ldr	r3, [r3, #36]	; 0x24
 8004046:	2b00      	cmp	r3, #0
 8004048:	f000 8100 	beq.w	800424c <HAL_RCC_OscConfig+0x7f8>
  {
    /* Check if the PLL is used as system clock or not */
    if(__HAL_RCC_GET_SYSCLK_SOURCE() != RCC_CFGR_SWS_PLL1)
 800404c:	4b5d      	ldr	r3, [pc, #372]	; (80041c4 <HAL_RCC_OscConfig+0x770>)
 800404e:	691b      	ldr	r3, [r3, #16]
 8004050:	f003 0338 	and.w	r3, r3, #56	; 0x38
 8004054:	2b18      	cmp	r3, #24
 8004056:	f000 80bb 	beq.w	80041d0 <HAL_RCC_OscConfig+0x77c>
    {
      if((RCC_OscInitStruct->PLL.PLLState) == RCC_PLL_ON)
 800405a:	687b      	ldr	r3, [r7, #4]
 800405c:	6a5b      	ldr	r3, [r3, #36]	; 0x24
 800405e:	2b02      	cmp	r3, #2
 8004060:	f040 8095 	bne.w	800418e <HAL_RCC_OscConfig+0x73a>
        assert_param(IS_RCC_PLLQ_VALUE(RCC_OscInitStruct->PLL.PLLQ));
        assert_param(IS_RCC_PLLR_VALUE(RCC_OscInitStruct->PLL.PLLR));
        assert_param(IS_RCC_PLLFRACN_VALUE(RCC_OscInitStruct->PLL.PLLFRACN));

        /* Disable the main PLL. */
        __HAL_RCC_PLL_DISABLE();
 8004064:	4b57      	ldr	r3, [pc, #348]	; (80041c4 <HAL_RCC_OscConfig+0x770>)
 8004066:	681b      	ldr	r3, [r3, #0]
 8004068:	4a56      	ldr	r2, [pc, #344]	; (80041c4 <HAL_RCC_OscConfig+0x770>)
 800406a:	f023 7380 	bic.w	r3, r3, #16777216	; 0x1000000
 800406e:	6013      	str	r3, [r2, #0]

        /* Get Start Tick*/
        tickstart = HAL_GetTick();
 8004070:	f7fd fc32 	bl	80018d8 <HAL_GetTick>
 8004074:	6278      	str	r0, [r7, #36]	; 0x24

        /* Wait till PLL is disabled */
        while(__HAL_RCC_GET_FLAG(RCC_FLAG_PLLRDY) != 0U)
 8004076:	e008      	b.n	800408a <HAL_RCC_OscConfig+0x636>
        {
          if((HAL_GetTick() - tickstart ) > PLL_TIMEOUT_VALUE)
 8004078:	f7fd fc2e 	bl	80018d8 <HAL_GetTick>
 800407c:	4602      	mov	r2, r0
 800407e:	6a7b      	ldr	r3, [r7, #36]	; 0x24
 8004080:	1ad3      	subs	r3, r2, r3
 8004082:	2b02      	cmp	r3, #2
 8004084:	d901      	bls.n	800408a <HAL_RCC_OscConfig+0x636>
          {
            return HAL_TIMEOUT;
 8004086:	2303      	movs	r3, #3
 8004088:	e0e1      	b.n	800424e <HAL_RCC_OscConfig+0x7fa>
        while(__HAL_RCC_GET_FLAG(RCC_FLAG_PLLRDY) != 0U)
 800408a:	4b4e      	ldr	r3, [pc, #312]	; (80041c4 <HAL_RCC_OscConfig+0x770>)
 800408c:	681b      	ldr	r3, [r3, #0]
 800408e:	f003 7300 	and.w	r3, r3, #33554432	; 0x2000000
 8004092:	2b00      	cmp	r3, #0
 8004094:	d1f0      	bne.n	8004078 <HAL_RCC_OscConfig+0x624>
          }
        }

        /* Configure the main PLL clock source, multiplication and division factors. */
        __HAL_RCC_PLL_CONFIG(RCC_OscInitStruct->PLL.PLLSource,
 8004096:	4b4b      	ldr	r3, [pc, #300]	; (80041c4 <HAL_RCC_OscConfig+0x770>)
 8004098:	6a9a      	ldr	r2, [r3, #40]	; 0x28
 800409a:	4b4b      	ldr	r3, [pc, #300]	; (80041c8 <HAL_RCC_OscConfig+0x774>)
 800409c:	4013      	ands	r3, r2
 800409e:	687a      	ldr	r2, [r7, #4]
 80040a0:	6a91      	ldr	r1, [r2, #40]	; 0x28
 80040a2:	687a      	ldr	r2, [r7, #4]
 80040a4:	6ad2      	ldr	r2, [r2, #44]	; 0x2c
 80040a6:	0112      	lsls	r2, r2, #4
 80040a8:	430a      	orrs	r2, r1
 80040aa:	4946      	ldr	r1, [pc, #280]	; (80041c4 <HAL_RCC_OscConfig+0x770>)
 80040ac:	4313      	orrs	r3, r2
 80040ae:	628b      	str	r3, [r1, #40]	; 0x28
 80040b0:	687b      	ldr	r3, [r7, #4]
 80040b2:	6b1b      	ldr	r3, [r3, #48]	; 0x30
 80040b4:	3b01      	subs	r3, #1
 80040b6:	f3c3 0208 	ubfx	r2, r3, #0, #9
 80040ba:	687b      	ldr	r3, [r7, #4]
 80040bc:	6b5b      	ldr	r3, [r3, #52]	; 0x34
 80040be:	3b01      	subs	r3, #1
 80040c0:	025b      	lsls	r3, r3, #9
 80040c2:	b29b      	uxth	r3, r3
 80040c4:	431a      	orrs	r2, r3
 80040c6:	687b      	ldr	r3, [r7, #4]
 80040c8:	6b9b      	ldr	r3, [r3, #56]	; 0x38
 80040ca:	3b01      	subs	r3, #1
 80040cc:	041b      	lsls	r3, r3, #16
 80040ce:	f403 03fe 	and.w	r3, r3, #8323072	; 0x7f0000
 80040d2:	431a      	orrs	r2, r3
 80040d4:	687b      	ldr	r3, [r7, #4]
 80040d6:	6bdb      	ldr	r3, [r3, #60]	; 0x3c
 80040d8:	3b01      	subs	r3, #1
 80040da:	061b      	lsls	r3, r3, #24
 80040dc:	f003 43fe 	and.w	r3, r3, #2130706432	; 0x7f000000
 80040e0:	4938      	ldr	r1, [pc, #224]	; (80041c4 <HAL_RCC_OscConfig+0x770>)
 80040e2:	4313      	orrs	r3, r2
 80040e4:	630b      	str	r3, [r1, #48]	; 0x30
                             RCC_OscInitStruct->PLL.PLLP,
                             RCC_OscInitStruct->PLL.PLLQ,
                             RCC_OscInitStruct->PLL.PLLR);

         /* Disable PLLFRACN . */
         __HAL_RCC_PLLFRACN_DISABLE();
 80040e6:	4b37      	ldr	r3, [pc, #220]	; (80041c4 <HAL_RCC_OscConfig+0x770>)
 80040e8:	6adb      	ldr	r3, [r3, #44]	; 0x2c
 80040ea:	4a36      	ldr	r2, [pc, #216]	; (80041c4 <HAL_RCC_OscConfig+0x770>)
 80040ec:	f023 0301 	bic.w	r3, r3, #1
 80040f0:	62d3      	str	r3, [r2, #44]	; 0x2c

         /* Configure PLL PLL1FRACN */
         __HAL_RCC_PLLFRACN_CONFIG(RCC_OscInitStruct->PLL.PLLFRACN);
 80040f2:	4b34      	ldr	r3, [pc, #208]	; (80041c4 <HAL_RCC_OscConfig+0x770>)
 80040f4:	6b5a      	ldr	r2, [r3, #52]	; 0x34
 80040f6:	4b35      	ldr	r3, [pc, #212]	; (80041cc <HAL_RCC_OscConfig+0x778>)
 80040f8:	4013      	ands	r3, r2
 80040fa:	687a      	ldr	r2, [r7, #4]
 80040fc:	6c92      	ldr	r2, [r2, #72]	; 0x48
 80040fe:	00d2      	lsls	r2, r2, #3
 8004100:	4930      	ldr	r1, [pc, #192]	; (80041c4 <HAL_RCC_OscConfig+0x770>)
 8004102:	4313      	orrs	r3, r2
 8004104:	634b      	str	r3, [r1, #52]	; 0x34

        /* Select PLL1 input reference frequency range: VCI */
        __HAL_RCC_PLL_VCIRANGE(RCC_OscInitStruct->PLL.PLLRGE) ;
 8004106:	4b2f      	ldr	r3, [pc, #188]	; (80041c4 <HAL_RCC_OscConfig+0x770>)
 8004108:	6adb      	ldr	r3, [r3, #44]	; 0x2c
 800410a:	f023 020c 	bic.w	r2, r3, #12
 800410e:	687b      	ldr	r3, [r7, #4]
 8004110:	6c1b      	ldr	r3, [r3, #64]	; 0x40
 8004112:	492c      	ldr	r1, [pc, #176]	; (80041c4 <HAL_RCC_OscConfig+0x770>)
 8004114:	4313      	orrs	r3, r2
 8004116:	62cb      	str	r3, [r1, #44]	; 0x2c

        /* Select PLL1 output frequency range : VCO */
        __HAL_RCC_PLL_VCORANGE(RCC_OscInitStruct->PLL.PLLVCOSEL) ;
 8004118:	4b2a      	ldr	r3, [pc, #168]	; (80041c4 <HAL_RCC_OscConfig+0x770>)
 800411a:	6adb      	ldr	r3, [r3, #44]	; 0x2c
 800411c:	f023 0202 	bic.w	r2, r3, #2
 8004120:	687b      	ldr	r3, [r7, #4]
 8004122:	6c5b      	ldr	r3, [r3, #68]	; 0x44
 8004124:	4927      	ldr	r1, [pc, #156]	; (80041c4 <HAL_RCC_OscConfig+0x770>)
 8004126:	4313      	orrs	r3, r2
 8004128:	62cb      	str	r3, [r1, #44]	; 0x2c

        /* Enable PLL System Clock output. */
         __HAL_RCC_PLLCLKOUT_ENABLE(RCC_PLL1_DIVP);
 800412a:	4b26      	ldr	r3, [pc, #152]	; (80041c4 <HAL_RCC_OscConfig+0x770>)
 800412c:	6adb      	ldr	r3, [r3, #44]	; 0x2c
 800412e:	4a25      	ldr	r2, [pc, #148]	; (80041c4 <HAL_RCC_OscConfig+0x770>)
 8004130:	f443 3380 	orr.w	r3, r3, #65536	; 0x10000
 8004134:	62d3      	str	r3, [r2, #44]	; 0x2c

        /* Enable PLL1Q Clock output. */
         __HAL_RCC_PLLCLKOUT_ENABLE(RCC_PLL1_DIVQ);
 8004136:	4b23      	ldr	r3, [pc, #140]	; (80041c4 <HAL_RCC_OscConfig+0x770>)
 8004138:	6adb      	ldr	r3, [r3, #44]	; 0x2c
 800413a:	4a22      	ldr	r2, [pc, #136]	; (80041c4 <HAL_RCC_OscConfig+0x770>)
 800413c:	f443 3300 	orr.w	r3, r3, #131072	; 0x20000
 8004140:	62d3      	str	r3, [r2, #44]	; 0x2c

        /* Enable PLL1R  Clock output. */
         __HAL_RCC_PLLCLKOUT_ENABLE(RCC_PLL1_DIVR);
 8004142:	4b20      	ldr	r3, [pc, #128]	; (80041c4 <HAL_RCC_OscConfig+0x770>)
 8004144:	6adb      	ldr	r3, [r3, #44]	; 0x2c
 8004146:	4a1f      	ldr	r2, [pc, #124]	; (80041c4 <HAL_RCC_OscConfig+0x770>)
 8004148:	f443 2380 	orr.w	r3, r3, #262144	; 0x40000
 800414c:	62d3      	str	r3, [r2, #44]	; 0x2c

        /* Enable PLL1FRACN . */
         __HAL_RCC_PLLFRACN_ENABLE();
 800414e:	4b1d      	ldr	r3, [pc, #116]	; (80041c4 <HAL_RCC_OscConfig+0x770>)
 8004150:	6adb      	ldr	r3, [r3, #44]	; 0x2c
 8004152:	4a1c      	ldr	r2, [pc, #112]	; (80041c4 <HAL_RCC_OscConfig+0x770>)
 8004154:	f043 0301 	orr.w	r3, r3, #1
 8004158:	62d3      	str	r3, [r2, #44]	; 0x2c

        /* Enable the main PLL. */
        __HAL_RCC_PLL_ENABLE();
 800415a:	4b1a      	ldr	r3, [pc, #104]	; (80041c4 <HAL_RCC_OscConfig+0x770>)
 800415c:	681b      	ldr	r3, [r3, #0]
 800415e:	4a19      	ldr	r2, [pc, #100]	; (80041c4 <HAL_RCC_OscConfig+0x770>)
 8004160:	f043 7380 	orr.w	r3, r3, #16777216	; 0x1000000
 8004164:	6013      	str	r3, [r2, #0]

        /* Get Start Tick*/
        tickstart = HAL_GetTick();
 8004166:	f7fd fbb7 	bl	80018d8 <HAL_GetTick>
 800416a:	6278      	str	r0, [r7, #36]	; 0x24

        /* Wait till PLL is ready */
        while(__HAL_RCC_GET_FLAG(RCC_FLAG_PLLRDY) == 0U)
 800416c:	e008      	b.n	8004180 <HAL_RCC_OscConfig+0x72c>
        {
          if((HAL_GetTick() - tickstart ) > PLL_TIMEOUT_VALUE)
 800416e:	f7fd fbb3 	bl	80018d8 <HAL_GetTick>
 8004172:	4602      	mov	r2, r0
 8004174:	6a7b      	ldr	r3, [r7, #36]	; 0x24
 8004176:	1ad3      	subs	r3, r2, r3
 8004178:	2b02      	cmp	r3, #2
 800417a:	d901      	bls.n	8004180 <HAL_RCC_OscConfig+0x72c>
          {
            return HAL_TIMEOUT;
 800417c:	2303      	movs	r3, #3
 800417e:	e066      	b.n	800424e <HAL_RCC_OscConfig+0x7fa>
        while(__HAL_RCC_GET_FLAG(RCC_FLAG_PLLRDY) == 0U)
 8004180:	4b10      	ldr	r3, [pc, #64]	; (80041c4 <HAL_RCC_OscConfig+0x770>)
 8004182:	681b      	ldr	r3, [r3, #0]
 8004184:	f003 7300 	and.w	r3, r3, #33554432	; 0x2000000
 8004188:	2b00      	cmp	r3, #0
 800418a:	d0f0      	beq.n	800416e <HAL_RCC_OscConfig+0x71a>
 800418c:	e05e      	b.n	800424c <HAL_RCC_OscConfig+0x7f8>
        }
      }
      else
      {
        /* Disable the main PLL. */
        __HAL_RCC_PLL_DISABLE();
 800418e:	4b0d      	ldr	r3, [pc, #52]	; (80041c4 <HAL_RCC_OscConfig+0x770>)
 8004190:	681b      	ldr	r3, [r3, #0]
 8004192:	4a0c      	ldr	r2, [pc, #48]	; (80041c4 <HAL_RCC_OscConfig+0x770>)
 8004194:	f023 7380 	bic.w	r3, r3, #16777216	; 0x1000000
 8004198:	6013      	str	r3, [r2, #0]

        /* Get Start Tick*/
        tickstart = HAL_GetTick();
 800419a:	f7fd fb9d 	bl	80018d8 <HAL_GetTick>
 800419e:	6278      	str	r0, [r7, #36]	; 0x24

        /* Wait till PLL is disabled */
        while(__HAL_RCC_GET_FLAG(RCC_FLAG_PLLRDY) != 0U)
 80041a0:	e008      	b.n	80041b4 <HAL_RCC_OscConfig+0x760>
        {
          if((HAL_GetTick() - tickstart ) > PLL_TIMEOUT_VALUE)
 80041a2:	f7fd fb99 	bl	80018d8 <HAL_GetTick>
 80041a6:	4602      	mov	r2, r0
 80041a8:	6a7b      	ldr	r3, [r7, #36]	; 0x24
 80041aa:	1ad3      	subs	r3, r2, r3
 80041ac:	2b02      	cmp	r3, #2
 80041ae:	d901      	bls.n	80041b4 <HAL_RCC_OscConfig+0x760>
          {
            return HAL_TIMEOUT;
 80041b0:	2303      	movs	r3, #3
 80041b2:	e04c      	b.n	800424e <HAL_RCC_OscConfig+0x7fa>
        while(__HAL_RCC_GET_FLAG(RCC_FLAG_PLLRDY) != 0U)
 80041b4:	4b03      	ldr	r3, [pc, #12]	; (80041c4 <HAL_RCC_OscConfig+0x770>)
 80041b6:	681b      	ldr	r3, [r3, #0]
 80041b8:	f003 7300 	and.w	r3, r3, #33554432	; 0x2000000
 80041bc:	2b00      	cmp	r3, #0
 80041be:	d1f0      	bne.n	80041a2 <HAL_RCC_OscConfig+0x74e>
 80041c0:	e044      	b.n	800424c <HAL_RCC_OscConfig+0x7f8>
 80041c2:	bf00      	nop
 80041c4:	58024400 	.word	0x58024400
 80041c8:	fffffc0c 	.word	0xfffffc0c
 80041cc:	ffff0007 	.word	0xffff0007
      }
    }
    else
    {
      /* Do not return HAL_ERROR if request repeats the current configuration */
      temp1_pllckcfg = RCC->PLLCKSELR;
 80041d0:	4b21      	ldr	r3, [pc, #132]	; (8004258 <HAL_RCC_OscConfig+0x804>)
 80041d2:	6a9b      	ldr	r3, [r3, #40]	; 0x28
 80041d4:	613b      	str	r3, [r7, #16]
      temp2_pllckcfg = RCC->PLL1DIVR;
 80041d6:	4b20      	ldr	r3, [pc, #128]	; (8004258 <HAL_RCC_OscConfig+0x804>)
 80041d8:	6b1b      	ldr	r3, [r3, #48]	; 0x30
 80041da:	60fb      	str	r3, [r7, #12]
      if(((RCC_OscInitStruct->PLL.PLLState) == RCC_PLL_OFF) ||
 80041dc:	687b      	ldr	r3, [r7, #4]
 80041de:	6a5b      	ldr	r3, [r3, #36]	; 0x24
 80041e0:	2b01      	cmp	r3, #1
 80041e2:	d031      	beq.n	8004248 <HAL_RCC_OscConfig+0x7f4>
	 (READ_BIT(temp1_pllckcfg, RCC_PLLCKSELR_PLLSRC) != RCC_OscInitStruct->PLL.PLLSource) ||
 80041e4:	693b      	ldr	r3, [r7, #16]
 80041e6:	f003 0203 	and.w	r2, r3, #3
 80041ea:	687b      	ldr	r3, [r7, #4]
 80041ec:	6a9b      	ldr	r3, [r3, #40]	; 0x28
      if(((RCC_OscInitStruct->PLL.PLLState) == RCC_PLL_OFF) ||
 80041ee:	429a      	cmp	r2, r3
 80041f0:	d12a      	bne.n	8004248 <HAL_RCC_OscConfig+0x7f4>
         ((READ_BIT(temp1_pllckcfg, RCC_PLLCKSELR_DIVM1) >> RCC_PLLCKSELR_DIVM1_Pos) != RCC_OscInitStruct->PLL.PLLM) ||
 80041f2:	693b      	ldr	r3, [r7, #16]
 80041f4:	091b      	lsrs	r3, r3, #4
 80041f6:	f003 023f 	and.w	r2, r3, #63	; 0x3f
 80041fa:	687b      	ldr	r3, [r7, #4]
 80041fc:	6adb      	ldr	r3, [r3, #44]	; 0x2c
	 (READ_BIT(temp1_pllckcfg, RCC_PLLCKSELR_PLLSRC) != RCC_OscInitStruct->PLL.PLLSource) ||
 80041fe:	429a      	cmp	r2, r3
 8004200:	d122      	bne.n	8004248 <HAL_RCC_OscConfig+0x7f4>
         (READ_BIT(temp2_pllckcfg, RCC_PLL1DIVR_N1) != (RCC_OscInitStruct->PLL.PLLN - 1U)) ||
 8004202:	68fb      	ldr	r3, [r7, #12]
 8004204:	f3c3 0208 	ubfx	r2, r3, #0, #9
 8004208:	687b      	ldr	r3, [r7, #4]
 800420a:	6b1b      	ldr	r3, [r3, #48]	; 0x30
 800420c:	3b01      	subs	r3, #1
         ((READ_BIT(temp1_pllckcfg, RCC_PLLCKSELR_DIVM1) >> RCC_PLLCKSELR_DIVM1_Pos) != RCC_OscInitStruct->PLL.PLLM) ||
 800420e:	429a      	cmp	r2, r3
 8004210:	d11a      	bne.n	8004248 <HAL_RCC_OscConfig+0x7f4>
         ((READ_BIT(temp2_pllckcfg, RCC_PLL1DIVR_P1) >> RCC_PLL1DIVR_P1_Pos) != (RCC_OscInitStruct->PLL.PLLP - 1U)) ||
 8004212:	68fb      	ldr	r3, [r7, #12]
 8004214:	0a5b      	lsrs	r3, r3, #9
 8004216:	f003 027f 	and.w	r2, r3, #127	; 0x7f
 800421a:	687b      	ldr	r3, [r7, #4]
 800421c:	6b5b      	ldr	r3, [r3, #52]	; 0x34
 800421e:	3b01      	subs	r3, #1
         (READ_BIT(temp2_pllckcfg, RCC_PLL1DIVR_N1) != (RCC_OscInitStruct->PLL.PLLN - 1U)) ||
 8004220:	429a      	cmp	r2, r3
 8004222:	d111      	bne.n	8004248 <HAL_RCC_OscConfig+0x7f4>
         ((READ_BIT(temp2_pllckcfg, RCC_PLL1DIVR_Q1) >> RCC_PLL1DIVR_Q1_Pos) != (RCC_OscInitStruct->PLL.PLLQ - 1U)) ||
 8004224:	68fb      	ldr	r3, [r7, #12]
 8004226:	0c1b      	lsrs	r3, r3, #16
 8004228:	f003 027f 	and.w	r2, r3, #127	; 0x7f
 800422c:	687b      	ldr	r3, [r7, #4]
 800422e:	6b9b      	ldr	r3, [r3, #56]	; 0x38
 8004230:	3b01      	subs	r3, #1
         ((READ_BIT(temp2_pllckcfg, RCC_PLL1DIVR_P1) >> RCC_PLL1DIVR_P1_Pos) != (RCC_OscInitStruct->PLL.PLLP - 1U)) ||
 8004232:	429a      	cmp	r2, r3
 8004234:	d108      	bne.n	8004248 <HAL_RCC_OscConfig+0x7f4>
         ((READ_BIT(temp2_pllckcfg, RCC_PLL1DIVR_R1) >> RCC_PLL1DIVR_R1_Pos) != (RCC_OscInitStruct->PLL.PLLR - 1U)))
 8004236:	68fb      	ldr	r3, [r7, #12]
 8004238:	0e1b      	lsrs	r3, r3, #24
 800423a:	f003 027f 	and.w	r2, r3, #127	; 0x7f
 800423e:	687b      	ldr	r3, [r7, #4]
 8004240:	6bdb      	ldr	r3, [r3, #60]	; 0x3c
 8004242:	3b01      	subs	r3, #1
         ((READ_BIT(temp2_pllckcfg, RCC_PLL1DIVR_Q1) >> RCC_PLL1DIVR_Q1_Pos) != (RCC_OscInitStruct->PLL.PLLQ - 1U)) ||
 8004244:	429a      	cmp	r2, r3
 8004246:	d001      	beq.n	800424c <HAL_RCC_OscConfig+0x7f8>
      {
        return HAL_ERROR;
 8004248:	2301      	movs	r3, #1
 800424a:	e000      	b.n	800424e <HAL_RCC_OscConfig+0x7fa>
      }
    }
  }
  return HAL_OK;
 800424c:	2300      	movs	r3, #0
}
 800424e:	4618      	mov	r0, r3
 8004250:	3730      	adds	r7, #48	; 0x30
 8004252:	46bd      	mov	sp, r7
 8004254:	bd80      	pop	{r7, pc}
 8004256:	bf00      	nop
 8004258:	58024400 	.word	0x58024400

0800425c <HAL_RCC_ClockConfig>:
  *         D1CPRE[3:0] bits to ensure that  Domain1 core clock not exceed the maximum allowed frequency
  *         (for more details refer to section above "Initialization/de-initialization functions")
  * @retval None
  */
HAL_StatusTypeDef HAL_RCC_ClockConfig(RCC_ClkInitTypeDef  *RCC_ClkInitStruct, uint32_t FLatency)
{
 800425c:	b580      	push	{r7, lr}
 800425e:	b086      	sub	sp, #24
 8004260:	af00      	add	r7, sp, #0
 8004262:	6078      	str	r0, [r7, #4]
 8004264:	6039      	str	r1, [r7, #0]
  HAL_StatusTypeDef halstatus;
  uint32_t tickstart;
  uint32_t common_system_clock;

   /* Check Null pointer */
  if(RCC_ClkInitStruct == NULL)
 8004266:	687b      	ldr	r3, [r7, #4]
 8004268:	2b00      	cmp	r3, #0
 800426a:	d101      	bne.n	8004270 <HAL_RCC_ClockConfig+0x14>
  {
    return HAL_ERROR;
 800426c:	2301      	movs	r3, #1
 800426e:	e19c      	b.n	80045aa <HAL_RCC_ClockConfig+0x34e>
  /* To correctly read data from FLASH memory, the number of wait states (LATENCY)
    must be correctly programmed according to the frequency of the CPU clock
    (HCLK) and the supply voltage of the device. */

  /* Increasing the CPU frequency */
  if(FLatency > __HAL_FLASH_GET_LATENCY())
 8004270:	4b8a      	ldr	r3, [pc, #552]	; (800449c <HAL_RCC_ClockConfig+0x240>)
 8004272:	681b      	ldr	r3, [r3, #0]
 8004274:	f003 030f 	and.w	r3, r3, #15
 8004278:	683a      	ldr	r2, [r7, #0]
 800427a:	429a      	cmp	r2, r3
 800427c:	d910      	bls.n	80042a0 <HAL_RCC_ClockConfig+0x44>
  {
    /* Program the new number of wait states to the LATENCY bits in the FLASH_ACR register */
    __HAL_FLASH_SET_LATENCY(FLatency);
 800427e:	4b87      	ldr	r3, [pc, #540]	; (800449c <HAL_RCC_ClockConfig+0x240>)
 8004280:	681b      	ldr	r3, [r3, #0]
 8004282:	f023 020f 	bic.w	r2, r3, #15
 8004286:	4985      	ldr	r1, [pc, #532]	; (800449c <HAL_RCC_ClockConfig+0x240>)
 8004288:	683b      	ldr	r3, [r7, #0]
 800428a:	4313      	orrs	r3, r2
 800428c:	600b      	str	r3, [r1, #0]

    /* Check that the new number of wait states is taken into account to access the Flash
    memory by reading the FLASH_ACR register */
    if(__HAL_FLASH_GET_LATENCY() != FLatency)
 800428e:	4b83      	ldr	r3, [pc, #524]	; (800449c <HAL_RCC_ClockConfig+0x240>)
 8004290:	681b      	ldr	r3, [r3, #0]
 8004292:	f003 030f 	and.w	r3, r3, #15
 8004296:	683a      	ldr	r2, [r7, #0]
 8004298:	429a      	cmp	r2, r3
 800429a:	d001      	beq.n	80042a0 <HAL_RCC_ClockConfig+0x44>
    {
      return HAL_ERROR;
 800429c:	2301      	movs	r3, #1
 800429e:	e184      	b.n	80045aa <HAL_RCC_ClockConfig+0x34e>

  }

  /* Increasing the BUS frequency divider */
  /*-------------------------- D1PCLK1/CDPCLK1 Configuration ---------------------------*/
  if(((RCC_ClkInitStruct->ClockType) & RCC_CLOCKTYPE_D1PCLK1) == RCC_CLOCKTYPE_D1PCLK1)
 80042a0:	687b      	ldr	r3, [r7, #4]
 80042a2:	681b      	ldr	r3, [r3, #0]
 80042a4:	f003 0304 	and.w	r3, r3, #4
 80042a8:	2b00      	cmp	r3, #0
 80042aa:	d010      	beq.n	80042ce <HAL_RCC_ClockConfig+0x72>
    {
      assert_param(IS_RCC_D1PCLK1(RCC_ClkInitStruct->APB3CLKDivider));
      MODIFY_REG(RCC->D1CFGR, RCC_D1CFGR_D1PPRE, RCC_ClkInitStruct->APB3CLKDivider);
    }
#else
    if((RCC_ClkInitStruct->APB3CLKDivider) > (RCC->CDCFGR1 & RCC_CDCFGR1_CDPPRE))
 80042ac:	687b      	ldr	r3, [r7, #4]
 80042ae:	691a      	ldr	r2, [r3, #16]
 80042b0:	4b7b      	ldr	r3, [pc, #492]	; (80044a0 <HAL_RCC_ClockConfig+0x244>)
 80042b2:	699b      	ldr	r3, [r3, #24]
 80042b4:	f003 0370 	and.w	r3, r3, #112	; 0x70
 80042b8:	429a      	cmp	r2, r3
 80042ba:	d908      	bls.n	80042ce <HAL_RCC_ClockConfig+0x72>
    {
      assert_param(IS_RCC_CDPCLK1(RCC_ClkInitStruct->APB3CLKDivider));
      MODIFY_REG(RCC->CDCFGR1, RCC_CDCFGR1_CDPPRE, RCC_ClkInitStruct->APB3CLKDivider);
 80042bc:	4b78      	ldr	r3, [pc, #480]	; (80044a0 <HAL_RCC_ClockConfig+0x244>)
 80042be:	699b      	ldr	r3, [r3, #24]
 80042c0:	f023 0270 	bic.w	r2, r3, #112	; 0x70
 80042c4:	687b      	ldr	r3, [r7, #4]
 80042c6:	691b      	ldr	r3, [r3, #16]
 80042c8:	4975      	ldr	r1, [pc, #468]	; (80044a0 <HAL_RCC_ClockConfig+0x244>)
 80042ca:	4313      	orrs	r3, r2
 80042cc:	618b      	str	r3, [r1, #24]
    }
#endif
  }

  /*-------------------------- PCLK1 Configuration ---------------------------*/
  if(((RCC_ClkInitStruct->ClockType) & RCC_CLOCKTYPE_PCLK1) == RCC_CLOCKTYPE_PCLK1)
 80042ce:	687b      	ldr	r3, [r7, #4]
 80042d0:	681b      	ldr	r3, [r3, #0]
 80042d2:	f003 0308 	and.w	r3, r3, #8
 80042d6:	2b00      	cmp	r3, #0
 80042d8:	d010      	beq.n	80042fc <HAL_RCC_ClockConfig+0xa0>
    {
      assert_param(IS_RCC_PCLK1(RCC_ClkInitStruct->APB1CLKDivider));
      MODIFY_REG(RCC->D2CFGR, RCC_D2CFGR_D2PPRE1, (RCC_ClkInitStruct->APB1CLKDivider));
    }
#else
    if((RCC_ClkInitStruct->APB1CLKDivider) > (RCC->CDCFGR2 & RCC_CDCFGR2_CDPPRE1))
 80042da:	687b      	ldr	r3, [r7, #4]
 80042dc:	695a      	ldr	r2, [r3, #20]
 80042de:	4b70      	ldr	r3, [pc, #448]	; (80044a0 <HAL_RCC_ClockConfig+0x244>)
 80042e0:	69db      	ldr	r3, [r3, #28]
 80042e2:	f003 0370 	and.w	r3, r3, #112	; 0x70
 80042e6:	429a      	cmp	r2, r3
 80042e8:	d908      	bls.n	80042fc <HAL_RCC_ClockConfig+0xa0>
    {
      assert_param(IS_RCC_PCLK1(RCC_ClkInitStruct->APB1CLKDivider));
      MODIFY_REG(RCC->CDCFGR2, RCC_CDCFGR2_CDPPRE1, (RCC_ClkInitStruct->APB1CLKDivider));
 80042ea:	4b6d      	ldr	r3, [pc, #436]	; (80044a0 <HAL_RCC_ClockConfig+0x244>)
 80042ec:	69db      	ldr	r3, [r3, #28]
 80042ee:	f023 0270 	bic.w	r2, r3, #112	; 0x70
 80042f2:	687b      	ldr	r3, [r7, #4]
 80042f4:	695b      	ldr	r3, [r3, #20]
 80042f6:	496a      	ldr	r1, [pc, #424]	; (80044a0 <HAL_RCC_ClockConfig+0x244>)
 80042f8:	4313      	orrs	r3, r2
 80042fa:	61cb      	str	r3, [r1, #28]
  }
#endif
    }
  /*-------------------------- PCLK2 Configuration ---------------------------*/
  if(((RCC_ClkInitStruct->ClockType) & RCC_CLOCKTYPE_PCLK2) == RCC_CLOCKTYPE_PCLK2)
 80042fc:	687b      	ldr	r3, [r7, #4]
 80042fe:	681b      	ldr	r3, [r3, #0]
 8004300:	f003 0310 	and.w	r3, r3, #16
 8004304:	2b00      	cmp	r3, #0
 8004306:	d010      	beq.n	800432a <HAL_RCC_ClockConfig+0xce>
    {
      assert_param(IS_RCC_PCLK2(RCC_ClkInitStruct->APB2CLKDivider));
      MODIFY_REG(RCC->D2CFGR, RCC_D2CFGR_D2PPRE2, (RCC_ClkInitStruct->APB2CLKDivider));
    }
#else
     if((RCC_ClkInitStruct->APB2CLKDivider) > (RCC->CDCFGR2 & RCC_CDCFGR2_CDPPRE2))
 8004308:	687b      	ldr	r3, [r7, #4]
 800430a:	699a      	ldr	r2, [r3, #24]
 800430c:	4b64      	ldr	r3, [pc, #400]	; (80044a0 <HAL_RCC_ClockConfig+0x244>)
 800430e:	69db      	ldr	r3, [r3, #28]
 8004310:	f403 63e0 	and.w	r3, r3, #1792	; 0x700
 8004314:	429a      	cmp	r2, r3
 8004316:	d908      	bls.n	800432a <HAL_RCC_ClockConfig+0xce>
    {
      assert_param(IS_RCC_PCLK2(RCC_ClkInitStruct->APB2CLKDivider));
      MODIFY_REG(RCC->CDCFGR2, RCC_CDCFGR2_CDPPRE2, (RCC_ClkInitStruct->APB2CLKDivider));
 8004318:	4b61      	ldr	r3, [pc, #388]	; (80044a0 <HAL_RCC_ClockConfig+0x244>)
 800431a:	69db      	ldr	r3, [r3, #28]
 800431c:	f423 62e0 	bic.w	r2, r3, #1792	; 0x700
 8004320:	687b      	ldr	r3, [r7, #4]
 8004322:	699b      	ldr	r3, [r3, #24]
 8004324:	495e      	ldr	r1, [pc, #376]	; (80044a0 <HAL_RCC_ClockConfig+0x244>)
 8004326:	4313      	orrs	r3, r2
 8004328:	61cb      	str	r3, [r1, #28]
    }
#endif
  }

  /*-------------------------- D3PCLK1 Configuration ---------------------------*/
  if(((RCC_ClkInitStruct->ClockType) & RCC_CLOCKTYPE_D3PCLK1) == RCC_CLOCKTYPE_D3PCLK1)
 800432a:	687b      	ldr	r3, [r7, #4]
 800432c:	681b      	ldr	r3, [r3, #0]
 800432e:	f003 0320 	and.w	r3, r3, #32
 8004332:	2b00      	cmp	r3, #0
 8004334:	d010      	beq.n	8004358 <HAL_RCC_ClockConfig+0xfc>
    {
      assert_param(IS_RCC_D3PCLK1(RCC_ClkInitStruct->APB4CLKDivider));
      MODIFY_REG(RCC->D3CFGR, RCC_D3CFGR_D3PPRE, (RCC_ClkInitStruct->APB4CLKDivider) );
    }
#else
    if((RCC_ClkInitStruct->APB4CLKDivider) > (RCC->SRDCFGR & RCC_SRDCFGR_SRDPPRE))
 8004336:	687b      	ldr	r3, [r7, #4]
 8004338:	69da      	ldr	r2, [r3, #28]
 800433a:	4b59      	ldr	r3, [pc, #356]	; (80044a0 <HAL_RCC_ClockConfig+0x244>)
 800433c:	6a1b      	ldr	r3, [r3, #32]
 800433e:	f003 0370 	and.w	r3, r3, #112	; 0x70
 8004342:	429a      	cmp	r2, r3
 8004344:	d908      	bls.n	8004358 <HAL_RCC_ClockConfig+0xfc>
    {
      assert_param(IS_RCC_D3PCLK1(RCC_ClkInitStruct->APB4CLKDivider));
      MODIFY_REG(RCC->SRDCFGR, RCC_SRDCFGR_SRDPPRE, (RCC_ClkInitStruct->APB4CLKDivider) );
 8004346:	4b56      	ldr	r3, [pc, #344]	; (80044a0 <HAL_RCC_ClockConfig+0x244>)
 8004348:	6a1b      	ldr	r3, [r3, #32]
 800434a:	f023 0270 	bic.w	r2, r3, #112	; 0x70
 800434e:	687b      	ldr	r3, [r7, #4]
 8004350:	69db      	ldr	r3, [r3, #28]
 8004352:	4953      	ldr	r1, [pc, #332]	; (80044a0 <HAL_RCC_ClockConfig+0x244>)
 8004354:	4313      	orrs	r3, r2
 8004356:	620b      	str	r3, [r1, #32]
    }
#endif
  }

   /*-------------------------- HCLK Configuration --------------------------*/
  if(((RCC_ClkInitStruct->ClockType) & RCC_CLOCKTYPE_HCLK) == RCC_CLOCKTYPE_HCLK)
 8004358:	687b      	ldr	r3, [r7, #4]
 800435a:	681b      	ldr	r3, [r3, #0]
 800435c:	f003 0302 	and.w	r3, r3, #2
 8004360:	2b00      	cmp	r3, #0
 8004362:	d010      	beq.n	8004386 <HAL_RCC_ClockConfig+0x12a>
      /* Set the new HCLK clock divider */
      assert_param(IS_RCC_HCLK(RCC_ClkInitStruct->AHBCLKDivider));
      MODIFY_REG(RCC->D1CFGR, RCC_D1CFGR_HPRE, RCC_ClkInitStruct->AHBCLKDivider);
    }
#else
        if((RCC_ClkInitStruct->AHBCLKDivider) > (RCC->CDCFGR1 & RCC_CDCFGR1_HPRE))
 8004364:	687b      	ldr	r3, [r7, #4]
 8004366:	68da      	ldr	r2, [r3, #12]
 8004368:	4b4d      	ldr	r3, [pc, #308]	; (80044a0 <HAL_RCC_ClockConfig+0x244>)
 800436a:	699b      	ldr	r3, [r3, #24]
 800436c:	f003 030f 	and.w	r3, r3, #15
 8004370:	429a      	cmp	r2, r3
 8004372:	d908      	bls.n	8004386 <HAL_RCC_ClockConfig+0x12a>
    {
      /* Set the new HCLK clock divider */
      assert_param(IS_RCC_HCLK(RCC_ClkInitStruct->AHBCLKDivider));
      MODIFY_REG(RCC->CDCFGR1, RCC_CDCFGR1_HPRE, RCC_ClkInitStruct->AHBCLKDivider);
 8004374:	4b4a      	ldr	r3, [pc, #296]	; (80044a0 <HAL_RCC_ClockConfig+0x244>)
 8004376:	699b      	ldr	r3, [r3, #24]
 8004378:	f023 020f 	bic.w	r2, r3, #15
 800437c:	687b      	ldr	r3, [r7, #4]
 800437e:	68db      	ldr	r3, [r3, #12]
 8004380:	4947      	ldr	r1, [pc, #284]	; (80044a0 <HAL_RCC_ClockConfig+0x244>)
 8004382:	4313      	orrs	r3, r2
 8004384:	618b      	str	r3, [r1, #24]
    }
#endif
  }

    /*------------------------- SYSCLK Configuration -------------------------*/
    if(((RCC_ClkInitStruct->ClockType) & RCC_CLOCKTYPE_SYSCLK) == RCC_CLOCKTYPE_SYSCLK)
 8004386:	687b      	ldr	r3, [r7, #4]
 8004388:	681b      	ldr	r3, [r3, #0]
 800438a:	f003 0301 	and.w	r3, r3, #1
 800438e:	2b00      	cmp	r3, #0
 8004390:	d055      	beq.n	800443e <HAL_RCC_ClockConfig+0x1e2>
      assert_param(IS_RCC_SYSCLK(RCC_ClkInitStruct->SYSCLKDivider));
      assert_param(IS_RCC_SYSCLKSOURCE(RCC_ClkInitStruct->SYSCLKSource));
#if defined(RCC_D1CFGR_D1CPRE)
      MODIFY_REG(RCC->D1CFGR, RCC_D1CFGR_D1CPRE, RCC_ClkInitStruct->SYSCLKDivider);
#else
      MODIFY_REG(RCC->CDCFGR1, RCC_CDCFGR1_CDCPRE, RCC_ClkInitStruct->SYSCLKDivider);
 8004392:	4b43      	ldr	r3, [pc, #268]	; (80044a0 <HAL_RCC_ClockConfig+0x244>)
 8004394:	699b      	ldr	r3, [r3, #24]
 8004396:	f423 6270 	bic.w	r2, r3, #3840	; 0xf00
 800439a:	687b      	ldr	r3, [r7, #4]
 800439c:	689b      	ldr	r3, [r3, #8]
 800439e:	4940      	ldr	r1, [pc, #256]	; (80044a0 <HAL_RCC_ClockConfig+0x244>)
 80043a0:	4313      	orrs	r3, r2
 80043a2:	618b      	str	r3, [r1, #24]
#endif
      /* HSE is selected as System Clock Source */
      if(RCC_ClkInitStruct->SYSCLKSource == RCC_SYSCLKSOURCE_HSE)
 80043a4:	687b      	ldr	r3, [r7, #4]
 80043a6:	685b      	ldr	r3, [r3, #4]
 80043a8:	2b02      	cmp	r3, #2
 80043aa:	d107      	bne.n	80043bc <HAL_RCC_ClockConfig+0x160>
      {
        /* Check the HSE ready flag */
        if(__HAL_RCC_GET_FLAG(RCC_FLAG_HSERDY) == 0U)
 80043ac:	4b3c      	ldr	r3, [pc, #240]	; (80044a0 <HAL_RCC_ClockConfig+0x244>)
 80043ae:	681b      	ldr	r3, [r3, #0]
 80043b0:	f403 3300 	and.w	r3, r3, #131072	; 0x20000
 80043b4:	2b00      	cmp	r3, #0
 80043b6:	d121      	bne.n	80043fc <HAL_RCC_ClockConfig+0x1a0>
        {
          return HAL_ERROR;
 80043b8:	2301      	movs	r3, #1
 80043ba:	e0f6      	b.n	80045aa <HAL_RCC_ClockConfig+0x34e>
        }
      }
      /* PLL is selected as System Clock Source */
      else if(RCC_ClkInitStruct->SYSCLKSource == RCC_SYSCLKSOURCE_PLLCLK)
 80043bc:	687b      	ldr	r3, [r7, #4]
 80043be:	685b      	ldr	r3, [r3, #4]
 80043c0:	2b03      	cmp	r3, #3
 80043c2:	d107      	bne.n	80043d4 <HAL_RCC_ClockConfig+0x178>
      {
        /* Check the PLL ready flag */
        if(__HAL_RCC_GET_FLAG(RCC_FLAG_PLLRDY) == 0U)
 80043c4:	4b36      	ldr	r3, [pc, #216]	; (80044a0 <HAL_RCC_ClockConfig+0x244>)
 80043c6:	681b      	ldr	r3, [r3, #0]
 80043c8:	f003 7300 	and.w	r3, r3, #33554432	; 0x2000000
 80043cc:	2b00      	cmp	r3, #0
 80043ce:	d115      	bne.n	80043fc <HAL_RCC_ClockConfig+0x1a0>
        {
          return HAL_ERROR;
 80043d0:	2301      	movs	r3, #1
 80043d2:	e0ea      	b.n	80045aa <HAL_RCC_ClockConfig+0x34e>
        }
      }
      /* CSI is selected as System Clock Source */
      else if(RCC_ClkInitStruct->SYSCLKSource == RCC_SYSCLKSOURCE_CSI)
 80043d4:	687b      	ldr	r3, [r7, #4]
 80043d6:	685b      	ldr	r3, [r3, #4]
 80043d8:	2b01      	cmp	r3, #1
 80043da:	d107      	bne.n	80043ec <HAL_RCC_ClockConfig+0x190>
      {
        /* Check the PLL ready flag */
        if(__HAL_RCC_GET_FLAG(RCC_FLAG_CSIRDY) == 0U)
 80043dc:	4b30      	ldr	r3, [pc, #192]	; (80044a0 <HAL_RCC_ClockConfig+0x244>)
 80043de:	681b      	ldr	r3, [r3, #0]
 80043e0:	f403 7380 	and.w	r3, r3, #256	; 0x100
 80043e4:	2b00      	cmp	r3, #0
 80043e6:	d109      	bne.n	80043fc <HAL_RCC_ClockConfig+0x1a0>
        {
          return HAL_ERROR;
 80043e8:	2301      	movs	r3, #1
 80043ea:	e0de      	b.n	80045aa <HAL_RCC_ClockConfig+0x34e>
      }
      /* HSI is selected as System Clock Source */
      else
      {
        /* Check the HSI ready flag */
        if(__HAL_RCC_GET_FLAG(RCC_FLAG_HSIRDY) == 0U)
 80043ec:	4b2c      	ldr	r3, [pc, #176]	; (80044a0 <HAL_RCC_ClockConfig+0x244>)
 80043ee:	681b      	ldr	r3, [r3, #0]
 80043f0:	f003 0304 	and.w	r3, r3, #4
 80043f4:	2b00      	cmp	r3, #0
 80043f6:	d101      	bne.n	80043fc <HAL_RCC_ClockConfig+0x1a0>
        {
          return HAL_ERROR;
 80043f8:	2301      	movs	r3, #1
 80043fa:	e0d6      	b.n	80045aa <HAL_RCC_ClockConfig+0x34e>
        }
      }
      MODIFY_REG(RCC->CFGR, RCC_CFGR_SW, RCC_ClkInitStruct->SYSCLKSource);
 80043fc:	4b28      	ldr	r3, [pc, #160]	; (80044a0 <HAL_RCC_ClockConfig+0x244>)
 80043fe:	691b      	ldr	r3, [r3, #16]
 8004400:	f023 0207 	bic.w	r2, r3, #7
 8004404:	687b      	ldr	r3, [r7, #4]
 8004406:	685b      	ldr	r3, [r3, #4]
 8004408:	4925      	ldr	r1, [pc, #148]	; (80044a0 <HAL_RCC_ClockConfig+0x244>)
 800440a:	4313      	orrs	r3, r2
 800440c:	610b      	str	r3, [r1, #16]

      /* Get Start Tick*/
      tickstart = HAL_GetTick();
 800440e:	f7fd fa63 	bl	80018d8 <HAL_GetTick>
 8004412:	6178      	str	r0, [r7, #20]

        while (__HAL_RCC_GET_SYSCLK_SOURCE() !=  (RCC_ClkInitStruct->SYSCLKSource << RCC_CFGR_SWS_Pos))
 8004414:	e00a      	b.n	800442c <HAL_RCC_ClockConfig+0x1d0>
        {
          if((HAL_GetTick() - tickstart ) > CLOCKSWITCH_TIMEOUT_VALUE)
 8004416:	f7fd fa5f 	bl	80018d8 <HAL_GetTick>
 800441a:	4602      	mov	r2, r0
 800441c:	697b      	ldr	r3, [r7, #20]
 800441e:	1ad3      	subs	r3, r2, r3
 8004420:	f241 3288 	movw	r2, #5000	; 0x1388
 8004424:	4293      	cmp	r3, r2
 8004426:	d901      	bls.n	800442c <HAL_RCC_ClockConfig+0x1d0>
          {
            return HAL_TIMEOUT;
 8004428:	2303      	movs	r3, #3
 800442a:	e0be      	b.n	80045aa <HAL_RCC_ClockConfig+0x34e>
        while (__HAL_RCC_GET_SYSCLK_SOURCE() !=  (RCC_ClkInitStruct->SYSCLKSource << RCC_CFGR_SWS_Pos))
 800442c:	4b1c      	ldr	r3, [pc, #112]	; (80044a0 <HAL_RCC_ClockConfig+0x244>)
 800442e:	691b      	ldr	r3, [r3, #16]
 8004430:	f003 0238 	and.w	r2, r3, #56	; 0x38
 8004434:	687b      	ldr	r3, [r7, #4]
 8004436:	685b      	ldr	r3, [r3, #4]
 8004438:	00db      	lsls	r3, r3, #3
 800443a:	429a      	cmp	r2, r3
 800443c:	d1eb      	bne.n	8004416 <HAL_RCC_ClockConfig+0x1ba>

    }

    /* Decreasing the BUS frequency divider */
   /*-------------------------- HCLK Configuration --------------------------*/
  if(((RCC_ClkInitStruct->ClockType) & RCC_CLOCKTYPE_HCLK) == RCC_CLOCKTYPE_HCLK)
 800443e:	687b      	ldr	r3, [r7, #4]
 8004440:	681b      	ldr	r3, [r3, #0]
 8004442:	f003 0302 	and.w	r3, r3, #2
 8004446:	2b00      	cmp	r3, #0
 8004448:	d010      	beq.n	800446c <HAL_RCC_ClockConfig+0x210>
      /* Set the new HCLK clock divider */
      assert_param(IS_RCC_HCLK(RCC_ClkInitStruct->AHBCLKDivider));
      MODIFY_REG(RCC->D1CFGR, RCC_D1CFGR_HPRE, RCC_ClkInitStruct->AHBCLKDivider);
    }
#else
    if((RCC_ClkInitStruct->AHBCLKDivider) < (RCC->CDCFGR1 & RCC_CDCFGR1_HPRE))
 800444a:	687b      	ldr	r3, [r7, #4]
 800444c:	68da      	ldr	r2, [r3, #12]
 800444e:	4b14      	ldr	r3, [pc, #80]	; (80044a0 <HAL_RCC_ClockConfig+0x244>)
 8004450:	699b      	ldr	r3, [r3, #24]
 8004452:	f003 030f 	and.w	r3, r3, #15
 8004456:	429a      	cmp	r2, r3
 8004458:	d208      	bcs.n	800446c <HAL_RCC_ClockConfig+0x210>
    {
      /* Set the new HCLK clock divider */
      assert_param(IS_RCC_HCLK(RCC_ClkInitStruct->AHBCLKDivider));
      MODIFY_REG(RCC->CDCFGR1, RCC_CDCFGR1_HPRE, RCC_ClkInitStruct->AHBCLKDivider);
 800445a:	4b11      	ldr	r3, [pc, #68]	; (80044a0 <HAL_RCC_ClockConfig+0x244>)
 800445c:	699b      	ldr	r3, [r3, #24]
 800445e:	f023 020f 	bic.w	r2, r3, #15
 8004462:	687b      	ldr	r3, [r7, #4]
 8004464:	68db      	ldr	r3, [r3, #12]
 8004466:	490e      	ldr	r1, [pc, #56]	; (80044a0 <HAL_RCC_ClockConfig+0x244>)
 8004468:	4313      	orrs	r3, r2
 800446a:	618b      	str	r3, [r1, #24]
    }
#endif
  }

  /* Decreasing the number of wait states because of lower CPU frequency */
  if(FLatency < __HAL_FLASH_GET_LATENCY())
 800446c:	4b0b      	ldr	r3, [pc, #44]	; (800449c <HAL_RCC_ClockConfig+0x240>)
 800446e:	681b      	ldr	r3, [r3, #0]
 8004470:	f003 030f 	and.w	r3, r3, #15
 8004474:	683a      	ldr	r2, [r7, #0]
 8004476:	429a      	cmp	r2, r3
 8004478:	d214      	bcs.n	80044a4 <HAL_RCC_ClockConfig+0x248>
  {
    /* Program the new number of wait states to the LATENCY bits in the FLASH_ACR register */
    __HAL_FLASH_SET_LATENCY(FLatency);
 800447a:	4b08      	ldr	r3, [pc, #32]	; (800449c <HAL_RCC_ClockConfig+0x240>)
 800447c:	681b      	ldr	r3, [r3, #0]
 800447e:	f023 020f 	bic.w	r2, r3, #15
 8004482:	4906      	ldr	r1, [pc, #24]	; (800449c <HAL_RCC_ClockConfig+0x240>)
 8004484:	683b      	ldr	r3, [r7, #0]
 8004486:	4313      	orrs	r3, r2
 8004488:	600b      	str	r3, [r1, #0]

    /* Check that the new number of wait states is taken into account to access the Flash
    memory by reading the FLASH_ACR register */
    if(__HAL_FLASH_GET_LATENCY() != FLatency)
 800448a:	4b04      	ldr	r3, [pc, #16]	; (800449c <HAL_RCC_ClockConfig+0x240>)
 800448c:	681b      	ldr	r3, [r3, #0]
 800448e:	f003 030f 	and.w	r3, r3, #15
 8004492:	683a      	ldr	r2, [r7, #0]
 8004494:	429a      	cmp	r2, r3
 8004496:	d005      	beq.n	80044a4 <HAL_RCC_ClockConfig+0x248>
    {
      return HAL_ERROR;
 8004498:	2301      	movs	r3, #1
 800449a:	e086      	b.n	80045aa <HAL_RCC_ClockConfig+0x34e>
 800449c:	52002000 	.word	0x52002000
 80044a0:	58024400 	.word	0x58024400
    }
 }

  /*-------------------------- D1PCLK1/CDPCLK Configuration ---------------------------*/
 if(((RCC_ClkInitStruct->ClockType) & RCC_CLOCKTYPE_D1PCLK1) == RCC_CLOCKTYPE_D1PCLK1)
 80044a4:	687b      	ldr	r3, [r7, #4]
 80044a6:	681b      	ldr	r3, [r3, #0]
 80044a8:	f003 0304 	and.w	r3, r3, #4
 80044ac:	2b00      	cmp	r3, #0
 80044ae:	d010      	beq.n	80044d2 <HAL_RCC_ClockConfig+0x276>
   {
     assert_param(IS_RCC_D1PCLK1(RCC_ClkInitStruct->APB3CLKDivider));
     MODIFY_REG(RCC->D1CFGR, RCC_D1CFGR_D1PPRE, RCC_ClkInitStruct->APB3CLKDivider);
   }
#else
   if((RCC_ClkInitStruct->APB3CLKDivider) < (RCC->CDCFGR1 & RCC_CDCFGR1_CDPPRE))
 80044b0:	687b      	ldr	r3, [r7, #4]
 80044b2:	691a      	ldr	r2, [r3, #16]
 80044b4:	4b3f      	ldr	r3, [pc, #252]	; (80045b4 <HAL_RCC_ClockConfig+0x358>)
 80044b6:	699b      	ldr	r3, [r3, #24]
 80044b8:	f003 0370 	and.w	r3, r3, #112	; 0x70
 80044bc:	429a      	cmp	r2, r3
 80044be:	d208      	bcs.n	80044d2 <HAL_RCC_ClockConfig+0x276>
   {
     assert_param(IS_RCC_CDPCLK1(RCC_ClkInitStruct->APB3CLKDivider));
     MODIFY_REG(RCC->CDCFGR1, RCC_CDCFGR1_CDPPRE, RCC_ClkInitStruct->APB3CLKDivider);
 80044c0:	4b3c      	ldr	r3, [pc, #240]	; (80045b4 <HAL_RCC_ClockConfig+0x358>)
 80044c2:	699b      	ldr	r3, [r3, #24]
 80044c4:	f023 0270 	bic.w	r2, r3, #112	; 0x70
 80044c8:	687b      	ldr	r3, [r7, #4]
 80044ca:	691b      	ldr	r3, [r3, #16]
 80044cc:	4939      	ldr	r1, [pc, #228]	; (80045b4 <HAL_RCC_ClockConfig+0x358>)
 80044ce:	4313      	orrs	r3, r2
 80044d0:	618b      	str	r3, [r1, #24]
   }
#endif
 }

  /*-------------------------- PCLK1 Configuration ---------------------------*/
 if(((RCC_ClkInitStruct->ClockType) & RCC_CLOCKTYPE_PCLK1) == RCC_CLOCKTYPE_PCLK1)
 80044d2:	687b      	ldr	r3, [r7, #4]
 80044d4:	681b      	ldr	r3, [r3, #0]
 80044d6:	f003 0308 	and.w	r3, r3, #8
 80044da:	2b00      	cmp	r3, #0
 80044dc:	d010      	beq.n	8004500 <HAL_RCC_ClockConfig+0x2a4>
   {
     assert_param(IS_RCC_PCLK1(RCC_ClkInitStruct->APB1CLKDivider));
     MODIFY_REG(RCC->D2CFGR, RCC_D2CFGR_D2PPRE1, (RCC_ClkInitStruct->APB1CLKDivider));
   }
#else
   if((RCC_ClkInitStruct->APB1CLKDivider) < (RCC->CDCFGR2 & RCC_CDCFGR2_CDPPRE1))
 80044de:	687b      	ldr	r3, [r7, #4]
 80044e0:	695a      	ldr	r2, [r3, #20]
 80044e2:	4b34      	ldr	r3, [pc, #208]	; (80045b4 <HAL_RCC_ClockConfig+0x358>)
 80044e4:	69db      	ldr	r3, [r3, #28]
 80044e6:	f003 0370 	and.w	r3, r3, #112	; 0x70
 80044ea:	429a      	cmp	r2, r3
 80044ec:	d208      	bcs.n	8004500 <HAL_RCC_ClockConfig+0x2a4>
   {
     assert_param(IS_RCC_PCLK1(RCC_ClkInitStruct->APB1CLKDivider));
     MODIFY_REG(RCC->CDCFGR2, RCC_CDCFGR2_CDPPRE1, (RCC_ClkInitStruct->APB1CLKDivider));
 80044ee:	4b31      	ldr	r3, [pc, #196]	; (80045b4 <HAL_RCC_ClockConfig+0x358>)
 80044f0:	69db      	ldr	r3, [r3, #28]
 80044f2:	f023 0270 	bic.w	r2, r3, #112	; 0x70
 80044f6:	687b      	ldr	r3, [r7, #4]
 80044f8:	695b      	ldr	r3, [r3, #20]
 80044fa:	492e      	ldr	r1, [pc, #184]	; (80045b4 <HAL_RCC_ClockConfig+0x358>)
 80044fc:	4313      	orrs	r3, r2
 80044fe:	61cb      	str	r3, [r1, #28]
   }
#endif
 }

  /*-------------------------- PCLK2 Configuration ---------------------------*/
 if(((RCC_ClkInitStruct->ClockType) & RCC_CLOCKTYPE_PCLK2) == RCC_CLOCKTYPE_PCLK2)
 8004500:	687b      	ldr	r3, [r7, #4]
 8004502:	681b      	ldr	r3, [r3, #0]
 8004504:	f003 0310 	and.w	r3, r3, #16
 8004508:	2b00      	cmp	r3, #0
 800450a:	d010      	beq.n	800452e <HAL_RCC_ClockConfig+0x2d2>
   {
     assert_param(IS_RCC_PCLK2(RCC_ClkInitStruct->APB2CLKDivider));
     MODIFY_REG(RCC->D2CFGR, RCC_D2CFGR_D2PPRE2, (RCC_ClkInitStruct->APB2CLKDivider));
   }
#else
   if((RCC_ClkInitStruct->APB2CLKDivider) < (RCC->CDCFGR2 & RCC_CDCFGR2_CDPPRE2))
 800450c:	687b      	ldr	r3, [r7, #4]
 800450e:	699a      	ldr	r2, [r3, #24]
 8004510:	4b28      	ldr	r3, [pc, #160]	; (80045b4 <HAL_RCC_ClockConfig+0x358>)
 8004512:	69db      	ldr	r3, [r3, #28]
 8004514:	f403 63e0 	and.w	r3, r3, #1792	; 0x700
 8004518:	429a      	cmp	r2, r3
 800451a:	d208      	bcs.n	800452e <HAL_RCC_ClockConfig+0x2d2>
   {
     assert_param(IS_RCC_PCLK2(RCC_ClkInitStruct->APB2CLKDivider));
     MODIFY_REG(RCC->CDCFGR2, RCC_CDCFGR2_CDPPRE2, (RCC_ClkInitStruct->APB2CLKDivider));
 800451c:	4b25      	ldr	r3, [pc, #148]	; (80045b4 <HAL_RCC_ClockConfig+0x358>)
 800451e:	69db      	ldr	r3, [r3, #28]
 8004520:	f423 62e0 	bic.w	r2, r3, #1792	; 0x700
 8004524:	687b      	ldr	r3, [r7, #4]
 8004526:	699b      	ldr	r3, [r3, #24]
 8004528:	4922      	ldr	r1, [pc, #136]	; (80045b4 <HAL_RCC_ClockConfig+0x358>)
 800452a:	4313      	orrs	r3, r2
 800452c:	61cb      	str	r3, [r1, #28]
   }
#endif
 }

  /*-------------------------- D3PCLK1/SRDPCLK1 Configuration ---------------------------*/
 if(((RCC_ClkInitStruct->ClockType) & RCC_CLOCKTYPE_D3PCLK1) == RCC_CLOCKTYPE_D3PCLK1)
 800452e:	687b      	ldr	r3, [r7, #4]
 8004530:	681b      	ldr	r3, [r3, #0]
 8004532:	f003 0320 	and.w	r3, r3, #32
 8004536:	2b00      	cmp	r3, #0
 8004538:	d010      	beq.n	800455c <HAL_RCC_ClockConfig+0x300>
   {
     assert_param(IS_RCC_D3PCLK1(RCC_ClkInitStruct->APB4CLKDivider));
     MODIFY_REG(RCC->D3CFGR, RCC_D3CFGR_D3PPRE, (RCC_ClkInitStruct->APB4CLKDivider) );
   }
#else
   if((RCC_ClkInitStruct->APB4CLKDivider) < (RCC->SRDCFGR & RCC_SRDCFGR_SRDPPRE))
 800453a:	687b      	ldr	r3, [r7, #4]
 800453c:	69da      	ldr	r2, [r3, #28]
 800453e:	4b1d      	ldr	r3, [pc, #116]	; (80045b4 <HAL_RCC_ClockConfig+0x358>)
 8004540:	6a1b      	ldr	r3, [r3, #32]
 8004542:	f003 0370 	and.w	r3, r3, #112	; 0x70
 8004546:	429a      	cmp	r2, r3
 8004548:	d208      	bcs.n	800455c <HAL_RCC_ClockConfig+0x300>
   {
     assert_param(IS_RCC_SRDPCLK1(RCC_ClkInitStruct->APB4CLKDivider));
     MODIFY_REG(RCC->SRDCFGR, RCC_SRDCFGR_SRDPPRE, (RCC_ClkInitStruct->APB4CLKDivider) );
 800454a:	4b1a      	ldr	r3, [pc, #104]	; (80045b4 <HAL_RCC_ClockConfig+0x358>)
 800454c:	6a1b      	ldr	r3, [r3, #32]
 800454e:	f023 0270 	bic.w	r2, r3, #112	; 0x70
 8004552:	687b      	ldr	r3, [r7, #4]
 8004554:	69db      	ldr	r3, [r3, #28]
 8004556:	4917      	ldr	r1, [pc, #92]	; (80045b4 <HAL_RCC_ClockConfig+0x358>)
 8004558:	4313      	orrs	r3, r2
 800455a:	620b      	str	r3, [r1, #32]

  /* Update the SystemCoreClock global variable */
#if defined(RCC_D1CFGR_D1CPRE)
  common_system_clock = HAL_RCC_GetSysClockFreq() >> ((D1CorePrescTable[(RCC->D1CFGR & RCC_D1CFGR_D1CPRE)>> RCC_D1CFGR_D1CPRE_Pos]) & 0x1FU);
#else
  common_system_clock = HAL_RCC_GetSysClockFreq() >> ((D1CorePrescTable[(RCC->CDCFGR1 & RCC_CDCFGR1_CDCPRE)>> RCC_CDCFGR1_CDCPRE_Pos]) & 0x1FU);
 800455c:	f000 f834 	bl	80045c8 <HAL_RCC_GetSysClockFreq>
 8004560:	4602      	mov	r2, r0
 8004562:	4b14      	ldr	r3, [pc, #80]	; (80045b4 <HAL_RCC_ClockConfig+0x358>)
 8004564:	699b      	ldr	r3, [r3, #24]
 8004566:	0a1b      	lsrs	r3, r3, #8
 8004568:	f003 030f 	and.w	r3, r3, #15
 800456c:	4912      	ldr	r1, [pc, #72]	; (80045b8 <HAL_RCC_ClockConfig+0x35c>)
 800456e:	5ccb      	ldrb	r3, [r1, r3]
 8004570:	f003 031f 	and.w	r3, r3, #31
 8004574:	fa22 f303 	lsr.w	r3, r2, r3
 8004578:	613b      	str	r3, [r7, #16]
#endif

#if defined(RCC_D1CFGR_HPRE)
  SystemD2Clock = (common_system_clock >> ((D1CorePrescTable[(RCC->D1CFGR & RCC_D1CFGR_HPRE)>> RCC_D1CFGR_HPRE_Pos]) & 0x1FU));
#else
  SystemD2Clock = (common_system_clock >> ((D1CorePrescTable[(RCC->CDCFGR1 & RCC_CDCFGR1_HPRE)>> RCC_CDCFGR1_HPRE_Pos]) & 0x1FU));
 800457a:	4b0e      	ldr	r3, [pc, #56]	; (80045b4 <HAL_RCC_ClockConfig+0x358>)
 800457c:	699b      	ldr	r3, [r3, #24]
 800457e:	f003 030f 	and.w	r3, r3, #15
 8004582:	4a0d      	ldr	r2, [pc, #52]	; (80045b8 <HAL_RCC_ClockConfig+0x35c>)
 8004584:	5cd3      	ldrb	r3, [r2, r3]
 8004586:	f003 031f 	and.w	r3, r3, #31
 800458a:	693a      	ldr	r2, [r7, #16]
 800458c:	fa22 f303 	lsr.w	r3, r2, r3
 8004590:	4a0a      	ldr	r2, [pc, #40]	; (80045bc <HAL_RCC_ClockConfig+0x360>)
 8004592:	6013      	str	r3, [r2, #0]
#endif

#if defined(DUAL_CORE) && defined(CORE_CM4)
  SystemCoreClock = SystemD2Clock;
#else
  SystemCoreClock = common_system_clock;
 8004594:	4a0a      	ldr	r2, [pc, #40]	; (80045c0 <HAL_RCC_ClockConfig+0x364>)
 8004596:	693b      	ldr	r3, [r7, #16]
 8004598:	6013      	str	r3, [r2, #0]
#endif /* DUAL_CORE && CORE_CM4 */

  /* Configure the source of time base considering new system clocks settings*/
  halstatus = HAL_InitTick (uwTickPrio);
 800459a:	4b0a      	ldr	r3, [pc, #40]	; (80045c4 <HAL_RCC_ClockConfig+0x368>)
 800459c:	681b      	ldr	r3, [r3, #0]
 800459e:	4618      	mov	r0, r3
 80045a0:	f7fd f950 	bl	8001844 <HAL_InitTick>
 80045a4:	4603      	mov	r3, r0
 80045a6:	73fb      	strb	r3, [r7, #15]

  return halstatus;
 80045a8:	7bfb      	ldrb	r3, [r7, #15]
}
 80045aa:	4618      	mov	r0, r3
 80045ac:	3718      	adds	r7, #24
 80045ae:	46bd      	mov	sp, r7
 80045b0:	bd80      	pop	{r7, pc}
 80045b2:	bf00      	nop
 80045b4:	58024400 	.word	0x58024400
 80045b8:	080060b0 	.word	0x080060b0
 80045bc:	2400000c 	.word	0x2400000c
 80045c0:	24000008 	.word	0x24000008
 80045c4:	24000010 	.word	0x24000010

080045c8 <HAL_RCC_GetSysClockFreq>:
  *
  *
  * @retval SYSCLK frequency
  */
uint32_t HAL_RCC_GetSysClockFreq(void)
{
 80045c8:	b480      	push	{r7}
 80045ca:	b089      	sub	sp, #36	; 0x24
 80045cc:	af00      	add	r7, sp, #0
  float_t fracn1, pllvco;
  uint32_t sysclockfreq;

  /* Get SYSCLK source -------------------------------------------------------*/

  switch (RCC->CFGR & RCC_CFGR_SWS)
 80045ce:	4bb3      	ldr	r3, [pc, #716]	; (800489c <HAL_RCC_GetSysClockFreq+0x2d4>)
 80045d0:	691b      	ldr	r3, [r3, #16]
 80045d2:	f003 0338 	and.w	r3, r3, #56	; 0x38
 80045d6:	2b18      	cmp	r3, #24
 80045d8:	f200 8155 	bhi.w	8004886 <HAL_RCC_GetSysClockFreq+0x2be>
 80045dc:	a201      	add	r2, pc, #4	; (adr r2, 80045e4 <HAL_RCC_GetSysClockFreq+0x1c>)
 80045de:	f852 f023 	ldr.w	pc, [r2, r3, lsl #2]
 80045e2:	bf00      	nop
 80045e4:	08004649 	.word	0x08004649
 80045e8:	08004887 	.word	0x08004887
 80045ec:	08004887 	.word	0x08004887
 80045f0:	08004887 	.word	0x08004887
 80045f4:	08004887 	.word	0x08004887
 80045f8:	08004887 	.word	0x08004887
 80045fc:	08004887 	.word	0x08004887
 8004600:	08004887 	.word	0x08004887
 8004604:	0800466f 	.word	0x0800466f
 8004608:	08004887 	.word	0x08004887
 800460c:	08004887 	.word	0x08004887
 8004610:	08004887 	.word	0x08004887
 8004614:	08004887 	.word	0x08004887
 8004618:	08004887 	.word	0x08004887
 800461c:	08004887 	.word	0x08004887
 8004620:	08004887 	.word	0x08004887
 8004624:	08004675 	.word	0x08004675
 8004628:	08004887 	.word	0x08004887
 800462c:	08004887 	.word	0x08004887
 8004630:	08004887 	.word	0x08004887
 8004634:	08004887 	.word	0x08004887
 8004638:	08004887 	.word	0x08004887
 800463c:	08004887 	.word	0x08004887
 8004640:	08004887 	.word	0x08004887
 8004644:	0800467b 	.word	0x0800467b
  {
  case RCC_CFGR_SWS_HSI:  /* HSI used as system clock source */

   if (__HAL_RCC_GET_FLAG(RCC_FLAG_HSIDIV) != 0U)
 8004648:	4b94      	ldr	r3, [pc, #592]	; (800489c <HAL_RCC_GetSysClockFreq+0x2d4>)
 800464a:	681b      	ldr	r3, [r3, #0]
 800464c:	f003 0320 	and.w	r3, r3, #32
 8004650:	2b00      	cmp	r3, #0
 8004652:	d009      	beq.n	8004668 <HAL_RCC_GetSysClockFreq+0xa0>
      {
        sysclockfreq = (uint32_t) (HSI_VALUE >> (__HAL_RCC_GET_HSI_DIVIDER()>> 3));
 8004654:	4b91      	ldr	r3, [pc, #580]	; (800489c <HAL_RCC_GetSysClockFreq+0x2d4>)
 8004656:	681b      	ldr	r3, [r3, #0]
 8004658:	08db      	lsrs	r3, r3, #3
 800465a:	f003 0303 	and.w	r3, r3, #3
 800465e:	4a90      	ldr	r2, [pc, #576]	; (80048a0 <HAL_RCC_GetSysClockFreq+0x2d8>)
 8004660:	fa22 f303 	lsr.w	r3, r2, r3
 8004664:	61bb      	str	r3, [r7, #24]
      else
      {
        sysclockfreq = (uint32_t) HSI_VALUE;
      }

    break;
 8004666:	e111      	b.n	800488c <HAL_RCC_GetSysClockFreq+0x2c4>
        sysclockfreq = (uint32_t) HSI_VALUE;
 8004668:	4b8d      	ldr	r3, [pc, #564]	; (80048a0 <HAL_RCC_GetSysClockFreq+0x2d8>)
 800466a:	61bb      	str	r3, [r7, #24]
    break;
 800466c:	e10e      	b.n	800488c <HAL_RCC_GetSysClockFreq+0x2c4>

  case RCC_CFGR_SWS_CSI:  /* CSI used as system clock  source */
    sysclockfreq = CSI_VALUE;
 800466e:	4b8d      	ldr	r3, [pc, #564]	; (80048a4 <HAL_RCC_GetSysClockFreq+0x2dc>)
 8004670:	61bb      	str	r3, [r7, #24]
    break;
 8004672:	e10b      	b.n	800488c <HAL_RCC_GetSysClockFreq+0x2c4>

  case RCC_CFGR_SWS_HSE:  /* HSE used as system clock  source */
    sysclockfreq = HSE_VALUE;
 8004674:	4b8c      	ldr	r3, [pc, #560]	; (80048a8 <HAL_RCC_GetSysClockFreq+0x2e0>)
 8004676:	61bb      	str	r3, [r7, #24]
    break;
 8004678:	e108      	b.n	800488c <HAL_RCC_GetSysClockFreq+0x2c4>
  case RCC_CFGR_SWS_PLL1:  /* PLL1 used as system clock  source */

    /* PLL_VCO = (HSE_VALUE or HSI_VALUE or CSI_VALUE/ PLLM) * PLLN
    SYSCLK = PLL_VCO / PLLR
    */
    pllsource = (RCC->PLLCKSELR & RCC_PLLCKSELR_PLLSRC);
 800467a:	4b88      	ldr	r3, [pc, #544]	; (800489c <HAL_RCC_GetSysClockFreq+0x2d4>)
 800467c:	6a9b      	ldr	r3, [r3, #40]	; 0x28
 800467e:	f003 0303 	and.w	r3, r3, #3
 8004682:	617b      	str	r3, [r7, #20]
    pllm = ((RCC->PLLCKSELR & RCC_PLLCKSELR_DIVM1)>> 4)  ;
 8004684:	4b85      	ldr	r3, [pc, #532]	; (800489c <HAL_RCC_GetSysClockFreq+0x2d4>)
 8004686:	6a9b      	ldr	r3, [r3, #40]	; 0x28
 8004688:	091b      	lsrs	r3, r3, #4
 800468a:	f003 033f 	and.w	r3, r3, #63	; 0x3f
 800468e:	613b      	str	r3, [r7, #16]
    pllfracen = ((RCC-> PLLCFGR & RCC_PLLCFGR_PLL1FRACEN)>>RCC_PLLCFGR_PLL1FRACEN_Pos);
 8004690:	4b82      	ldr	r3, [pc, #520]	; (800489c <HAL_RCC_GetSysClockFreq+0x2d4>)
 8004692:	6adb      	ldr	r3, [r3, #44]	; 0x2c
 8004694:	f003 0301 	and.w	r3, r3, #1
 8004698:	60fb      	str	r3, [r7, #12]
    fracn1 = (float_t)(uint32_t)(pllfracen* ((RCC->PLL1FRACR & RCC_PLL1FRACR_FRACN1)>> 3));
 800469a:	4b80      	ldr	r3, [pc, #512]	; (800489c <HAL_RCC_GetSysClockFreq+0x2d4>)
 800469c:	6b5b      	ldr	r3, [r3, #52]	; 0x34
 800469e:	08db      	lsrs	r3, r3, #3
 80046a0:	f3c3 030c 	ubfx	r3, r3, #0, #13
 80046a4:	68fa      	ldr	r2, [r7, #12]
 80046a6:	fb02 f303 	mul.w	r3, r2, r3
 80046aa:	ee07 3a90 	vmov	s15, r3
 80046ae:	eef8 7a67 	vcvt.f32.u32	s15, s15
 80046b2:	edc7 7a02 	vstr	s15, [r7, #8]

    if (pllm != 0U)
 80046b6:	693b      	ldr	r3, [r7, #16]
 80046b8:	2b00      	cmp	r3, #0
 80046ba:	f000 80e1 	beq.w	8004880 <HAL_RCC_GetSysClockFreq+0x2b8>
 80046be:	697b      	ldr	r3, [r7, #20]
 80046c0:	2b02      	cmp	r3, #2
 80046c2:	f000 8083 	beq.w	80047cc <HAL_RCC_GetSysClockFreq+0x204>
 80046c6:	697b      	ldr	r3, [r7, #20]
 80046c8:	2b02      	cmp	r3, #2
 80046ca:	f200 80a1 	bhi.w	8004810 <HAL_RCC_GetSysClockFreq+0x248>
 80046ce:	697b      	ldr	r3, [r7, #20]
 80046d0:	2b00      	cmp	r3, #0
 80046d2:	d003      	beq.n	80046dc <HAL_RCC_GetSysClockFreq+0x114>
 80046d4:	697b      	ldr	r3, [r7, #20]
 80046d6:	2b01      	cmp	r3, #1
 80046d8:	d056      	beq.n	8004788 <HAL_RCC_GetSysClockFreq+0x1c0>
 80046da:	e099      	b.n	8004810 <HAL_RCC_GetSysClockFreq+0x248>
    {
      switch (pllsource)
      {
      case RCC_PLLSOURCE_HSI:  /* HSI used as PLL clock source */

       if (__HAL_RCC_GET_FLAG(RCC_FLAG_HSIDIV) != 0U)
 80046dc:	4b6f      	ldr	r3, [pc, #444]	; (800489c <HAL_RCC_GetSysClockFreq+0x2d4>)
 80046de:	681b      	ldr	r3, [r3, #0]
 80046e0:	f003 0320 	and.w	r3, r3, #32
 80046e4:	2b00      	cmp	r3, #0
 80046e6:	d02d      	beq.n	8004744 <HAL_RCC_GetSysClockFreq+0x17c>
        {
          hsivalue= (HSI_VALUE >> (__HAL_RCC_GET_HSI_DIVIDER()>> 3));
 80046e8:	4b6c      	ldr	r3, [pc, #432]	; (800489c <HAL_RCC_GetSysClockFreq+0x2d4>)
 80046ea:	681b      	ldr	r3, [r3, #0]
 80046ec:	08db      	lsrs	r3, r3, #3
 80046ee:	f003 0303 	and.w	r3, r3, #3
 80046f2:	4a6b      	ldr	r2, [pc, #428]	; (80048a0 <HAL_RCC_GetSysClockFreq+0x2d8>)
 80046f4:	fa22 f303 	lsr.w	r3, r2, r3
 80046f8:	607b      	str	r3, [r7, #4]
          pllvco = ( (float_t)hsivalue / (float_t)pllm) * ((float_t)(uint32_t)(RCC->PLL1DIVR & RCC_PLL1DIVR_N1) + (fracn1/(float_t)0x2000) +(float_t)1 );
 80046fa:	687b      	ldr	r3, [r7, #4]
 80046fc:	ee07 3a90 	vmov	s15, r3
 8004700:	eef8 6a67 	vcvt.f32.u32	s13, s15
 8004704:	693b      	ldr	r3, [r7, #16]
 8004706:	ee07 3a90 	vmov	s15, r3
 800470a:	eef8 7a67 	vcvt.f32.u32	s15, s15
 800470e:	ee86 7aa7 	vdiv.f32	s14, s13, s15
 8004712:	4b62      	ldr	r3, [pc, #392]	; (800489c <HAL_RCC_GetSysClockFreq+0x2d4>)
 8004714:	6b1b      	ldr	r3, [r3, #48]	; 0x30
 8004716:	f3c3 0308 	ubfx	r3, r3, #0, #9
 800471a:	ee07 3a90 	vmov	s15, r3
 800471e:	eef8 6a67 	vcvt.f32.u32	s13, s15
 8004722:	ed97 6a02 	vldr	s12, [r7, #8]
 8004726:	eddf 5a61 	vldr	s11, [pc, #388]	; 80048ac <HAL_RCC_GetSysClockFreq+0x2e4>
 800472a:	eec6 7a25 	vdiv.f32	s15, s12, s11
 800472e:	ee76 7aa7 	vadd.f32	s15, s13, s15
 8004732:	eef7 6a00 	vmov.f32	s13, #112	; 0x3f800000  1.0
 8004736:	ee77 7aa6 	vadd.f32	s15, s15, s13
 800473a:	ee67 7a27 	vmul.f32	s15, s14, s15
 800473e:	edc7 7a07 	vstr	s15, [r7, #28]
        }
        else
        {
          pllvco = ((float_t)HSI_VALUE / (float_t)pllm) * ((float_t)(uint32_t)(RCC->PLL1DIVR & RCC_PLL1DIVR_N1) + (fracn1/(float_t)0x2000) +(float_t)1 );
        }
        break;
 8004742:	e087      	b.n	8004854 <HAL_RCC_GetSysClockFreq+0x28c>
          pllvco = ((float_t)HSI_VALUE / (float_t)pllm) * ((float_t)(uint32_t)(RCC->PLL1DIVR & RCC_PLL1DIVR_N1) + (fracn1/(float_t)0x2000) +(float_t)1 );
 8004744:	693b      	ldr	r3, [r7, #16]
 8004746:	ee07 3a90 	vmov	s15, r3
 800474a:	eef8 7a67 	vcvt.f32.u32	s15, s15
 800474e:	eddf 6a58 	vldr	s13, [pc, #352]	; 80048b0 <HAL_RCC_GetSysClockFreq+0x2e8>
 8004752:	ee86 7aa7 	vdiv.f32	s14, s13, s15
 8004756:	4b51      	ldr	r3, [pc, #324]	; (800489c <HAL_RCC_GetSysClockFreq+0x2d4>)
 8004758:	6b1b      	ldr	r3, [r3, #48]	; 0x30
 800475a:	f3c3 0308 	ubfx	r3, r3, #0, #9
 800475e:	ee07 3a90 	vmov	s15, r3
 8004762:	eef8 6a67 	vcvt.f32.u32	s13, s15
 8004766:	ed97 6a02 	vldr	s12, [r7, #8]
 800476a:	eddf 5a50 	vldr	s11, [pc, #320]	; 80048ac <HAL_RCC_GetSysClockFreq+0x2e4>
 800476e:	eec6 7a25 	vdiv.f32	s15, s12, s11
 8004772:	ee76 7aa7 	vadd.f32	s15, s13, s15
 8004776:	eef7 6a00 	vmov.f32	s13, #112	; 0x3f800000  1.0
 800477a:	ee77 7aa6 	vadd.f32	s15, s15, s13
 800477e:	ee67 7a27 	vmul.f32	s15, s14, s15
 8004782:	edc7 7a07 	vstr	s15, [r7, #28]
        break;
 8004786:	e065      	b.n	8004854 <HAL_RCC_GetSysClockFreq+0x28c>

      case RCC_PLLSOURCE_CSI:  /* CSI used as PLL clock source */
        pllvco = ((float_t)CSI_VALUE / (float_t)pllm) * ((float_t)(uint32_t)(RCC->PLL1DIVR & RCC_PLL1DIVR_N1) + (fracn1/(float_t)0x2000) +(float_t)1 );
 8004788:	693b      	ldr	r3, [r7, #16]
 800478a:	ee07 3a90 	vmov	s15, r3
 800478e:	eef8 7a67 	vcvt.f32.u32	s15, s15
 8004792:	eddf 6a48 	vldr	s13, [pc, #288]	; 80048b4 <HAL_RCC_GetSysClockFreq+0x2ec>
 8004796:	ee86 7aa7 	vdiv.f32	s14, s13, s15
 800479a:	4b40      	ldr	r3, [pc, #256]	; (800489c <HAL_RCC_GetSysClockFreq+0x2d4>)
 800479c:	6b1b      	ldr	r3, [r3, #48]	; 0x30
 800479e:	f3c3 0308 	ubfx	r3, r3, #0, #9
 80047a2:	ee07 3a90 	vmov	s15, r3
 80047a6:	eef8 6a67 	vcvt.f32.u32	s13, s15
 80047aa:	ed97 6a02 	vldr	s12, [r7, #8]
 80047ae:	eddf 5a3f 	vldr	s11, [pc, #252]	; 80048ac <HAL_RCC_GetSysClockFreq+0x2e4>
 80047b2:	eec6 7a25 	vdiv.f32	s15, s12, s11
 80047b6:	ee76 7aa7 	vadd.f32	s15, s13, s15
 80047ba:	eef7 6a00 	vmov.f32	s13, #112	; 0x3f800000  1.0
 80047be:	ee77 7aa6 	vadd.f32	s15, s15, s13
 80047c2:	ee67 7a27 	vmul.f32	s15, s14, s15
 80047c6:	edc7 7a07 	vstr	s15, [r7, #28]
        break;
 80047ca:	e043      	b.n	8004854 <HAL_RCC_GetSysClockFreq+0x28c>

      case RCC_PLLSOURCE_HSE:  /* HSE used as PLL clock source */
        pllvco = ((float_t)HSE_VALUE / (float_t)pllm) * ((float_t)(uint32_t)(RCC->PLL1DIVR & RCC_PLL1DIVR_N1) + (fracn1/(float_t)0x2000) +(float_t)1 );
 80047cc:	693b      	ldr	r3, [r7, #16]
 80047ce:	ee07 3a90 	vmov	s15, r3
 80047d2:	eef8 7a67 	vcvt.f32.u32	s15, s15
 80047d6:	eddf 6a38 	vldr	s13, [pc, #224]	; 80048b8 <HAL_RCC_GetSysClockFreq+0x2f0>
 80047da:	ee86 7aa7 	vdiv.f32	s14, s13, s15
 80047de:	4b2f      	ldr	r3, [pc, #188]	; (800489c <HAL_RCC_GetSysClockFreq+0x2d4>)
 80047e0:	6b1b      	ldr	r3, [r3, #48]	; 0x30
 80047e2:	f3c3 0308 	ubfx	r3, r3, #0, #9
 80047e6:	ee07 3a90 	vmov	s15, r3
 80047ea:	eef8 6a67 	vcvt.f32.u32	s13, s15
 80047ee:	ed97 6a02 	vldr	s12, [r7, #8]
 80047f2:	eddf 5a2e 	vldr	s11, [pc, #184]	; 80048ac <HAL_RCC_GetSysClockFreq+0x2e4>
 80047f6:	eec6 7a25 	vdiv.f32	s15, s12, s11
 80047fa:	ee76 7aa7 	vadd.f32	s15, s13, s15
 80047fe:	eef7 6a00 	vmov.f32	s13, #112	; 0x3f800000  1.0
 8004802:	ee77 7aa6 	vadd.f32	s15, s15, s13
 8004806:	ee67 7a27 	vmul.f32	s15, s14, s15
 800480a:	edc7 7a07 	vstr	s15, [r7, #28]
        break;
 800480e:	e021      	b.n	8004854 <HAL_RCC_GetSysClockFreq+0x28c>

      default:
        pllvco = ((float_t)CSI_VALUE / (float_t)pllm) * ((float_t)(uint32_t)(RCC->PLL1DIVR & RCC_PLL1DIVR_N1) + (fracn1/(float_t)0x2000) +(float_t)1 );
 8004810:	693b      	ldr	r3, [r7, #16]
 8004812:	ee07 3a90 	vmov	s15, r3
 8004816:	eef8 7a67 	vcvt.f32.u32	s15, s15
 800481a:	eddf 6a26 	vldr	s13, [pc, #152]	; 80048b4 <HAL_RCC_GetSysClockFreq+0x2ec>
 800481e:	ee86 7aa7 	vdiv.f32	s14, s13, s15
 8004822:	4b1e      	ldr	r3, [pc, #120]	; (800489c <HAL_RCC_GetSysClockFreq+0x2d4>)
 8004824:	6b1b      	ldr	r3, [r3, #48]	; 0x30
 8004826:	f3c3 0308 	ubfx	r3, r3, #0, #9
 800482a:	ee07 3a90 	vmov	s15, r3
 800482e:	eef8 6a67 	vcvt.f32.u32	s13, s15
 8004832:	ed97 6a02 	vldr	s12, [r7, #8]
 8004836:	eddf 5a1d 	vldr	s11, [pc, #116]	; 80048ac <HAL_RCC_GetSysClockFreq+0x2e4>
 800483a:	eec6 7a25 	vdiv.f32	s15, s12, s11
 800483e:	ee76 7aa7 	vadd.f32	s15, s13, s15
 8004842:	eef7 6a00 	vmov.f32	s13, #112	; 0x3f800000  1.0
 8004846:	ee77 7aa6 	vadd.f32	s15, s15, s13
 800484a:	ee67 7a27 	vmul.f32	s15, s14, s15
 800484e:	edc7 7a07 	vstr	s15, [r7, #28]
        break;
 8004852:	bf00      	nop
      }
      pllp = (((RCC->PLL1DIVR & RCC_PLL1DIVR_P1) >>9) + 1U ) ;
 8004854:	4b11      	ldr	r3, [pc, #68]	; (800489c <HAL_RCC_GetSysClockFreq+0x2d4>)
 8004856:	6b1b      	ldr	r3, [r3, #48]	; 0x30
 8004858:	0a5b      	lsrs	r3, r3, #9
 800485a:	f003 037f 	and.w	r3, r3, #127	; 0x7f
 800485e:	3301      	adds	r3, #1
 8004860:	603b      	str	r3, [r7, #0]
      sysclockfreq =  (uint32_t)(float_t)(pllvco/(float_t)pllp);
 8004862:	683b      	ldr	r3, [r7, #0]
 8004864:	ee07 3a90 	vmov	s15, r3
 8004868:	eeb8 7a67 	vcvt.f32.u32	s14, s15
 800486c:	edd7 6a07 	vldr	s13, [r7, #28]
 8004870:	eec6 7a87 	vdiv.f32	s15, s13, s14
 8004874:	eefc 7ae7 	vcvt.u32.f32	s15, s15
 8004878:	ee17 3a90 	vmov	r3, s15
 800487c:	61bb      	str	r3, [r7, #24]
    }
    else
    {
      sysclockfreq = 0U;
    }
    break;
 800487e:	e005      	b.n	800488c <HAL_RCC_GetSysClockFreq+0x2c4>
      sysclockfreq = 0U;
 8004880:	2300      	movs	r3, #0
 8004882:	61bb      	str	r3, [r7, #24]
    break;
 8004884:	e002      	b.n	800488c <HAL_RCC_GetSysClockFreq+0x2c4>

  default:
    sysclockfreq = CSI_VALUE;
 8004886:	4b07      	ldr	r3, [pc, #28]	; (80048a4 <HAL_RCC_GetSysClockFreq+0x2dc>)
 8004888:	61bb      	str	r3, [r7, #24]
    break;
 800488a:	bf00      	nop
  }

  return sysclockfreq;
 800488c:	69bb      	ldr	r3, [r7, #24]
}
 800488e:	4618      	mov	r0, r3
 8004890:	3724      	adds	r7, #36	; 0x24
 8004892:	46bd      	mov	sp, r7
 8004894:	f85d 7b04 	ldr.w	r7, [sp], #4
 8004898:	4770      	bx	lr
 800489a:	bf00      	nop
 800489c:	58024400 	.word	0x58024400
 80048a0:	03d09000 	.word	0x03d09000
 80048a4:	003d0900 	.word	0x003d0900
 80048a8:	00f42400 	.word	0x00f42400
 80048ac:	46000000 	.word	0x46000000
 80048b0:	4c742400 	.word	0x4c742400
 80048b4:	4a742400 	.word	0x4a742400
 80048b8:	4b742400 	.word	0x4b742400

080048bc <HAL_RCCEx_PeriphCLKConfig>:
  * (*) : Available on some STM32H7 lines only.
  *
  * @retval HAL status
  */
HAL_StatusTypeDef HAL_RCCEx_PeriphCLKConfig(RCC_PeriphCLKInitTypeDef  *PeriphClkInit)
{
 80048bc:	b580      	push	{r7, lr}
 80048be:	b086      	sub	sp, #24
 80048c0:	af00      	add	r7, sp, #0
 80048c2:	6078      	str	r0, [r7, #4]
  uint32_t tmpreg;
  uint32_t tickstart;
  HAL_StatusTypeDef ret = HAL_OK;      /* Intermediate status */
 80048c4:	2300      	movs	r3, #0
 80048c6:	75fb      	strb	r3, [r7, #23]
  HAL_StatusTypeDef status = HAL_OK;   /* Final status */
 80048c8:	2300      	movs	r3, #0
 80048ca:	75bb      	strb	r3, [r7, #22]

  /*---------------------------- SPDIFRX configuration -------------------------------*/

  if(((PeriphClkInit->PeriphClockSelection) & RCC_PERIPHCLK_SPDIFRX) == RCC_PERIPHCLK_SPDIFRX)
 80048cc:	687b      	ldr	r3, [r7, #4]
 80048ce:	681b      	ldr	r3, [r3, #0]
 80048d0:	f003 6300 	and.w	r3, r3, #134217728	; 0x8000000
 80048d4:	2b00      	cmp	r3, #0
 80048d6:	d03f      	beq.n	8004958 <HAL_RCCEx_PeriphCLKConfig+0x9c>
  {

    switch(PeriphClkInit->SpdifrxClockSelection)
 80048d8:	687b      	ldr	r3, [r7, #4]
 80048da:	6e9b      	ldr	r3, [r3, #104]	; 0x68
 80048dc:	f5b3 1f40 	cmp.w	r3, #3145728	; 0x300000
 80048e0:	d02a      	beq.n	8004938 <HAL_RCCEx_PeriphCLKConfig+0x7c>
 80048e2:	f5b3 1f40 	cmp.w	r3, #3145728	; 0x300000
 80048e6:	d824      	bhi.n	8004932 <HAL_RCCEx_PeriphCLKConfig+0x76>
 80048e8:	f5b3 1f00 	cmp.w	r3, #2097152	; 0x200000
 80048ec:	d018      	beq.n	8004920 <HAL_RCCEx_PeriphCLKConfig+0x64>
 80048ee:	f5b3 1f00 	cmp.w	r3, #2097152	; 0x200000
 80048f2:	d81e      	bhi.n	8004932 <HAL_RCCEx_PeriphCLKConfig+0x76>
 80048f4:	2b00      	cmp	r3, #0
 80048f6:	d003      	beq.n	8004900 <HAL_RCCEx_PeriphCLKConfig+0x44>
 80048f8:	f5b3 1f80 	cmp.w	r3, #1048576	; 0x100000
 80048fc:	d007      	beq.n	800490e <HAL_RCCEx_PeriphCLKConfig+0x52>
 80048fe:	e018      	b.n	8004932 <HAL_RCCEx_PeriphCLKConfig+0x76>
    {
    case RCC_SPDIFRXCLKSOURCE_PLL:      /* PLL is used as clock source for SPDIFRX*/
      /* Enable PLL1Q Clock output generated form System PLL . */
      __HAL_RCC_PLLCLKOUT_ENABLE(RCC_PLL1_DIVQ);
 8004900:	4ba6      	ldr	r3, [pc, #664]	; (8004b9c <HAL_RCCEx_PeriphCLKConfig+0x2e0>)
 8004902:	6adb      	ldr	r3, [r3, #44]	; 0x2c
 8004904:	4aa5      	ldr	r2, [pc, #660]	; (8004b9c <HAL_RCCEx_PeriphCLKConfig+0x2e0>)
 8004906:	f443 3300 	orr.w	r3, r3, #131072	; 0x20000
 800490a:	62d3      	str	r3, [r2, #44]	; 0x2c

      /* SPDIFRX clock source configuration done later after clock selection check */
      break;
 800490c:	e015      	b.n	800493a <HAL_RCCEx_PeriphCLKConfig+0x7e>

    case RCC_SPDIFRXCLKSOURCE_PLL2: /* PLL2 is used as clock source for SPDIFRX*/

      ret = RCCEx_PLL2_Config(&(PeriphClkInit->PLL2),DIVIDER_R_UPDATE);
 800490e:	687b      	ldr	r3, [r7, #4]
 8004910:	3304      	adds	r3, #4
 8004912:	2102      	movs	r1, #2
 8004914:	4618      	mov	r0, r3
 8004916:	f000 fedd 	bl	80056d4 <RCCEx_PLL2_Config>
 800491a:	4603      	mov	r3, r0
 800491c:	75fb      	strb	r3, [r7, #23]

      /* SPDIFRX clock source configuration done later after clock selection check */
      break;
 800491e:	e00c      	b.n	800493a <HAL_RCCEx_PeriphCLKConfig+0x7e>

    case RCC_SPDIFRXCLKSOURCE_PLL3:  /* PLL3 is used as clock source for SPDIFRX*/
      ret = RCCEx_PLL3_Config(&(PeriphClkInit->PLL3),DIVIDER_R_UPDATE);
 8004920:	687b      	ldr	r3, [r7, #4]
 8004922:	3324      	adds	r3, #36	; 0x24
 8004924:	2102      	movs	r1, #2
 8004926:	4618      	mov	r0, r3
 8004928:	f000 ff86 	bl	8005838 <RCCEx_PLL3_Config>
 800492c:	4603      	mov	r3, r0
 800492e:	75fb      	strb	r3, [r7, #23]

      /* SPDIFRX clock source configuration done later after clock selection check */
      break;
 8004930:	e003      	b.n	800493a <HAL_RCCEx_PeriphCLKConfig+0x7e>
      /* Internal OSC clock is used as source of SPDIFRX clock*/
      /* SPDIFRX clock source configuration done later after clock selection check */
      break;

    default:
      ret = HAL_ERROR;
 8004932:	2301      	movs	r3, #1
 8004934:	75fb      	strb	r3, [r7, #23]
      break;
 8004936:	e000      	b.n	800493a <HAL_RCCEx_PeriphCLKConfig+0x7e>
      break;
 8004938:	bf00      	nop
    }

    if(ret == HAL_OK)
 800493a:	7dfb      	ldrb	r3, [r7, #23]
 800493c:	2b00      	cmp	r3, #0
 800493e:	d109      	bne.n	8004954 <HAL_RCCEx_PeriphCLKConfig+0x98>
    {
      /* Set the source of SPDIFRX clock*/
      __HAL_RCC_SPDIFRX_CONFIG(PeriphClkInit->SpdifrxClockSelection);
 8004940:	4b96      	ldr	r3, [pc, #600]	; (8004b9c <HAL_RCCEx_PeriphCLKConfig+0x2e0>)
 8004942:	6d1b      	ldr	r3, [r3, #80]	; 0x50
 8004944:	f423 1240 	bic.w	r2, r3, #3145728	; 0x300000
 8004948:	687b      	ldr	r3, [r7, #4]
 800494a:	6e9b      	ldr	r3, [r3, #104]	; 0x68
 800494c:	4993      	ldr	r1, [pc, #588]	; (8004b9c <HAL_RCCEx_PeriphCLKConfig+0x2e0>)
 800494e:	4313      	orrs	r3, r2
 8004950:	650b      	str	r3, [r1, #80]	; 0x50
 8004952:	e001      	b.n	8004958 <HAL_RCCEx_PeriphCLKConfig+0x9c>
    }
    else
    {
      /* set overall return value */
      status = ret;
 8004954:	7dfb      	ldrb	r3, [r7, #23]
 8004956:	75bb      	strb	r3, [r7, #22]
    }
  }

  /*---------------------------- SAI1 configuration -------------------------------*/
  if(((PeriphClkInit->PeriphClockSelection) & RCC_PERIPHCLK_SAI1) == RCC_PERIPHCLK_SAI1)
 8004958:	687b      	ldr	r3, [r7, #4]
 800495a:	681b      	ldr	r3, [r3, #0]
 800495c:	f403 7380 	and.w	r3, r3, #256	; 0x100
 8004960:	2b00      	cmp	r3, #0
 8004962:	d03d      	beq.n	80049e0 <HAL_RCCEx_PeriphCLKConfig+0x124>
  {
    switch(PeriphClkInit->Sai1ClockSelection)
 8004964:	687b      	ldr	r3, [r7, #4]
 8004966:	6d5b      	ldr	r3, [r3, #84]	; 0x54
 8004968:	2b04      	cmp	r3, #4
 800496a:	d826      	bhi.n	80049ba <HAL_RCCEx_PeriphCLKConfig+0xfe>
 800496c:	a201      	add	r2, pc, #4	; (adr r2, 8004974 <HAL_RCCEx_PeriphCLKConfig+0xb8>)
 800496e:	f852 f023 	ldr.w	pc, [r2, r3, lsl #2]
 8004972:	bf00      	nop
 8004974:	08004989 	.word	0x08004989
 8004978:	08004997 	.word	0x08004997
 800497c:	080049a9 	.word	0x080049a9
 8004980:	080049c1 	.word	0x080049c1
 8004984:	080049c1 	.word	0x080049c1
    {
    case RCC_SAI1CLKSOURCE_PLL:      /* PLL is used as clock source for SAI1*/
      /* Enable SAI Clock output generated form System PLL . */
      __HAL_RCC_PLLCLKOUT_ENABLE(RCC_PLL1_DIVQ);
 8004988:	4b84      	ldr	r3, [pc, #528]	; (8004b9c <HAL_RCCEx_PeriphCLKConfig+0x2e0>)
 800498a:	6adb      	ldr	r3, [r3, #44]	; 0x2c
 800498c:	4a83      	ldr	r2, [pc, #524]	; (8004b9c <HAL_RCCEx_PeriphCLKConfig+0x2e0>)
 800498e:	f443 3300 	orr.w	r3, r3, #131072	; 0x20000
 8004992:	62d3      	str	r3, [r2, #44]	; 0x2c

      /* SAI1 clock source configuration done later after clock selection check */
      break;
 8004994:	e015      	b.n	80049c2 <HAL_RCCEx_PeriphCLKConfig+0x106>

    case RCC_SAI1CLKSOURCE_PLL2: /* PLL2 is used as clock source for SAI1*/

      ret = RCCEx_PLL2_Config(&(PeriphClkInit->PLL2),DIVIDER_P_UPDATE);
 8004996:	687b      	ldr	r3, [r7, #4]
 8004998:	3304      	adds	r3, #4
 800499a:	2100      	movs	r1, #0
 800499c:	4618      	mov	r0, r3
 800499e:	f000 fe99 	bl	80056d4 <RCCEx_PLL2_Config>
 80049a2:	4603      	mov	r3, r0
 80049a4:	75fb      	strb	r3, [r7, #23]

      /* SAI1 clock source configuration done later after clock selection check */
      break;
 80049a6:	e00c      	b.n	80049c2 <HAL_RCCEx_PeriphCLKConfig+0x106>

    case RCC_SAI1CLKSOURCE_PLL3:  /* PLL3 is used as clock source for SAI1*/
      ret = RCCEx_PLL3_Config(&(PeriphClkInit->PLL3),DIVIDER_P_UPDATE);
 80049a8:	687b      	ldr	r3, [r7, #4]
 80049aa:	3324      	adds	r3, #36	; 0x24
 80049ac:	2100      	movs	r1, #0
 80049ae:	4618      	mov	r0, r3
 80049b0:	f000 ff42 	bl	8005838 <RCCEx_PLL3_Config>
 80049b4:	4603      	mov	r3, r0
 80049b6:	75fb      	strb	r3, [r7, #23]

      /* SAI1 clock source configuration done later after clock selection check */
      break;
 80049b8:	e003      	b.n	80049c2 <HAL_RCCEx_PeriphCLKConfig+0x106>
      /* HSI, HSE, or CSI oscillator is used as source of SAI1 clock */
      /* SAI1 clock source configuration done later after clock selection check */
      break;

    default:
      ret = HAL_ERROR;
 80049ba:	2301      	movs	r3, #1
 80049bc:	75fb      	strb	r3, [r7, #23]
      break;
 80049be:	e000      	b.n	80049c2 <HAL_RCCEx_PeriphCLKConfig+0x106>
      break;
 80049c0:	bf00      	nop
    }

    if(ret == HAL_OK)
 80049c2:	7dfb      	ldrb	r3, [r7, #23]
 80049c4:	2b00      	cmp	r3, #0
 80049c6:	d109      	bne.n	80049dc <HAL_RCCEx_PeriphCLKConfig+0x120>
    {
      /* Set the source of SAI1 clock*/
      __HAL_RCC_SAI1_CONFIG(PeriphClkInit->Sai1ClockSelection);
 80049c8:	4b74      	ldr	r3, [pc, #464]	; (8004b9c <HAL_RCCEx_PeriphCLKConfig+0x2e0>)
 80049ca:	6d1b      	ldr	r3, [r3, #80]	; 0x50
 80049cc:	f023 0207 	bic.w	r2, r3, #7
 80049d0:	687b      	ldr	r3, [r7, #4]
 80049d2:	6d5b      	ldr	r3, [r3, #84]	; 0x54
 80049d4:	4971      	ldr	r1, [pc, #452]	; (8004b9c <HAL_RCCEx_PeriphCLKConfig+0x2e0>)
 80049d6:	4313      	orrs	r3, r2
 80049d8:	650b      	str	r3, [r1, #80]	; 0x50
 80049da:	e001      	b.n	80049e0 <HAL_RCCEx_PeriphCLKConfig+0x124>
    }
    else
    {
      /* set overall return value */
      status = ret;
 80049dc:	7dfb      	ldrb	r3, [r7, #23]
 80049de:	75bb      	strb	r3, [r7, #22]

#endif /* SAI3 */

#if defined(RCC_CDCCIP1R_SAI2ASEL)
  /*---------------------------- SAI2A configuration -------------------------------*/
  if(((PeriphClkInit->PeriphClockSelection) & RCC_PERIPHCLK_SAI2A) == RCC_PERIPHCLK_SAI2A)
 80049e0:	687b      	ldr	r3, [r7, #4]
 80049e2:	681b      	ldr	r3, [r3, #0]
 80049e4:	f403 7300 	and.w	r3, r3, #512	; 0x200
 80049e8:	2b00      	cmp	r3, #0
 80049ea:	d04a      	beq.n	8004a82 <HAL_RCCEx_PeriphCLKConfig+0x1c6>
  {
    switch(PeriphClkInit->Sai2AClockSelection)
 80049ec:	687b      	ldr	r3, [r7, #4]
 80049ee:	6d9b      	ldr	r3, [r3, #88]	; 0x58
 80049f0:	f5b3 7fa0 	cmp.w	r3, #320	; 0x140
 80049f4:	d031      	beq.n	8004a5a <HAL_RCCEx_PeriphCLKConfig+0x19e>
 80049f6:	f5b3 7fa0 	cmp.w	r3, #320	; 0x140
 80049fa:	d82b      	bhi.n	8004a54 <HAL_RCCEx_PeriphCLKConfig+0x198>
 80049fc:	f5b3 7f80 	cmp.w	r3, #256	; 0x100
 8004a00:	d02d      	beq.n	8004a5e <HAL_RCCEx_PeriphCLKConfig+0x1a2>
 8004a02:	f5b3 7f80 	cmp.w	r3, #256	; 0x100
 8004a06:	d825      	bhi.n	8004a54 <HAL_RCCEx_PeriphCLKConfig+0x198>
 8004a08:	2bc0      	cmp	r3, #192	; 0xc0
 8004a0a:	d02a      	beq.n	8004a62 <HAL_RCCEx_PeriphCLKConfig+0x1a6>
 8004a0c:	2bc0      	cmp	r3, #192	; 0xc0
 8004a0e:	d821      	bhi.n	8004a54 <HAL_RCCEx_PeriphCLKConfig+0x198>
 8004a10:	2b80      	cmp	r3, #128	; 0x80
 8004a12:	d016      	beq.n	8004a42 <HAL_RCCEx_PeriphCLKConfig+0x186>
 8004a14:	2b80      	cmp	r3, #128	; 0x80
 8004a16:	d81d      	bhi.n	8004a54 <HAL_RCCEx_PeriphCLKConfig+0x198>
 8004a18:	2b00      	cmp	r3, #0
 8004a1a:	d002      	beq.n	8004a22 <HAL_RCCEx_PeriphCLKConfig+0x166>
 8004a1c:	2b40      	cmp	r3, #64	; 0x40
 8004a1e:	d007      	beq.n	8004a30 <HAL_RCCEx_PeriphCLKConfig+0x174>
 8004a20:	e018      	b.n	8004a54 <HAL_RCCEx_PeriphCLKConfig+0x198>
    {
    case RCC_SAI2ACLKSOURCE_PLL:      /* PLL is used as clock source for SAI2A */
      /* Enable SAI2A Clock output generated form System PLL . */
      __HAL_RCC_PLLCLKOUT_ENABLE(RCC_PLL1_DIVQ);
 8004a22:	4b5e      	ldr	r3, [pc, #376]	; (8004b9c <HAL_RCCEx_PeriphCLKConfig+0x2e0>)
 8004a24:	6adb      	ldr	r3, [r3, #44]	; 0x2c
 8004a26:	4a5d      	ldr	r2, [pc, #372]	; (8004b9c <HAL_RCCEx_PeriphCLKConfig+0x2e0>)
 8004a28:	f443 3300 	orr.w	r3, r3, #131072	; 0x20000
 8004a2c:	62d3      	str	r3, [r2, #44]	; 0x2c

      /* SAI2A clock source configuration done later after clock selection check */
      break;
 8004a2e:	e019      	b.n	8004a64 <HAL_RCCEx_PeriphCLKConfig+0x1a8>

    case RCC_SAI2ACLKSOURCE_PLL2: /* PLL2 is used as clock source for SAI2A */

      ret = RCCEx_PLL2_Config(&(PeriphClkInit->PLL2),DIVIDER_P_UPDATE);
 8004a30:	687b      	ldr	r3, [r7, #4]
 8004a32:	3304      	adds	r3, #4
 8004a34:	2100      	movs	r1, #0
 8004a36:	4618      	mov	r0, r3
 8004a38:	f000 fe4c 	bl	80056d4 <RCCEx_PLL2_Config>
 8004a3c:	4603      	mov	r3, r0
 8004a3e:	75fb      	strb	r3, [r7, #23]

      /* SAI2A clock source configuration done later after clock selection check */
      break;
 8004a40:	e010      	b.n	8004a64 <HAL_RCCEx_PeriphCLKConfig+0x1a8>

    case RCC_SAI2ACLKSOURCE_PLL3:  /* PLL3 is used as clock source for SAI2A */
      ret = RCCEx_PLL3_Config(&(PeriphClkInit->PLL3),DIVIDER_P_UPDATE);
 8004a42:	687b      	ldr	r3, [r7, #4]
 8004a44:	3324      	adds	r3, #36	; 0x24
 8004a46:	2100      	movs	r1, #0
 8004a48:	4618      	mov	r0, r3
 8004a4a:	f000 fef5 	bl	8005838 <RCCEx_PLL3_Config>
 8004a4e:	4603      	mov	r3, r0
 8004a50:	75fb      	strb	r3, [r7, #23]

      /* SAI2A clock source configuration done later after clock selection check */
      break;
 8004a52:	e007      	b.n	8004a64 <HAL_RCCEx_PeriphCLKConfig+0x1a8>
      /* SPDIF clock is used as source of SAI2A clock */
      /* SAI2A clock source configuration done later after clock selection check */
      break;

    default:
      ret = HAL_ERROR;
 8004a54:	2301      	movs	r3, #1
 8004a56:	75fb      	strb	r3, [r7, #23]
      break;
 8004a58:	e004      	b.n	8004a64 <HAL_RCCEx_PeriphCLKConfig+0x1a8>
      break;
 8004a5a:	bf00      	nop
 8004a5c:	e002      	b.n	8004a64 <HAL_RCCEx_PeriphCLKConfig+0x1a8>
      break;
 8004a5e:	bf00      	nop
 8004a60:	e000      	b.n	8004a64 <HAL_RCCEx_PeriphCLKConfig+0x1a8>
      break;
 8004a62:	bf00      	nop
    }

    if(ret == HAL_OK)
 8004a64:	7dfb      	ldrb	r3, [r7, #23]
 8004a66:	2b00      	cmp	r3, #0
 8004a68:	d109      	bne.n	8004a7e <HAL_RCCEx_PeriphCLKConfig+0x1c2>
    {
      /* Set the source of SAI2A clock*/
      __HAL_RCC_SAI2A_CONFIG(PeriphClkInit->Sai2AClockSelection);
 8004a6a:	4b4c      	ldr	r3, [pc, #304]	; (8004b9c <HAL_RCCEx_PeriphCLKConfig+0x2e0>)
 8004a6c:	6d1b      	ldr	r3, [r3, #80]	; 0x50
 8004a6e:	f423 72e0 	bic.w	r2, r3, #448	; 0x1c0
 8004a72:	687b      	ldr	r3, [r7, #4]
 8004a74:	6d9b      	ldr	r3, [r3, #88]	; 0x58
 8004a76:	4949      	ldr	r1, [pc, #292]	; (8004b9c <HAL_RCCEx_PeriphCLKConfig+0x2e0>)
 8004a78:	4313      	orrs	r3, r2
 8004a7a:	650b      	str	r3, [r1, #80]	; 0x50
 8004a7c:	e001      	b.n	8004a82 <HAL_RCCEx_PeriphCLKConfig+0x1c6>
    }
    else
    {
      /* set overall return value */
      status = ret;
 8004a7e:	7dfb      	ldrb	r3, [r7, #23]
 8004a80:	75bb      	strb	r3, [r7, #22]
#endif  /*SAI2A*/

#if defined(RCC_CDCCIP1R_SAI2BSEL)

  /*---------------------------- SAI2B configuration -------------------------------*/
  if(((PeriphClkInit->PeriphClockSelection) & RCC_PERIPHCLK_SAI2B) == RCC_PERIPHCLK_SAI2B)
 8004a82:	687b      	ldr	r3, [r7, #4]
 8004a84:	681b      	ldr	r3, [r3, #0]
 8004a86:	f403 6380 	and.w	r3, r3, #1024	; 0x400
 8004a8a:	2b00      	cmp	r3, #0
 8004a8c:	d04f      	beq.n	8004b2e <HAL_RCCEx_PeriphCLKConfig+0x272>
  {
    switch(PeriphClkInit->Sai2BClockSelection)
 8004a8e:	687b      	ldr	r3, [r7, #4]
 8004a90:	6ddb      	ldr	r3, [r3, #92]	; 0x5c
 8004a92:	f5b3 6f20 	cmp.w	r3, #2560	; 0xa00
 8004a96:	d036      	beq.n	8004b06 <HAL_RCCEx_PeriphCLKConfig+0x24a>
 8004a98:	f5b3 6f20 	cmp.w	r3, #2560	; 0xa00
 8004a9c:	d830      	bhi.n	8004b00 <HAL_RCCEx_PeriphCLKConfig+0x244>
 8004a9e:	f5b3 6f00 	cmp.w	r3, #2048	; 0x800
 8004aa2:	d032      	beq.n	8004b0a <HAL_RCCEx_PeriphCLKConfig+0x24e>
 8004aa4:	f5b3 6f00 	cmp.w	r3, #2048	; 0x800
 8004aa8:	d82a      	bhi.n	8004b00 <HAL_RCCEx_PeriphCLKConfig+0x244>
 8004aaa:	f5b3 6fc0 	cmp.w	r3, #1536	; 0x600
 8004aae:	d02e      	beq.n	8004b0e <HAL_RCCEx_PeriphCLKConfig+0x252>
 8004ab0:	f5b3 6fc0 	cmp.w	r3, #1536	; 0x600
 8004ab4:	d824      	bhi.n	8004b00 <HAL_RCCEx_PeriphCLKConfig+0x244>
 8004ab6:	f5b3 6f80 	cmp.w	r3, #1024	; 0x400
 8004aba:	d018      	beq.n	8004aee <HAL_RCCEx_PeriphCLKConfig+0x232>
 8004abc:	f5b3 6f80 	cmp.w	r3, #1024	; 0x400
 8004ac0:	d81e      	bhi.n	8004b00 <HAL_RCCEx_PeriphCLKConfig+0x244>
 8004ac2:	2b00      	cmp	r3, #0
 8004ac4:	d003      	beq.n	8004ace <HAL_RCCEx_PeriphCLKConfig+0x212>
 8004ac6:	f5b3 7f00 	cmp.w	r3, #512	; 0x200
 8004aca:	d007      	beq.n	8004adc <HAL_RCCEx_PeriphCLKConfig+0x220>
 8004acc:	e018      	b.n	8004b00 <HAL_RCCEx_PeriphCLKConfig+0x244>
    {
    case RCC_SAI2BCLKSOURCE_PLL:      /* PLL is used as clock source for SAI2B */
      /* Enable SAI Clock output generated form System PLL . */
      __HAL_RCC_PLLCLKOUT_ENABLE(RCC_PLL1_DIVQ);
 8004ace:	4b33      	ldr	r3, [pc, #204]	; (8004b9c <HAL_RCCEx_PeriphCLKConfig+0x2e0>)
 8004ad0:	6adb      	ldr	r3, [r3, #44]	; 0x2c
 8004ad2:	4a32      	ldr	r2, [pc, #200]	; (8004b9c <HAL_RCCEx_PeriphCLKConfig+0x2e0>)
 8004ad4:	f443 3300 	orr.w	r3, r3, #131072	; 0x20000
 8004ad8:	62d3      	str	r3, [r2, #44]	; 0x2c

      /* SAI2B clock source configuration done later after clock selection check */
      break;
 8004ada:	e019      	b.n	8004b10 <HAL_RCCEx_PeriphCLKConfig+0x254>

    case RCC_SAI2BCLKSOURCE_PLL2: /* PLL2 is used as clock source for SAI2B */

      ret = RCCEx_PLL2_Config(&(PeriphClkInit->PLL2),DIVIDER_P_UPDATE);
 8004adc:	687b      	ldr	r3, [r7, #4]
 8004ade:	3304      	adds	r3, #4
 8004ae0:	2100      	movs	r1, #0
 8004ae2:	4618      	mov	r0, r3
 8004ae4:	f000 fdf6 	bl	80056d4 <RCCEx_PLL2_Config>
 8004ae8:	4603      	mov	r3, r0
 8004aea:	75fb      	strb	r3, [r7, #23]

      /* SAI2B clock source configuration done later after clock selection check */
      break;
 8004aec:	e010      	b.n	8004b10 <HAL_RCCEx_PeriphCLKConfig+0x254>

    case RCC_SAI2BCLKSOURCE_PLL3:  /* PLL3 is used as clock source for SAI2B */
      ret = RCCEx_PLL3_Config(&(PeriphClkInit->PLL3),DIVIDER_P_UPDATE);
 8004aee:	687b      	ldr	r3, [r7, #4]
 8004af0:	3324      	adds	r3, #36	; 0x24
 8004af2:	2100      	movs	r1, #0
 8004af4:	4618      	mov	r0, r3
 8004af6:	f000 fe9f 	bl	8005838 <RCCEx_PLL3_Config>
 8004afa:	4603      	mov	r3, r0
 8004afc:	75fb      	strb	r3, [r7, #23]

      /* SAI2B clock source configuration done later after clock selection check */
      break;
 8004afe:	e007      	b.n	8004b10 <HAL_RCCEx_PeriphCLKConfig+0x254>
      /* SPDIF clock is used as source of SAI2B clock */
      /* SAI2B clock source configuration done later after clock selection check */
      break;

    default:
      ret = HAL_ERROR;
 8004b00:	2301      	movs	r3, #1
 8004b02:	75fb      	strb	r3, [r7, #23]
      break;
 8004b04:	e004      	b.n	8004b10 <HAL_RCCEx_PeriphCLKConfig+0x254>
      break;
 8004b06:	bf00      	nop
 8004b08:	e002      	b.n	8004b10 <HAL_RCCEx_PeriphCLKConfig+0x254>
      break;
 8004b0a:	bf00      	nop
 8004b0c:	e000      	b.n	8004b10 <HAL_RCCEx_PeriphCLKConfig+0x254>
      break;
 8004b0e:	bf00      	nop
    }

    if(ret == HAL_OK)
 8004b10:	7dfb      	ldrb	r3, [r7, #23]
 8004b12:	2b00      	cmp	r3, #0
 8004b14:	d109      	bne.n	8004b2a <HAL_RCCEx_PeriphCLKConfig+0x26e>
    {
      /* Set the source of SAI2B clock*/
      __HAL_RCC_SAI2B_CONFIG(PeriphClkInit->Sai2BClockSelection);
 8004b16:	4b21      	ldr	r3, [pc, #132]	; (8004b9c <HAL_RCCEx_PeriphCLKConfig+0x2e0>)
 8004b18:	6d1b      	ldr	r3, [r3, #80]	; 0x50
 8004b1a:	f423 6260 	bic.w	r2, r3, #3584	; 0xe00
 8004b1e:	687b      	ldr	r3, [r7, #4]
 8004b20:	6ddb      	ldr	r3, [r3, #92]	; 0x5c
 8004b22:	491e      	ldr	r1, [pc, #120]	; (8004b9c <HAL_RCCEx_PeriphCLKConfig+0x2e0>)
 8004b24:	4313      	orrs	r3, r2
 8004b26:	650b      	str	r3, [r1, #80]	; 0x50
 8004b28:	e001      	b.n	8004b2e <HAL_RCCEx_PeriphCLKConfig+0x272>
    }
    else
    {
      /* set overall return value */
      status = ret;
 8004b2a:	7dfb      	ldrb	r3, [r7, #23]
 8004b2c:	75bb      	strb	r3, [r7, #22]
  }
#endif  /*QUADSPI*/

#if defined(OCTOSPI1) || defined(OCTOSPI2)
  /*---------------------------- OCTOSPI configuration -------------------------------*/
  if(((PeriphClkInit->PeriphClockSelection) & RCC_PERIPHCLK_OSPI) == RCC_PERIPHCLK_OSPI)
 8004b2e:	687b      	ldr	r3, [r7, #4]
 8004b30:	681b      	ldr	r3, [r3, #0]
 8004b32:	f003 7300 	and.w	r3, r3, #33554432	; 0x2000000
 8004b36:	2b00      	cmp	r3, #0
 8004b38:	d034      	beq.n	8004ba4 <HAL_RCCEx_PeriphCLKConfig+0x2e8>
  {
    switch(PeriphClkInit->OspiClockSelection)
 8004b3a:	687b      	ldr	r3, [r7, #4]
 8004b3c:	6c9b      	ldr	r3, [r3, #72]	; 0x48
 8004b3e:	2b30      	cmp	r3, #48	; 0x30
 8004b40:	d01c      	beq.n	8004b7c <HAL_RCCEx_PeriphCLKConfig+0x2c0>
 8004b42:	2b30      	cmp	r3, #48	; 0x30
 8004b44:	d817      	bhi.n	8004b76 <HAL_RCCEx_PeriphCLKConfig+0x2ba>
 8004b46:	2b20      	cmp	r3, #32
 8004b48:	d00c      	beq.n	8004b64 <HAL_RCCEx_PeriphCLKConfig+0x2a8>
 8004b4a:	2b20      	cmp	r3, #32
 8004b4c:	d813      	bhi.n	8004b76 <HAL_RCCEx_PeriphCLKConfig+0x2ba>
 8004b4e:	2b00      	cmp	r3, #0
 8004b50:	d016      	beq.n	8004b80 <HAL_RCCEx_PeriphCLKConfig+0x2c4>
 8004b52:	2b10      	cmp	r3, #16
 8004b54:	d10f      	bne.n	8004b76 <HAL_RCCEx_PeriphCLKConfig+0x2ba>
    {
    case RCC_OSPICLKSOURCE_PLL:      /* PLL is used as clock source for OSPI*/
      /* Enable OSPI Clock output generated form System PLL . */
      __HAL_RCC_PLLCLKOUT_ENABLE(RCC_PLL1_DIVQ);
 8004b56:	4b11      	ldr	r3, [pc, #68]	; (8004b9c <HAL_RCCEx_PeriphCLKConfig+0x2e0>)
 8004b58:	6adb      	ldr	r3, [r3, #44]	; 0x2c
 8004b5a:	4a10      	ldr	r2, [pc, #64]	; (8004b9c <HAL_RCCEx_PeriphCLKConfig+0x2e0>)
 8004b5c:	f443 3300 	orr.w	r3, r3, #131072	; 0x20000
 8004b60:	62d3      	str	r3, [r2, #44]	; 0x2c

      /* OSPI clock source configuration done later after clock selection check */
      break;
 8004b62:	e00e      	b.n	8004b82 <HAL_RCCEx_PeriphCLKConfig+0x2c6>

    case RCC_OSPICLKSOURCE_PLL2: /* PLL2 is used as clock source for OSPI*/

      ret = RCCEx_PLL2_Config(&(PeriphClkInit->PLL2),DIVIDER_R_UPDATE);
 8004b64:	687b      	ldr	r3, [r7, #4]
 8004b66:	3304      	adds	r3, #4
 8004b68:	2102      	movs	r1, #2
 8004b6a:	4618      	mov	r0, r3
 8004b6c:	f000 fdb2 	bl	80056d4 <RCCEx_PLL2_Config>
 8004b70:	4603      	mov	r3, r0
 8004b72:	75fb      	strb	r3, [r7, #23]

      /* OSPI clock source configuration done later after clock selection check */
      break;
 8004b74:	e005      	b.n	8004b82 <HAL_RCCEx_PeriphCLKConfig+0x2c6>
    case RCC_OSPICLKSOURCE_HCLK:
      /* HCLK clock selected as OSPI kernel peripheral clock */
      break;

    default:
      ret = HAL_ERROR;
 8004b76:	2301      	movs	r3, #1
 8004b78:	75fb      	strb	r3, [r7, #23]
      break;
 8004b7a:	e002      	b.n	8004b82 <HAL_RCCEx_PeriphCLKConfig+0x2c6>
      break;
 8004b7c:	bf00      	nop
 8004b7e:	e000      	b.n	8004b82 <HAL_RCCEx_PeriphCLKConfig+0x2c6>
      break;
 8004b80:	bf00      	nop
    }

    if(ret == HAL_OK)
 8004b82:	7dfb      	ldrb	r3, [r7, #23]
 8004b84:	2b00      	cmp	r3, #0
 8004b86:	d10b      	bne.n	8004ba0 <HAL_RCCEx_PeriphCLKConfig+0x2e4>
    {
      /* Set the source of OSPI clock*/
      __HAL_RCC_OSPI_CONFIG(PeriphClkInit->OspiClockSelection);
 8004b88:	4b04      	ldr	r3, [pc, #16]	; (8004b9c <HAL_RCCEx_PeriphCLKConfig+0x2e0>)
 8004b8a:	6cdb      	ldr	r3, [r3, #76]	; 0x4c
 8004b8c:	f023 0230 	bic.w	r2, r3, #48	; 0x30
 8004b90:	687b      	ldr	r3, [r7, #4]
 8004b92:	6c9b      	ldr	r3, [r3, #72]	; 0x48
 8004b94:	4901      	ldr	r1, [pc, #4]	; (8004b9c <HAL_RCCEx_PeriphCLKConfig+0x2e0>)
 8004b96:	4313      	orrs	r3, r2
 8004b98:	64cb      	str	r3, [r1, #76]	; 0x4c
 8004b9a:	e003      	b.n	8004ba4 <HAL_RCCEx_PeriphCLKConfig+0x2e8>
 8004b9c:	58024400 	.word	0x58024400
    }
    else
    {
      /* set overall return value */
      status = ret;
 8004ba0:	7dfb      	ldrb	r3, [r7, #23]
 8004ba2:	75bb      	strb	r3, [r7, #22]
    }
  }
#endif  /*OCTOSPI*/

  /*---------------------------- SPI1/2/3 configuration -------------------------------*/
  if(((PeriphClkInit->PeriphClockSelection) & RCC_PERIPHCLK_SPI123) == RCC_PERIPHCLK_SPI123)
 8004ba4:	687b      	ldr	r3, [r7, #4]
 8004ba6:	681b      	ldr	r3, [r3, #0]
 8004ba8:	f403 5380 	and.w	r3, r3, #4096	; 0x1000
 8004bac:	2b00      	cmp	r3, #0
 8004bae:	d047      	beq.n	8004c40 <HAL_RCCEx_PeriphCLKConfig+0x384>
  {
    switch(PeriphClkInit->Spi123ClockSelection)
 8004bb0:	687b      	ldr	r3, [r7, #4]
 8004bb2:	6e1b      	ldr	r3, [r3, #96]	; 0x60
 8004bb4:	f5b3 4f80 	cmp.w	r3, #16384	; 0x4000
 8004bb8:	d030      	beq.n	8004c1c <HAL_RCCEx_PeriphCLKConfig+0x360>
 8004bba:	f5b3 4f80 	cmp.w	r3, #16384	; 0x4000
 8004bbe:	d82a      	bhi.n	8004c16 <HAL_RCCEx_PeriphCLKConfig+0x35a>
 8004bc0:	f5b3 5f40 	cmp.w	r3, #12288	; 0x3000
 8004bc4:	d02c      	beq.n	8004c20 <HAL_RCCEx_PeriphCLKConfig+0x364>
 8004bc6:	f5b3 5f40 	cmp.w	r3, #12288	; 0x3000
 8004bca:	d824      	bhi.n	8004c16 <HAL_RCCEx_PeriphCLKConfig+0x35a>
 8004bcc:	f5b3 5f00 	cmp.w	r3, #8192	; 0x2000
 8004bd0:	d018      	beq.n	8004c04 <HAL_RCCEx_PeriphCLKConfig+0x348>
 8004bd2:	f5b3 5f00 	cmp.w	r3, #8192	; 0x2000
 8004bd6:	d81e      	bhi.n	8004c16 <HAL_RCCEx_PeriphCLKConfig+0x35a>
 8004bd8:	2b00      	cmp	r3, #0
 8004bda:	d003      	beq.n	8004be4 <HAL_RCCEx_PeriphCLKConfig+0x328>
 8004bdc:	f5b3 5f80 	cmp.w	r3, #4096	; 0x1000
 8004be0:	d007      	beq.n	8004bf2 <HAL_RCCEx_PeriphCLKConfig+0x336>
 8004be2:	e018      	b.n	8004c16 <HAL_RCCEx_PeriphCLKConfig+0x35a>
    {
    case RCC_SPI123CLKSOURCE_PLL:      /* PLL is used as clock source for SPI1/2/3 */
      /* Enable SPI Clock output generated form System PLL . */
      __HAL_RCC_PLLCLKOUT_ENABLE(RCC_PLL1_DIVQ);
 8004be4:	4bb0      	ldr	r3, [pc, #704]	; (8004ea8 <HAL_RCCEx_PeriphCLKConfig+0x5ec>)
 8004be6:	6adb      	ldr	r3, [r3, #44]	; 0x2c
 8004be8:	4aaf      	ldr	r2, [pc, #700]	; (8004ea8 <HAL_RCCEx_PeriphCLKConfig+0x5ec>)
 8004bea:	f443 3300 	orr.w	r3, r3, #131072	; 0x20000
 8004bee:	62d3      	str	r3, [r2, #44]	; 0x2c

      /* SPI1/2/3 clock source configuration done later after clock selection check */
      break;
 8004bf0:	e017      	b.n	8004c22 <HAL_RCCEx_PeriphCLKConfig+0x366>

    case RCC_SPI123CLKSOURCE_PLL2: /* PLL2 is used as clock source for SPI1/2/3 */
      ret = RCCEx_PLL2_Config(&(PeriphClkInit->PLL2),DIVIDER_P_UPDATE);
 8004bf2:	687b      	ldr	r3, [r7, #4]
 8004bf4:	3304      	adds	r3, #4
 8004bf6:	2100      	movs	r1, #0
 8004bf8:	4618      	mov	r0, r3
 8004bfa:	f000 fd6b 	bl	80056d4 <RCCEx_PLL2_Config>
 8004bfe:	4603      	mov	r3, r0
 8004c00:	75fb      	strb	r3, [r7, #23]

      /* SPI1/2/3 clock source configuration done later after clock selection check */
      break;
 8004c02:	e00e      	b.n	8004c22 <HAL_RCCEx_PeriphCLKConfig+0x366>

    case RCC_SPI123CLKSOURCE_PLL3:  /* PLL3 is used as clock source for SPI1/2/3 */
      ret = RCCEx_PLL3_Config(&(PeriphClkInit->PLL3),DIVIDER_P_UPDATE);
 8004c04:	687b      	ldr	r3, [r7, #4]
 8004c06:	3324      	adds	r3, #36	; 0x24
 8004c08:	2100      	movs	r1, #0
 8004c0a:	4618      	mov	r0, r3
 8004c0c:	f000 fe14 	bl	8005838 <RCCEx_PLL3_Config>
 8004c10:	4603      	mov	r3, r0
 8004c12:	75fb      	strb	r3, [r7, #23]

      /* SPI1/2/3 clock source configuration done later after clock selection check */
      break;
 8004c14:	e005      	b.n	8004c22 <HAL_RCCEx_PeriphCLKConfig+0x366>
      /* HSI, HSE, or CSI oscillator is used as source of SPI1/2/3 clock */
      /* SPI1/2/3 clock source configuration done later after clock selection check */
      break;

    default:
      ret = HAL_ERROR;
 8004c16:	2301      	movs	r3, #1
 8004c18:	75fb      	strb	r3, [r7, #23]
      break;
 8004c1a:	e002      	b.n	8004c22 <HAL_RCCEx_PeriphCLKConfig+0x366>
      break;
 8004c1c:	bf00      	nop
 8004c1e:	e000      	b.n	8004c22 <HAL_RCCEx_PeriphCLKConfig+0x366>
      break;
 8004c20:	bf00      	nop
    }

    if(ret == HAL_OK)
 8004c22:	7dfb      	ldrb	r3, [r7, #23]
 8004c24:	2b00      	cmp	r3, #0
 8004c26:	d109      	bne.n	8004c3c <HAL_RCCEx_PeriphCLKConfig+0x380>
    {
      /* Set the source of SPI1/2/3 clock*/
      __HAL_RCC_SPI123_CONFIG(PeriphClkInit->Spi123ClockSelection);
 8004c28:	4b9f      	ldr	r3, [pc, #636]	; (8004ea8 <HAL_RCCEx_PeriphCLKConfig+0x5ec>)
 8004c2a:	6d1b      	ldr	r3, [r3, #80]	; 0x50
 8004c2c:	f423 42e0 	bic.w	r2, r3, #28672	; 0x7000
 8004c30:	687b      	ldr	r3, [r7, #4]
 8004c32:	6e1b      	ldr	r3, [r3, #96]	; 0x60
 8004c34:	499c      	ldr	r1, [pc, #624]	; (8004ea8 <HAL_RCCEx_PeriphCLKConfig+0x5ec>)
 8004c36:	4313      	orrs	r3, r2
 8004c38:	650b      	str	r3, [r1, #80]	; 0x50
 8004c3a:	e001      	b.n	8004c40 <HAL_RCCEx_PeriphCLKConfig+0x384>
    }
    else
    {
      /* set overall return value */
      status = ret;
 8004c3c:	7dfb      	ldrb	r3, [r7, #23]
 8004c3e:	75bb      	strb	r3, [r7, #22]
    }
  }

  /*---------------------------- SPI4/5 configuration -------------------------------*/
  if(((PeriphClkInit->PeriphClockSelection) & RCC_PERIPHCLK_SPI45) == RCC_PERIPHCLK_SPI45)
 8004c40:	687b      	ldr	r3, [r7, #4]
 8004c42:	681b      	ldr	r3, [r3, #0]
 8004c44:	f403 5300 	and.w	r3, r3, #8192	; 0x2000
 8004c48:	2b00      	cmp	r3, #0
 8004c4a:	d049      	beq.n	8004ce0 <HAL_RCCEx_PeriphCLKConfig+0x424>
  {
    switch(PeriphClkInit->Spi45ClockSelection)
 8004c4c:	687b      	ldr	r3, [r7, #4]
 8004c4e:	6e5b      	ldr	r3, [r3, #100]	; 0x64
 8004c50:	f5b3 2fa0 	cmp.w	r3, #327680	; 0x50000
 8004c54:	d02e      	beq.n	8004cb4 <HAL_RCCEx_PeriphCLKConfig+0x3f8>
 8004c56:	f5b3 2fa0 	cmp.w	r3, #327680	; 0x50000
 8004c5a:	d828      	bhi.n	8004cae <HAL_RCCEx_PeriphCLKConfig+0x3f2>
 8004c5c:	f5b3 2f80 	cmp.w	r3, #262144	; 0x40000
 8004c60:	d02a      	beq.n	8004cb8 <HAL_RCCEx_PeriphCLKConfig+0x3fc>
 8004c62:	f5b3 2f80 	cmp.w	r3, #262144	; 0x40000
 8004c66:	d822      	bhi.n	8004cae <HAL_RCCEx_PeriphCLKConfig+0x3f2>
 8004c68:	f5b3 3f40 	cmp.w	r3, #196608	; 0x30000
 8004c6c:	d026      	beq.n	8004cbc <HAL_RCCEx_PeriphCLKConfig+0x400>
 8004c6e:	f5b3 3f40 	cmp.w	r3, #196608	; 0x30000
 8004c72:	d81c      	bhi.n	8004cae <HAL_RCCEx_PeriphCLKConfig+0x3f2>
 8004c74:	f5b3 3f00 	cmp.w	r3, #131072	; 0x20000
 8004c78:	d010      	beq.n	8004c9c <HAL_RCCEx_PeriphCLKConfig+0x3e0>
 8004c7a:	f5b3 3f00 	cmp.w	r3, #131072	; 0x20000
 8004c7e:	d816      	bhi.n	8004cae <HAL_RCCEx_PeriphCLKConfig+0x3f2>
 8004c80:	2b00      	cmp	r3, #0
 8004c82:	d01d      	beq.n	8004cc0 <HAL_RCCEx_PeriphCLKConfig+0x404>
 8004c84:	f5b3 3f80 	cmp.w	r3, #65536	; 0x10000
 8004c88:	d111      	bne.n	8004cae <HAL_RCCEx_PeriphCLKConfig+0x3f2>
      /* SPI4/5 clock source configuration done later after clock selection check */
      break;

    case RCC_SPI45CLKSOURCE_PLL2: /* PLL2 is used as clock source for SPI4/5 */

      ret = RCCEx_PLL2_Config(&(PeriphClkInit->PLL2),DIVIDER_Q_UPDATE);
 8004c8a:	687b      	ldr	r3, [r7, #4]
 8004c8c:	3304      	adds	r3, #4
 8004c8e:	2101      	movs	r1, #1
 8004c90:	4618      	mov	r0, r3
 8004c92:	f000 fd1f 	bl	80056d4 <RCCEx_PLL2_Config>
 8004c96:	4603      	mov	r3, r0
 8004c98:	75fb      	strb	r3, [r7, #23]

      /* SPI4/5 clock source configuration done later after clock selection check */
      break;
 8004c9a:	e012      	b.n	8004cc2 <HAL_RCCEx_PeriphCLKConfig+0x406>
    case RCC_SPI45CLKSOURCE_PLL3:  /* PLL3 is used as clock source for SPI4/5 */
      ret = RCCEx_PLL3_Config(&(PeriphClkInit->PLL3),DIVIDER_Q_UPDATE);
 8004c9c:	687b      	ldr	r3, [r7, #4]
 8004c9e:	3324      	adds	r3, #36	; 0x24
 8004ca0:	2101      	movs	r1, #1
 8004ca2:	4618      	mov	r0, r3
 8004ca4:	f000 fdc8 	bl	8005838 <RCCEx_PLL3_Config>
 8004ca8:	4603      	mov	r3, r0
 8004caa:	75fb      	strb	r3, [r7, #23]
      /* SPI4/5 clock source configuration done later after clock selection check */
      break;
 8004cac:	e009      	b.n	8004cc2 <HAL_RCCEx_PeriphCLKConfig+0x406>
      /* HSE,  oscillator is used as source of SPI4/5 clock */
      /* SPI4/5 clock source configuration done later after clock selection check */
      break;

    default:
      ret = HAL_ERROR;
 8004cae:	2301      	movs	r3, #1
 8004cb0:	75fb      	strb	r3, [r7, #23]
      break;
 8004cb2:	e006      	b.n	8004cc2 <HAL_RCCEx_PeriphCLKConfig+0x406>
      break;
 8004cb4:	bf00      	nop
 8004cb6:	e004      	b.n	8004cc2 <HAL_RCCEx_PeriphCLKConfig+0x406>
      break;
 8004cb8:	bf00      	nop
 8004cba:	e002      	b.n	8004cc2 <HAL_RCCEx_PeriphCLKConfig+0x406>
      break;
 8004cbc:	bf00      	nop
 8004cbe:	e000      	b.n	8004cc2 <HAL_RCCEx_PeriphCLKConfig+0x406>
      break;
 8004cc0:	bf00      	nop
    }

    if(ret == HAL_OK)
 8004cc2:	7dfb      	ldrb	r3, [r7, #23]
 8004cc4:	2b00      	cmp	r3, #0
 8004cc6:	d109      	bne.n	8004cdc <HAL_RCCEx_PeriphCLKConfig+0x420>
    {
      /* Set the source of SPI4/5 clock*/
      __HAL_RCC_SPI45_CONFIG(PeriphClkInit->Spi45ClockSelection);
 8004cc8:	4b77      	ldr	r3, [pc, #476]	; (8004ea8 <HAL_RCCEx_PeriphCLKConfig+0x5ec>)
 8004cca:	6d1b      	ldr	r3, [r3, #80]	; 0x50
 8004ccc:	f423 22e0 	bic.w	r2, r3, #458752	; 0x70000
 8004cd0:	687b      	ldr	r3, [r7, #4]
 8004cd2:	6e5b      	ldr	r3, [r3, #100]	; 0x64
 8004cd4:	4974      	ldr	r1, [pc, #464]	; (8004ea8 <HAL_RCCEx_PeriphCLKConfig+0x5ec>)
 8004cd6:	4313      	orrs	r3, r2
 8004cd8:	650b      	str	r3, [r1, #80]	; 0x50
 8004cda:	e001      	b.n	8004ce0 <HAL_RCCEx_PeriphCLKConfig+0x424>
    }
    else
    {
      /* set overall return value */
      status = ret;
 8004cdc:	7dfb      	ldrb	r3, [r7, #23]
 8004cde:	75bb      	strb	r3, [r7, #22]
    }
  }

  /*---------------------------- SPI6 configuration -------------------------------*/
  if(((PeriphClkInit->PeriphClockSelection) & RCC_PERIPHCLK_SPI6) == RCC_PERIPHCLK_SPI6)
 8004ce0:	687b      	ldr	r3, [r7, #4]
 8004ce2:	681b      	ldr	r3, [r3, #0]
 8004ce4:	f403 4380 	and.w	r3, r3, #16384	; 0x4000
 8004ce8:	2b00      	cmp	r3, #0
 8004cea:	d053      	beq.n	8004d94 <HAL_RCCEx_PeriphCLKConfig+0x4d8>
  {
    switch(PeriphClkInit->Spi6ClockSelection)
 8004cec:	687b      	ldr	r3, [r7, #4]
 8004cee:	f8d3 30ac 	ldr.w	r3, [r3, #172]	; 0xac
 8004cf2:	f1b3 4fc0 	cmp.w	r3, #1610612736	; 0x60000000
 8004cf6:	d034      	beq.n	8004d62 <HAL_RCCEx_PeriphCLKConfig+0x4a6>
 8004cf8:	f1b3 4fc0 	cmp.w	r3, #1610612736	; 0x60000000
 8004cfc:	d82e      	bhi.n	8004d5c <HAL_RCCEx_PeriphCLKConfig+0x4a0>
 8004cfe:	f1b3 4fa0 	cmp.w	r3, #1342177280	; 0x50000000
 8004d02:	d030      	beq.n	8004d66 <HAL_RCCEx_PeriphCLKConfig+0x4aa>
 8004d04:	f1b3 4fa0 	cmp.w	r3, #1342177280	; 0x50000000
 8004d08:	d828      	bhi.n	8004d5c <HAL_RCCEx_PeriphCLKConfig+0x4a0>
 8004d0a:	f1b3 4f80 	cmp.w	r3, #1073741824	; 0x40000000
 8004d0e:	d02c      	beq.n	8004d6a <HAL_RCCEx_PeriphCLKConfig+0x4ae>
 8004d10:	f1b3 4f80 	cmp.w	r3, #1073741824	; 0x40000000
 8004d14:	d822      	bhi.n	8004d5c <HAL_RCCEx_PeriphCLKConfig+0x4a0>
 8004d16:	f1b3 5f40 	cmp.w	r3, #805306368	; 0x30000000
 8004d1a:	d028      	beq.n	8004d6e <HAL_RCCEx_PeriphCLKConfig+0x4b2>
 8004d1c:	f1b3 5f40 	cmp.w	r3, #805306368	; 0x30000000
 8004d20:	d81c      	bhi.n	8004d5c <HAL_RCCEx_PeriphCLKConfig+0x4a0>
 8004d22:	f1b3 5f00 	cmp.w	r3, #536870912	; 0x20000000
 8004d26:	d010      	beq.n	8004d4a <HAL_RCCEx_PeriphCLKConfig+0x48e>
 8004d28:	f1b3 5f00 	cmp.w	r3, #536870912	; 0x20000000
 8004d2c:	d816      	bhi.n	8004d5c <HAL_RCCEx_PeriphCLKConfig+0x4a0>
 8004d2e:	2b00      	cmp	r3, #0
 8004d30:	d01f      	beq.n	8004d72 <HAL_RCCEx_PeriphCLKConfig+0x4b6>
 8004d32:	f1b3 5f80 	cmp.w	r3, #268435456	; 0x10000000
 8004d36:	d111      	bne.n	8004d5c <HAL_RCCEx_PeriphCLKConfig+0x4a0>
      /* SPI6 clock source configuration done later after clock selection check */
      break;

    case RCC_SPI6CLKSOURCE_PLL2: /* PLL2 is used as clock source for SPI6*/

      ret = RCCEx_PLL2_Config(&(PeriphClkInit->PLL2),DIVIDER_Q_UPDATE);
 8004d38:	687b      	ldr	r3, [r7, #4]
 8004d3a:	3304      	adds	r3, #4
 8004d3c:	2101      	movs	r1, #1
 8004d3e:	4618      	mov	r0, r3
 8004d40:	f000 fcc8 	bl	80056d4 <RCCEx_PLL2_Config>
 8004d44:	4603      	mov	r3, r0
 8004d46:	75fb      	strb	r3, [r7, #23]

      /* SPI6 clock source configuration done later after clock selection check */
      break;
 8004d48:	e014      	b.n	8004d74 <HAL_RCCEx_PeriphCLKConfig+0x4b8>
    case RCC_SPI6CLKSOURCE_PLL3:  /* PLL3 is used as clock source for SPI6*/
      ret = RCCEx_PLL3_Config(&(PeriphClkInit->PLL3),DIVIDER_Q_UPDATE);
 8004d4a:	687b      	ldr	r3, [r7, #4]
 8004d4c:	3324      	adds	r3, #36	; 0x24
 8004d4e:	2101      	movs	r1, #1
 8004d50:	4618      	mov	r0, r3
 8004d52:	f000 fd71 	bl	8005838 <RCCEx_PLL3_Config>
 8004d56:	4603      	mov	r3, r0
 8004d58:	75fb      	strb	r3, [r7, #23]
      /* SPI6 clock source configuration done later after clock selection check */
      break;
 8004d5a:	e00b      	b.n	8004d74 <HAL_RCCEx_PeriphCLKConfig+0x4b8>
      /* SPI6 clock source configuration done later after clock selection check */
      break;
#endif

    default:
      ret = HAL_ERROR;
 8004d5c:	2301      	movs	r3, #1
 8004d5e:	75fb      	strb	r3, [r7, #23]
      break;
 8004d60:	e008      	b.n	8004d74 <HAL_RCCEx_PeriphCLKConfig+0x4b8>
      break;
 8004d62:	bf00      	nop
 8004d64:	e006      	b.n	8004d74 <HAL_RCCEx_PeriphCLKConfig+0x4b8>
      break;
 8004d66:	bf00      	nop
 8004d68:	e004      	b.n	8004d74 <HAL_RCCEx_PeriphCLKConfig+0x4b8>
      break;
 8004d6a:	bf00      	nop
 8004d6c:	e002      	b.n	8004d74 <HAL_RCCEx_PeriphCLKConfig+0x4b8>
      break;
 8004d6e:	bf00      	nop
 8004d70:	e000      	b.n	8004d74 <HAL_RCCEx_PeriphCLKConfig+0x4b8>
      break;
 8004d72:	bf00      	nop
    }

    if(ret == HAL_OK)
 8004d74:	7dfb      	ldrb	r3, [r7, #23]
 8004d76:	2b00      	cmp	r3, #0
 8004d78:	d10a      	bne.n	8004d90 <HAL_RCCEx_PeriphCLKConfig+0x4d4>
    {
      /* Set the source of SPI6 clock*/
      __HAL_RCC_SPI6_CONFIG(PeriphClkInit->Spi6ClockSelection);
 8004d7a:	4b4b      	ldr	r3, [pc, #300]	; (8004ea8 <HAL_RCCEx_PeriphCLKConfig+0x5ec>)
 8004d7c:	6d9b      	ldr	r3, [r3, #88]	; 0x58
 8004d7e:	f023 42e0 	bic.w	r2, r3, #1879048192	; 0x70000000
 8004d82:	687b      	ldr	r3, [r7, #4]
 8004d84:	f8d3 30ac 	ldr.w	r3, [r3, #172]	; 0xac
 8004d88:	4947      	ldr	r1, [pc, #284]	; (8004ea8 <HAL_RCCEx_PeriphCLKConfig+0x5ec>)
 8004d8a:	4313      	orrs	r3, r2
 8004d8c:	658b      	str	r3, [r1, #88]	; 0x58
 8004d8e:	e001      	b.n	8004d94 <HAL_RCCEx_PeriphCLKConfig+0x4d8>
    }
    else
    {
      /* set overall return value */
      status = ret;
 8004d90:	7dfb      	ldrb	r3, [r7, #23]
 8004d92:	75bb      	strb	r3, [r7, #22]
  }
#endif /*DSI*/

#if defined(FDCAN1) || defined(FDCAN2)
  /*---------------------------- FDCAN configuration -------------------------------*/
  if(((PeriphClkInit->PeriphClockSelection) & RCC_PERIPHCLK_FDCAN) == RCC_PERIPHCLK_FDCAN)
 8004d94:	687b      	ldr	r3, [r7, #4]
 8004d96:	681b      	ldr	r3, [r3, #0]
 8004d98:	f403 4300 	and.w	r3, r3, #32768	; 0x8000
 8004d9c:	2b00      	cmp	r3, #0
 8004d9e:	d02f      	beq.n	8004e00 <HAL_RCCEx_PeriphCLKConfig+0x544>
  {
    switch(PeriphClkInit->FdcanClockSelection)
 8004da0:	687b      	ldr	r3, [r7, #4]
 8004da2:	6f5b      	ldr	r3, [r3, #116]	; 0x74
 8004da4:	f1b3 5f00 	cmp.w	r3, #536870912	; 0x20000000
 8004da8:	d00e      	beq.n	8004dc8 <HAL_RCCEx_PeriphCLKConfig+0x50c>
 8004daa:	f1b3 5f00 	cmp.w	r3, #536870912	; 0x20000000
 8004dae:	d814      	bhi.n	8004dda <HAL_RCCEx_PeriphCLKConfig+0x51e>
 8004db0:	2b00      	cmp	r3, #0
 8004db2:	d015      	beq.n	8004de0 <HAL_RCCEx_PeriphCLKConfig+0x524>
 8004db4:	f1b3 5f80 	cmp.w	r3, #268435456	; 0x10000000
 8004db8:	d10f      	bne.n	8004dda <HAL_RCCEx_PeriphCLKConfig+0x51e>
    {
    case RCC_FDCANCLKSOURCE_PLL:      /* PLL is used as clock source for FDCAN*/
      /* Enable FDCAN Clock output generated form System PLL . */
      __HAL_RCC_PLLCLKOUT_ENABLE(RCC_PLL1_DIVQ);
 8004dba:	4b3b      	ldr	r3, [pc, #236]	; (8004ea8 <HAL_RCCEx_PeriphCLKConfig+0x5ec>)
 8004dbc:	6adb      	ldr	r3, [r3, #44]	; 0x2c
 8004dbe:	4a3a      	ldr	r2, [pc, #232]	; (8004ea8 <HAL_RCCEx_PeriphCLKConfig+0x5ec>)
 8004dc0:	f443 3300 	orr.w	r3, r3, #131072	; 0x20000
 8004dc4:	62d3      	str	r3, [r2, #44]	; 0x2c

      /* FDCAN clock source configuration done later after clock selection check */
      break;
 8004dc6:	e00c      	b.n	8004de2 <HAL_RCCEx_PeriphCLKConfig+0x526>

    case RCC_FDCANCLKSOURCE_PLL2: /* PLL2 is used as clock source for FDCAN*/

      ret = RCCEx_PLL2_Config(&(PeriphClkInit->PLL2),DIVIDER_Q_UPDATE);
 8004dc8:	687b      	ldr	r3, [r7, #4]
 8004dca:	3304      	adds	r3, #4
 8004dcc:	2101      	movs	r1, #1
 8004dce:	4618      	mov	r0, r3
 8004dd0:	f000 fc80 	bl	80056d4 <RCCEx_PLL2_Config>
 8004dd4:	4603      	mov	r3, r0
 8004dd6:	75fb      	strb	r3, [r7, #23]

      /* FDCAN clock source configuration done later after clock selection check */
      break;
 8004dd8:	e003      	b.n	8004de2 <HAL_RCCEx_PeriphCLKConfig+0x526>
      /* HSE is used as clock source for FDCAN*/
      /* FDCAN clock source configuration done later after clock selection check */
      break;

    default:
      ret = HAL_ERROR;
 8004dda:	2301      	movs	r3, #1
 8004ddc:	75fb      	strb	r3, [r7, #23]
      break;
 8004dde:	e000      	b.n	8004de2 <HAL_RCCEx_PeriphCLKConfig+0x526>
      break;
 8004de0:	bf00      	nop
    }

    if(ret == HAL_OK)
 8004de2:	7dfb      	ldrb	r3, [r7, #23]
 8004de4:	2b00      	cmp	r3, #0
 8004de6:	d109      	bne.n	8004dfc <HAL_RCCEx_PeriphCLKConfig+0x540>
    {
      /* Set the source of FDCAN clock*/
      __HAL_RCC_FDCAN_CONFIG(PeriphClkInit->FdcanClockSelection);
 8004de8:	4b2f      	ldr	r3, [pc, #188]	; (8004ea8 <HAL_RCCEx_PeriphCLKConfig+0x5ec>)
 8004dea:	6d1b      	ldr	r3, [r3, #80]	; 0x50
 8004dec:	f023 5240 	bic.w	r2, r3, #805306368	; 0x30000000
 8004df0:	687b      	ldr	r3, [r7, #4]
 8004df2:	6f5b      	ldr	r3, [r3, #116]	; 0x74
 8004df4:	492c      	ldr	r1, [pc, #176]	; (8004ea8 <HAL_RCCEx_PeriphCLKConfig+0x5ec>)
 8004df6:	4313      	orrs	r3, r2
 8004df8:	650b      	str	r3, [r1, #80]	; 0x50
 8004dfa:	e001      	b.n	8004e00 <HAL_RCCEx_PeriphCLKConfig+0x544>
    }
    else
    {
      /* set overall return value */
      status = ret;
 8004dfc:	7dfb      	ldrb	r3, [r7, #23]
 8004dfe:	75bb      	strb	r3, [r7, #22]
    }
  }
#endif /*FDCAN1 || FDCAN2*/

  /*---------------------------- FMC configuration -------------------------------*/
  if(((PeriphClkInit->PeriphClockSelection) & RCC_PERIPHCLK_FMC) == RCC_PERIPHCLK_FMC)
 8004e00:	687b      	ldr	r3, [r7, #4]
 8004e02:	681b      	ldr	r3, [r3, #0]
 8004e04:	f003 7380 	and.w	r3, r3, #16777216	; 0x1000000
 8004e08:	2b00      	cmp	r3, #0
 8004e0a:	d032      	beq.n	8004e72 <HAL_RCCEx_PeriphCLKConfig+0x5b6>
  {
    switch(PeriphClkInit->FmcClockSelection)
 8004e0c:	687b      	ldr	r3, [r7, #4]
 8004e0e:	6c5b      	ldr	r3, [r3, #68]	; 0x44
 8004e10:	2b03      	cmp	r3, #3
 8004e12:	d81b      	bhi.n	8004e4c <HAL_RCCEx_PeriphCLKConfig+0x590>
 8004e14:	a201      	add	r2, pc, #4	; (adr r2, 8004e1c <HAL_RCCEx_PeriphCLKConfig+0x560>)
 8004e16:	f852 f023 	ldr.w	pc, [r2, r3, lsl #2]
 8004e1a:	bf00      	nop
 8004e1c:	08004e53 	.word	0x08004e53
 8004e20:	08004e2d 	.word	0x08004e2d
 8004e24:	08004e3b 	.word	0x08004e3b
 8004e28:	08004e53 	.word	0x08004e53
    {
    case RCC_FMCCLKSOURCE_PLL:      /* PLL is used as clock source for FMC*/
      /* Enable FMC Clock output generated form System PLL . */
      __HAL_RCC_PLLCLKOUT_ENABLE(RCC_PLL1_DIVQ);
 8004e2c:	4b1e      	ldr	r3, [pc, #120]	; (8004ea8 <HAL_RCCEx_PeriphCLKConfig+0x5ec>)
 8004e2e:	6adb      	ldr	r3, [r3, #44]	; 0x2c
 8004e30:	4a1d      	ldr	r2, [pc, #116]	; (8004ea8 <HAL_RCCEx_PeriphCLKConfig+0x5ec>)
 8004e32:	f443 3300 	orr.w	r3, r3, #131072	; 0x20000
 8004e36:	62d3      	str	r3, [r2, #44]	; 0x2c

      /* FMC clock source configuration done later after clock selection check */
      break;
 8004e38:	e00c      	b.n	8004e54 <HAL_RCCEx_PeriphCLKConfig+0x598>

    case RCC_FMCCLKSOURCE_PLL2: /* PLL2 is used as clock source for FMC*/

      ret = RCCEx_PLL2_Config(&(PeriphClkInit->PLL2),DIVIDER_R_UPDATE);
 8004e3a:	687b      	ldr	r3, [r7, #4]
 8004e3c:	3304      	adds	r3, #4
 8004e3e:	2102      	movs	r1, #2
 8004e40:	4618      	mov	r0, r3
 8004e42:	f000 fc47 	bl	80056d4 <RCCEx_PLL2_Config>
 8004e46:	4603      	mov	r3, r0
 8004e48:	75fb      	strb	r3, [r7, #23]

      /* FMC clock source configuration done later after clock selection check */
      break;
 8004e4a:	e003      	b.n	8004e54 <HAL_RCCEx_PeriphCLKConfig+0x598>
    case RCC_FMCCLKSOURCE_HCLK:
      /* D1/CD HCLK  clock selected as FMC kernel peripheral clock */
      break;

    default:
      ret = HAL_ERROR;
 8004e4c:	2301      	movs	r3, #1
 8004e4e:	75fb      	strb	r3, [r7, #23]
      break;
 8004e50:	e000      	b.n	8004e54 <HAL_RCCEx_PeriphCLKConfig+0x598>
      break;
 8004e52:	bf00      	nop
    }

    if(ret == HAL_OK)
 8004e54:	7dfb      	ldrb	r3, [r7, #23]
 8004e56:	2b00      	cmp	r3, #0
 8004e58:	d109      	bne.n	8004e6e <HAL_RCCEx_PeriphCLKConfig+0x5b2>
    {
      /* Set the source of FMC clock*/
      __HAL_RCC_FMC_CONFIG(PeriphClkInit->FmcClockSelection);
 8004e5a:	4b13      	ldr	r3, [pc, #76]	; (8004ea8 <HAL_RCCEx_PeriphCLKConfig+0x5ec>)
 8004e5c:	6cdb      	ldr	r3, [r3, #76]	; 0x4c
 8004e5e:	f023 0203 	bic.w	r2, r3, #3
 8004e62:	687b      	ldr	r3, [r7, #4]
 8004e64:	6c5b      	ldr	r3, [r3, #68]	; 0x44
 8004e66:	4910      	ldr	r1, [pc, #64]	; (8004ea8 <HAL_RCCEx_PeriphCLKConfig+0x5ec>)
 8004e68:	4313      	orrs	r3, r2
 8004e6a:	64cb      	str	r3, [r1, #76]	; 0x4c
 8004e6c:	e001      	b.n	8004e72 <HAL_RCCEx_PeriphCLKConfig+0x5b6>
    }
    else
    {
      /* set overall return value */
      status = ret;
 8004e6e:	7dfb      	ldrb	r3, [r7, #23]
 8004e70:	75bb      	strb	r3, [r7, #22]
    }
  }

  /*---------------------------- RTC configuration -------------------------------*/
  if(((PeriphClkInit->PeriphClockSelection) & RCC_PERIPHCLK_RTC) == RCC_PERIPHCLK_RTC)
 8004e72:	687b      	ldr	r3, [r7, #4]
 8004e74:	681b      	ldr	r3, [r3, #0]
 8004e76:	f403 0380 	and.w	r3, r3, #4194304	; 0x400000
 8004e7a:	2b00      	cmp	r3, #0
 8004e7c:	f000 808a 	beq.w	8004f94 <HAL_RCCEx_PeriphCLKConfig+0x6d8>
  {
    /* check for RTC Parameters used to output RTCCLK */
    assert_param(IS_RCC_RTCCLKSOURCE(PeriphClkInit->RTCClockSelection));

    /* Enable write access to Backup domain */
    SET_BIT(PWR->CR1, PWR_CR1_DBP);
 8004e80:	4b0a      	ldr	r3, [pc, #40]	; (8004eac <HAL_RCCEx_PeriphCLKConfig+0x5f0>)
 8004e82:	681b      	ldr	r3, [r3, #0]
 8004e84:	4a09      	ldr	r2, [pc, #36]	; (8004eac <HAL_RCCEx_PeriphCLKConfig+0x5f0>)
 8004e86:	f443 7380 	orr.w	r3, r3, #256	; 0x100
 8004e8a:	6013      	str	r3, [r2, #0]

    /* Wait for Backup domain Write protection disable */
    tickstart = HAL_GetTick();
 8004e8c:	f7fc fd24 	bl	80018d8 <HAL_GetTick>
 8004e90:	6138      	str	r0, [r7, #16]

    while((PWR->CR1 & PWR_CR1_DBP) == 0U)
 8004e92:	e00d      	b.n	8004eb0 <HAL_RCCEx_PeriphCLKConfig+0x5f4>
    {
      if((HAL_GetTick() - tickstart) > RCC_DBP_TIMEOUT_VALUE)
 8004e94:	f7fc fd20 	bl	80018d8 <HAL_GetTick>
 8004e98:	4602      	mov	r2, r0
 8004e9a:	693b      	ldr	r3, [r7, #16]
 8004e9c:	1ad3      	subs	r3, r2, r3
 8004e9e:	2b64      	cmp	r3, #100	; 0x64
 8004ea0:	d906      	bls.n	8004eb0 <HAL_RCCEx_PeriphCLKConfig+0x5f4>
      {
        ret = HAL_TIMEOUT;
 8004ea2:	2303      	movs	r3, #3
 8004ea4:	75fb      	strb	r3, [r7, #23]
        break;
 8004ea6:	e009      	b.n	8004ebc <HAL_RCCEx_PeriphCLKConfig+0x600>
 8004ea8:	58024400 	.word	0x58024400
 8004eac:	58024800 	.word	0x58024800
    while((PWR->CR1 & PWR_CR1_DBP) == 0U)
 8004eb0:	4bba      	ldr	r3, [pc, #744]	; (800519c <HAL_RCCEx_PeriphCLKConfig+0x8e0>)
 8004eb2:	681b      	ldr	r3, [r3, #0]
 8004eb4:	f403 7380 	and.w	r3, r3, #256	; 0x100
 8004eb8:	2b00      	cmp	r3, #0
 8004eba:	d0eb      	beq.n	8004e94 <HAL_RCCEx_PeriphCLKConfig+0x5d8>
      }
    }

    if(ret == HAL_OK)
 8004ebc:	7dfb      	ldrb	r3, [r7, #23]
 8004ebe:	2b00      	cmp	r3, #0
 8004ec0:	d166      	bne.n	8004f90 <HAL_RCCEx_PeriphCLKConfig+0x6d4>
    {
      /* Reset the Backup domain only if the RTC Clock source selection is modified */
      if((RCC->BDCR & RCC_BDCR_RTCSEL) != (PeriphClkInit->RTCClockSelection & RCC_BDCR_RTCSEL))
 8004ec2:	4bb7      	ldr	r3, [pc, #732]	; (80051a0 <HAL_RCCEx_PeriphCLKConfig+0x8e4>)
 8004ec4:	6f1a      	ldr	r2, [r3, #112]	; 0x70
 8004ec6:	687b      	ldr	r3, [r7, #4]
 8004ec8:	f8d3 30b0 	ldr.w	r3, [r3, #176]	; 0xb0
 8004ecc:	4053      	eors	r3, r2
 8004ece:	f403 7340 	and.w	r3, r3, #768	; 0x300
 8004ed2:	2b00      	cmp	r3, #0
 8004ed4:	d013      	beq.n	8004efe <HAL_RCCEx_PeriphCLKConfig+0x642>
      {
        /* Store the content of BDCR register before the reset of Backup Domain */
        tmpreg = (RCC->BDCR & ~(RCC_BDCR_RTCSEL));
 8004ed6:	4bb2      	ldr	r3, [pc, #712]	; (80051a0 <HAL_RCCEx_PeriphCLKConfig+0x8e4>)
 8004ed8:	6f1b      	ldr	r3, [r3, #112]	; 0x70
 8004eda:	f423 7340 	bic.w	r3, r3, #768	; 0x300
 8004ede:	60fb      	str	r3, [r7, #12]
        /* RTC Clock selection can be changed only if the Backup Domain is reset */
        __HAL_RCC_BACKUPRESET_FORCE();
 8004ee0:	4baf      	ldr	r3, [pc, #700]	; (80051a0 <HAL_RCCEx_PeriphCLKConfig+0x8e4>)
 8004ee2:	6f1b      	ldr	r3, [r3, #112]	; 0x70
 8004ee4:	4aae      	ldr	r2, [pc, #696]	; (80051a0 <HAL_RCCEx_PeriphCLKConfig+0x8e4>)
 8004ee6:	f443 3380 	orr.w	r3, r3, #65536	; 0x10000
 8004eea:	6713      	str	r3, [r2, #112]	; 0x70
        __HAL_RCC_BACKUPRESET_RELEASE();
 8004eec:	4bac      	ldr	r3, [pc, #688]	; (80051a0 <HAL_RCCEx_PeriphCLKConfig+0x8e4>)
 8004eee:	6f1b      	ldr	r3, [r3, #112]	; 0x70
 8004ef0:	4aab      	ldr	r2, [pc, #684]	; (80051a0 <HAL_RCCEx_PeriphCLKConfig+0x8e4>)
 8004ef2:	f423 3380 	bic.w	r3, r3, #65536	; 0x10000
 8004ef6:	6713      	str	r3, [r2, #112]	; 0x70
        /* Restore the Content of BDCR register */
        RCC->BDCR = tmpreg;
 8004ef8:	4aa9      	ldr	r2, [pc, #676]	; (80051a0 <HAL_RCCEx_PeriphCLKConfig+0x8e4>)
 8004efa:	68fb      	ldr	r3, [r7, #12]
 8004efc:	6713      	str	r3, [r2, #112]	; 0x70
      }

      /* If LSE is selected as RTC clock source (and enabled prior to Backup Domain reset), wait for LSE reactivation */
      if(PeriphClkInit->RTCClockSelection == RCC_RTCCLKSOURCE_LSE)
 8004efe:	687b      	ldr	r3, [r7, #4]
 8004f00:	f8d3 30b0 	ldr.w	r3, [r3, #176]	; 0xb0
 8004f04:	f5b3 7f80 	cmp.w	r3, #256	; 0x100
 8004f08:	d115      	bne.n	8004f36 <HAL_RCCEx_PeriphCLKConfig+0x67a>
      {
        /* Get Start Tick*/
        tickstart = HAL_GetTick();
 8004f0a:	f7fc fce5 	bl	80018d8 <HAL_GetTick>
 8004f0e:	6138      	str	r0, [r7, #16]

        /* Wait till LSE is ready */
        while(__HAL_RCC_GET_FLAG(RCC_FLAG_LSERDY) == 0U)
 8004f10:	e00b      	b.n	8004f2a <HAL_RCCEx_PeriphCLKConfig+0x66e>
        {
          if((HAL_GetTick() - tickstart) > RCC_LSE_TIMEOUT_VALUE)
 8004f12:	f7fc fce1 	bl	80018d8 <HAL_GetTick>
 8004f16:	4602      	mov	r2, r0
 8004f18:	693b      	ldr	r3, [r7, #16]
 8004f1a:	1ad3      	subs	r3, r2, r3
 8004f1c:	f241 3288 	movw	r2, #5000	; 0x1388
 8004f20:	4293      	cmp	r3, r2
 8004f22:	d902      	bls.n	8004f2a <HAL_RCCEx_PeriphCLKConfig+0x66e>
          {
            ret = HAL_TIMEOUT;
 8004f24:	2303      	movs	r3, #3
 8004f26:	75fb      	strb	r3, [r7, #23]
            break;
 8004f28:	e005      	b.n	8004f36 <HAL_RCCEx_PeriphCLKConfig+0x67a>
        while(__HAL_RCC_GET_FLAG(RCC_FLAG_LSERDY) == 0U)
 8004f2a:	4b9d      	ldr	r3, [pc, #628]	; (80051a0 <HAL_RCCEx_PeriphCLKConfig+0x8e4>)
 8004f2c:	6f1b      	ldr	r3, [r3, #112]	; 0x70
 8004f2e:	f003 0302 	and.w	r3, r3, #2
 8004f32:	2b00      	cmp	r3, #0
 8004f34:	d0ed      	beq.n	8004f12 <HAL_RCCEx_PeriphCLKConfig+0x656>
          }
        }
      }

      if(ret == HAL_OK)
 8004f36:	7dfb      	ldrb	r3, [r7, #23]
 8004f38:	2b00      	cmp	r3, #0
 8004f3a:	d126      	bne.n	8004f8a <HAL_RCCEx_PeriphCLKConfig+0x6ce>
      {
        __HAL_RCC_RTC_CONFIG(PeriphClkInit->RTCClockSelection);
 8004f3c:	687b      	ldr	r3, [r7, #4]
 8004f3e:	f8d3 30b0 	ldr.w	r3, [r3, #176]	; 0xb0
 8004f42:	f403 7340 	and.w	r3, r3, #768	; 0x300
 8004f46:	f5b3 7f40 	cmp.w	r3, #768	; 0x300
 8004f4a:	d10d      	bne.n	8004f68 <HAL_RCCEx_PeriphCLKConfig+0x6ac>
 8004f4c:	4b94      	ldr	r3, [pc, #592]	; (80051a0 <HAL_RCCEx_PeriphCLKConfig+0x8e4>)
 8004f4e:	691b      	ldr	r3, [r3, #16]
 8004f50:	f423 527c 	bic.w	r2, r3, #16128	; 0x3f00
 8004f54:	687b      	ldr	r3, [r7, #4]
 8004f56:	f8d3 30b0 	ldr.w	r3, [r3, #176]	; 0xb0
 8004f5a:	0919      	lsrs	r1, r3, #4
 8004f5c:	4b91      	ldr	r3, [pc, #580]	; (80051a4 <HAL_RCCEx_PeriphCLKConfig+0x8e8>)
 8004f5e:	400b      	ands	r3, r1
 8004f60:	498f      	ldr	r1, [pc, #572]	; (80051a0 <HAL_RCCEx_PeriphCLKConfig+0x8e4>)
 8004f62:	4313      	orrs	r3, r2
 8004f64:	610b      	str	r3, [r1, #16]
 8004f66:	e005      	b.n	8004f74 <HAL_RCCEx_PeriphCLKConfig+0x6b8>
 8004f68:	4b8d      	ldr	r3, [pc, #564]	; (80051a0 <HAL_RCCEx_PeriphCLKConfig+0x8e4>)
 8004f6a:	691b      	ldr	r3, [r3, #16]
 8004f6c:	4a8c      	ldr	r2, [pc, #560]	; (80051a0 <HAL_RCCEx_PeriphCLKConfig+0x8e4>)
 8004f6e:	f423 537c 	bic.w	r3, r3, #16128	; 0x3f00
 8004f72:	6113      	str	r3, [r2, #16]
 8004f74:	4b8a      	ldr	r3, [pc, #552]	; (80051a0 <HAL_RCCEx_PeriphCLKConfig+0x8e4>)
 8004f76:	6f1a      	ldr	r2, [r3, #112]	; 0x70
 8004f78:	687b      	ldr	r3, [r7, #4]
 8004f7a:	f8d3 30b0 	ldr.w	r3, [r3, #176]	; 0xb0
 8004f7e:	f3c3 030b 	ubfx	r3, r3, #0, #12
 8004f82:	4987      	ldr	r1, [pc, #540]	; (80051a0 <HAL_RCCEx_PeriphCLKConfig+0x8e4>)
 8004f84:	4313      	orrs	r3, r2
 8004f86:	670b      	str	r3, [r1, #112]	; 0x70
 8004f88:	e004      	b.n	8004f94 <HAL_RCCEx_PeriphCLKConfig+0x6d8>
      }
      else
      {
        /* set overall return value */
        status = ret;
 8004f8a:	7dfb      	ldrb	r3, [r7, #23]
 8004f8c:	75bb      	strb	r3, [r7, #22]
 8004f8e:	e001      	b.n	8004f94 <HAL_RCCEx_PeriphCLKConfig+0x6d8>
      }
    }
    else
    {
      /* set overall return value */
      status = ret;
 8004f90:	7dfb      	ldrb	r3, [r7, #23]
 8004f92:	75bb      	strb	r3, [r7, #22]
    }
  }


  /*-------------------------- USART1/6 configuration --------------------------*/
  if(((PeriphClkInit->PeriphClockSelection) & RCC_PERIPHCLK_USART16) == RCC_PERIPHCLK_USART16)
 8004f94:	687b      	ldr	r3, [r7, #4]
 8004f96:	681b      	ldr	r3, [r3, #0]
 8004f98:	f003 0301 	and.w	r3, r3, #1
 8004f9c:	2b00      	cmp	r3, #0
 8004f9e:	d07f      	beq.n	80050a0 <HAL_RCCEx_PeriphCLKConfig+0x7e4>
  {
    switch(PeriphClkInit->Usart16ClockSelection)
 8004fa0:	687b      	ldr	r3, [r7, #4]
 8004fa2:	f8d3 3080 	ldr.w	r3, [r3, #128]	; 0x80
 8004fa6:	2b28      	cmp	r3, #40	; 0x28
 8004fa8:	d866      	bhi.n	8005078 <HAL_RCCEx_PeriphCLKConfig+0x7bc>
 8004faa:	a201      	add	r2, pc, #4	; (adr r2, 8004fb0 <HAL_RCCEx_PeriphCLKConfig+0x6f4>)
 8004fac:	f852 f023 	ldr.w	pc, [r2, r3, lsl #2]
 8004fb0:	0800507f 	.word	0x0800507f
 8004fb4:	08005079 	.word	0x08005079
 8004fb8:	08005079 	.word	0x08005079
 8004fbc:	08005079 	.word	0x08005079
 8004fc0:	08005079 	.word	0x08005079
 8004fc4:	08005079 	.word	0x08005079
 8004fc8:	08005079 	.word	0x08005079
 8004fcc:	08005079 	.word	0x08005079
 8004fd0:	08005055 	.word	0x08005055
 8004fd4:	08005079 	.word	0x08005079
 8004fd8:	08005079 	.word	0x08005079
 8004fdc:	08005079 	.word	0x08005079
 8004fe0:	08005079 	.word	0x08005079
 8004fe4:	08005079 	.word	0x08005079
 8004fe8:	08005079 	.word	0x08005079
 8004fec:	08005079 	.word	0x08005079
 8004ff0:	08005067 	.word	0x08005067
 8004ff4:	08005079 	.word	0x08005079
 8004ff8:	08005079 	.word	0x08005079
 8004ffc:	08005079 	.word	0x08005079
 8005000:	08005079 	.word	0x08005079
 8005004:	08005079 	.word	0x08005079
 8005008:	08005079 	.word	0x08005079
 800500c:	08005079 	.word	0x08005079
 8005010:	0800507f 	.word	0x0800507f
 8005014:	08005079 	.word	0x08005079
 8005018:	08005079 	.word	0x08005079
 800501c:	08005079 	.word	0x08005079
 8005020:	08005079 	.word	0x08005079
 8005024:	08005079 	.word	0x08005079
 8005028:	08005079 	.word	0x08005079
 800502c:	08005079 	.word	0x08005079
 8005030:	0800507f 	.word	0x0800507f
 8005034:	08005079 	.word	0x08005079
 8005038:	08005079 	.word	0x08005079
 800503c:	08005079 	.word	0x08005079
 8005040:	08005079 	.word	0x08005079
 8005044:	08005079 	.word	0x08005079
 8005048:	08005079 	.word	0x08005079
 800504c:	08005079 	.word	0x08005079
 8005050:	0800507f 	.word	0x0800507f
    case RCC_USART16CLKSOURCE_PCLK2: /* CD/D2 PCLK2 as clock source for USART1/6 */
      /* USART1/6 clock source configuration done later after clock selection check */
      break;

    case RCC_USART16CLKSOURCE_PLL2: /* PLL2 is used as clock source for USART1/6 */
      ret = RCCEx_PLL2_Config(&(PeriphClkInit->PLL2),DIVIDER_Q_UPDATE);
 8005054:	687b      	ldr	r3, [r7, #4]
 8005056:	3304      	adds	r3, #4
 8005058:	2101      	movs	r1, #1
 800505a:	4618      	mov	r0, r3
 800505c:	f000 fb3a 	bl	80056d4 <RCCEx_PLL2_Config>
 8005060:	4603      	mov	r3, r0
 8005062:	75fb      	strb	r3, [r7, #23]
      /* USART1/6 clock source configuration done later after clock selection check */
      break;
 8005064:	e00c      	b.n	8005080 <HAL_RCCEx_PeriphCLKConfig+0x7c4>

    case RCC_USART16CLKSOURCE_PLL3: /* PLL3 is used as clock source for USART1/6 */
      ret = RCCEx_PLL3_Config(&(PeriphClkInit->PLL3),DIVIDER_Q_UPDATE);
 8005066:	687b      	ldr	r3, [r7, #4]
 8005068:	3324      	adds	r3, #36	; 0x24
 800506a:	2101      	movs	r1, #1
 800506c:	4618      	mov	r0, r3
 800506e:	f000 fbe3 	bl	8005838 <RCCEx_PLL3_Config>
 8005072:	4603      	mov	r3, r0
 8005074:	75fb      	strb	r3, [r7, #23]
      /* USART1/6 clock source configuration done later after clock selection check */
      break;
 8005076:	e003      	b.n	8005080 <HAL_RCCEx_PeriphCLKConfig+0x7c4>
      /* LSE,  oscillator is used as source of USART1/6 clock */
      /* USART1/6 clock source configuration done later after clock selection check */
      break;

    default:
      ret = HAL_ERROR;
 8005078:	2301      	movs	r3, #1
 800507a:	75fb      	strb	r3, [r7, #23]
      break;
 800507c:	e000      	b.n	8005080 <HAL_RCCEx_PeriphCLKConfig+0x7c4>
      break;
 800507e:	bf00      	nop
    }

    if(ret == HAL_OK)
 8005080:	7dfb      	ldrb	r3, [r7, #23]
 8005082:	2b00      	cmp	r3, #0
 8005084:	d10a      	bne.n	800509c <HAL_RCCEx_PeriphCLKConfig+0x7e0>
    {
      /* Set the source of USART1/6 clock */
      __HAL_RCC_USART16_CONFIG(PeriphClkInit->Usart16ClockSelection);
 8005086:	4b46      	ldr	r3, [pc, #280]	; (80051a0 <HAL_RCCEx_PeriphCLKConfig+0x8e4>)
 8005088:	6d5b      	ldr	r3, [r3, #84]	; 0x54
 800508a:	f023 0238 	bic.w	r2, r3, #56	; 0x38
 800508e:	687b      	ldr	r3, [r7, #4]
 8005090:	f8d3 3080 	ldr.w	r3, [r3, #128]	; 0x80
 8005094:	4942      	ldr	r1, [pc, #264]	; (80051a0 <HAL_RCCEx_PeriphCLKConfig+0x8e4>)
 8005096:	4313      	orrs	r3, r2
 8005098:	654b      	str	r3, [r1, #84]	; 0x54
 800509a:	e001      	b.n	80050a0 <HAL_RCCEx_PeriphCLKConfig+0x7e4>
    }
    else
    {
      /* set overall return value */
      status = ret;
 800509c:	7dfb      	ldrb	r3, [r7, #23]
 800509e:	75bb      	strb	r3, [r7, #22]
    }
  }

  /*-------------------------- USART2/3/4/5/7/8 Configuration --------------------------*/
  if(((PeriphClkInit->PeriphClockSelection) & RCC_PERIPHCLK_USART234578) == RCC_PERIPHCLK_USART234578)
 80050a0:	687b      	ldr	r3, [r7, #4]
 80050a2:	681b      	ldr	r3, [r3, #0]
 80050a4:	f003 0302 	and.w	r3, r3, #2
 80050a8:	2b00      	cmp	r3, #0
 80050aa:	d038      	beq.n	800511e <HAL_RCCEx_PeriphCLKConfig+0x862>
  {
    switch(PeriphClkInit->Usart234578ClockSelection)
 80050ac:	687b      	ldr	r3, [r7, #4]
 80050ae:	6fdb      	ldr	r3, [r3, #124]	; 0x7c
 80050b0:	2b05      	cmp	r3, #5
 80050b2:	d821      	bhi.n	80050f8 <HAL_RCCEx_PeriphCLKConfig+0x83c>
 80050b4:	a201      	add	r2, pc, #4	; (adr r2, 80050bc <HAL_RCCEx_PeriphCLKConfig+0x800>)
 80050b6:	f852 f023 	ldr.w	pc, [r2, r3, lsl #2]
 80050ba:	bf00      	nop
 80050bc:	080050ff 	.word	0x080050ff
 80050c0:	080050d5 	.word	0x080050d5
 80050c4:	080050e7 	.word	0x080050e7
 80050c8:	080050ff 	.word	0x080050ff
 80050cc:	080050ff 	.word	0x080050ff
 80050d0:	080050ff 	.word	0x080050ff
    case RCC_USART234578CLKSOURCE_PCLK1: /* CD/D2 PCLK1 as clock source for USART2/3/4/5/7/8 */
      /* USART2/3/4/5/7/8 clock source configuration done later after clock selection check */
      break;

    case RCC_USART234578CLKSOURCE_PLL2: /* PLL2 is used as clock source for USART2/3/4/5/7/8 */
      ret = RCCEx_PLL2_Config(&(PeriphClkInit->PLL2),DIVIDER_Q_UPDATE);
 80050d4:	687b      	ldr	r3, [r7, #4]
 80050d6:	3304      	adds	r3, #4
 80050d8:	2101      	movs	r1, #1
 80050da:	4618      	mov	r0, r3
 80050dc:	f000 fafa 	bl	80056d4 <RCCEx_PLL2_Config>
 80050e0:	4603      	mov	r3, r0
 80050e2:	75fb      	strb	r3, [r7, #23]
      /* USART2/3/4/5/7/8 clock source configuration done later after clock selection check */
      break;
 80050e4:	e00c      	b.n	8005100 <HAL_RCCEx_PeriphCLKConfig+0x844>

    case RCC_USART234578CLKSOURCE_PLL3: /* PLL3 is used as clock source for USART2/3/4/5/7/8 */
      ret = RCCEx_PLL3_Config(&(PeriphClkInit->PLL3),DIVIDER_Q_UPDATE);
 80050e6:	687b      	ldr	r3, [r7, #4]
 80050e8:	3324      	adds	r3, #36	; 0x24
 80050ea:	2101      	movs	r1, #1
 80050ec:	4618      	mov	r0, r3
 80050ee:	f000 fba3 	bl	8005838 <RCCEx_PLL3_Config>
 80050f2:	4603      	mov	r3, r0
 80050f4:	75fb      	strb	r3, [r7, #23]
      /* USART2/3/4/5/7/8 clock source configuration done later after clock selection check */
      break;
 80050f6:	e003      	b.n	8005100 <HAL_RCCEx_PeriphCLKConfig+0x844>
      /* LSE,  oscillator is used as source of USART2/3/4/5/7/8 clock */
      /* USART2/3/4/5/7/8 clock source configuration done later after clock selection check */
      break;

    default:
      ret = HAL_ERROR;
 80050f8:	2301      	movs	r3, #1
 80050fa:	75fb      	strb	r3, [r7, #23]
      break;
 80050fc:	e000      	b.n	8005100 <HAL_RCCEx_PeriphCLKConfig+0x844>
      break;
 80050fe:	bf00      	nop
    }

    if(ret == HAL_OK)
 8005100:	7dfb      	ldrb	r3, [r7, #23]
 8005102:	2b00      	cmp	r3, #0
 8005104:	d109      	bne.n	800511a <HAL_RCCEx_PeriphCLKConfig+0x85e>
    {
      /* Set the source of USART2/3/4/5/7/8 clock */
      __HAL_RCC_USART234578_CONFIG(PeriphClkInit->Usart234578ClockSelection);
 8005106:	4b26      	ldr	r3, [pc, #152]	; (80051a0 <HAL_RCCEx_PeriphCLKConfig+0x8e4>)
 8005108:	6d5b      	ldr	r3, [r3, #84]	; 0x54
 800510a:	f023 0207 	bic.w	r2, r3, #7
 800510e:	687b      	ldr	r3, [r7, #4]
 8005110:	6fdb      	ldr	r3, [r3, #124]	; 0x7c
 8005112:	4923      	ldr	r1, [pc, #140]	; (80051a0 <HAL_RCCEx_PeriphCLKConfig+0x8e4>)
 8005114:	4313      	orrs	r3, r2
 8005116:	654b      	str	r3, [r1, #84]	; 0x54
 8005118:	e001      	b.n	800511e <HAL_RCCEx_PeriphCLKConfig+0x862>
    }
    else
    {
      /* set overall return value */
      status = ret;
 800511a:	7dfb      	ldrb	r3, [r7, #23]
 800511c:	75bb      	strb	r3, [r7, #22]
    }
  }

  /*-------------------------- LPUART1 Configuration -------------------------*/
  if(((PeriphClkInit->PeriphClockSelection) & RCC_PERIPHCLK_LPUART1) == RCC_PERIPHCLK_LPUART1)
 800511e:	687b      	ldr	r3, [r7, #4]
 8005120:	681b      	ldr	r3, [r3, #0]
 8005122:	f003 0304 	and.w	r3, r3, #4
 8005126:	2b00      	cmp	r3, #0
 8005128:	d040      	beq.n	80051ac <HAL_RCCEx_PeriphCLKConfig+0x8f0>
  {
    switch(PeriphClkInit->Lpuart1ClockSelection)
 800512a:	687b      	ldr	r3, [r7, #4]
 800512c:	f8d3 3098 	ldr.w	r3, [r3, #152]	; 0x98
 8005130:	2b05      	cmp	r3, #5
 8005132:	d821      	bhi.n	8005178 <HAL_RCCEx_PeriphCLKConfig+0x8bc>
 8005134:	a201      	add	r2, pc, #4	; (adr r2, 800513c <HAL_RCCEx_PeriphCLKConfig+0x880>)
 8005136:	f852 f023 	ldr.w	pc, [r2, r3, lsl #2]
 800513a:	bf00      	nop
 800513c:	0800517f 	.word	0x0800517f
 8005140:	08005155 	.word	0x08005155
 8005144:	08005167 	.word	0x08005167
 8005148:	0800517f 	.word	0x0800517f
 800514c:	0800517f 	.word	0x0800517f
 8005150:	0800517f 	.word	0x0800517f
    case RCC_LPUART1CLKSOURCE_PCLK4: /* SRD/D3 PCLK1 (PCLK4) as clock source for LPUART1 */
      /* LPUART1 clock source configuration done later after clock selection check */
      break;

    case RCC_LPUART1CLKSOURCE_PLL2: /* PLL2 is used as clock source for LPUART1 */
      ret = RCCEx_PLL2_Config(&(PeriphClkInit->PLL2),DIVIDER_Q_UPDATE);
 8005154:	687b      	ldr	r3, [r7, #4]
 8005156:	3304      	adds	r3, #4
 8005158:	2101      	movs	r1, #1
 800515a:	4618      	mov	r0, r3
 800515c:	f000 faba 	bl	80056d4 <RCCEx_PLL2_Config>
 8005160:	4603      	mov	r3, r0
 8005162:	75fb      	strb	r3, [r7, #23]
      /* LPUART1 clock source configuration done later after clock selection check */
      break;
 8005164:	e00c      	b.n	8005180 <HAL_RCCEx_PeriphCLKConfig+0x8c4>

    case RCC_LPUART1CLKSOURCE_PLL3: /* PLL3 is used as clock source for LPUART1 */
      ret = RCCEx_PLL3_Config(&(PeriphClkInit->PLL3),DIVIDER_Q_UPDATE);
 8005166:	687b      	ldr	r3, [r7, #4]
 8005168:	3324      	adds	r3, #36	; 0x24
 800516a:	2101      	movs	r1, #1
 800516c:	4618      	mov	r0, r3
 800516e:	f000 fb63 	bl	8005838 <RCCEx_PLL3_Config>
 8005172:	4603      	mov	r3, r0
 8005174:	75fb      	strb	r3, [r7, #23]
      /* LPUART1 clock source configuration done later after clock selection check */
      break;
 8005176:	e003      	b.n	8005180 <HAL_RCCEx_PeriphCLKConfig+0x8c4>
      /* LSE,  oscillator is used as source of LPUART1 clock */
      /* LPUART1 clock source configuration done later after clock selection check */
      break;

    default:
      ret = HAL_ERROR;
 8005178:	2301      	movs	r3, #1
 800517a:	75fb      	strb	r3, [r7, #23]
      break;
 800517c:	e000      	b.n	8005180 <HAL_RCCEx_PeriphCLKConfig+0x8c4>
      break;
 800517e:	bf00      	nop
    }

    if(ret == HAL_OK)
 8005180:	7dfb      	ldrb	r3, [r7, #23]
 8005182:	2b00      	cmp	r3, #0
 8005184:	d110      	bne.n	80051a8 <HAL_RCCEx_PeriphCLKConfig+0x8ec>
    {
      /* Set the source of LPUART1 clock */
      __HAL_RCC_LPUART1_CONFIG(PeriphClkInit->Lpuart1ClockSelection);
 8005186:	4b06      	ldr	r3, [pc, #24]	; (80051a0 <HAL_RCCEx_PeriphCLKConfig+0x8e4>)
 8005188:	6d9b      	ldr	r3, [r3, #88]	; 0x58
 800518a:	f023 0207 	bic.w	r2, r3, #7
 800518e:	687b      	ldr	r3, [r7, #4]
 8005190:	f8d3 3098 	ldr.w	r3, [r3, #152]	; 0x98
 8005194:	4902      	ldr	r1, [pc, #8]	; (80051a0 <HAL_RCCEx_PeriphCLKConfig+0x8e4>)
 8005196:	4313      	orrs	r3, r2
 8005198:	658b      	str	r3, [r1, #88]	; 0x58
 800519a:	e007      	b.n	80051ac <HAL_RCCEx_PeriphCLKConfig+0x8f0>
 800519c:	58024800 	.word	0x58024800
 80051a0:	58024400 	.word	0x58024400
 80051a4:	00ffffcf 	.word	0x00ffffcf
    }
    else
    {
      /* set overall return value */
      status = ret;
 80051a8:	7dfb      	ldrb	r3, [r7, #23]
 80051aa:	75bb      	strb	r3, [r7, #22]
    }
  }

  /*---------------------------- LPTIM1 configuration -------------------------------*/
  if(((PeriphClkInit->PeriphClockSelection) & RCC_PERIPHCLK_LPTIM1) == RCC_PERIPHCLK_LPTIM1)
 80051ac:	687b      	ldr	r3, [r7, #4]
 80051ae:	681b      	ldr	r3, [r3, #0]
 80051b0:	f003 0320 	and.w	r3, r3, #32
 80051b4:	2b00      	cmp	r3, #0
 80051b6:	d04b      	beq.n	8005250 <HAL_RCCEx_PeriphCLKConfig+0x994>
  {
    switch(PeriphClkInit->Lptim1ClockSelection)
 80051b8:	687b      	ldr	r3, [r7, #4]
 80051ba:	f8d3 3094 	ldr.w	r3, [r3, #148]	; 0x94
 80051be:	f1b3 4fa0 	cmp.w	r3, #1342177280	; 0x50000000
 80051c2:	d02e      	beq.n	8005222 <HAL_RCCEx_PeriphCLKConfig+0x966>
 80051c4:	f1b3 4fa0 	cmp.w	r3, #1342177280	; 0x50000000
 80051c8:	d828      	bhi.n	800521c <HAL_RCCEx_PeriphCLKConfig+0x960>
 80051ca:	f1b3 4f80 	cmp.w	r3, #1073741824	; 0x40000000
 80051ce:	d02a      	beq.n	8005226 <HAL_RCCEx_PeriphCLKConfig+0x96a>
 80051d0:	f1b3 4f80 	cmp.w	r3, #1073741824	; 0x40000000
 80051d4:	d822      	bhi.n	800521c <HAL_RCCEx_PeriphCLKConfig+0x960>
 80051d6:	f1b3 5f40 	cmp.w	r3, #805306368	; 0x30000000
 80051da:	d026      	beq.n	800522a <HAL_RCCEx_PeriphCLKConfig+0x96e>
 80051dc:	f1b3 5f40 	cmp.w	r3, #805306368	; 0x30000000
 80051e0:	d81c      	bhi.n	800521c <HAL_RCCEx_PeriphCLKConfig+0x960>
 80051e2:	f1b3 5f00 	cmp.w	r3, #536870912	; 0x20000000
 80051e6:	d010      	beq.n	800520a <HAL_RCCEx_PeriphCLKConfig+0x94e>
 80051e8:	f1b3 5f00 	cmp.w	r3, #536870912	; 0x20000000
 80051ec:	d816      	bhi.n	800521c <HAL_RCCEx_PeriphCLKConfig+0x960>
 80051ee:	2b00      	cmp	r3, #0
 80051f0:	d01d      	beq.n	800522e <HAL_RCCEx_PeriphCLKConfig+0x972>
 80051f2:	f1b3 5f80 	cmp.w	r3, #268435456	; 0x10000000
 80051f6:	d111      	bne.n	800521c <HAL_RCCEx_PeriphCLKConfig+0x960>
      /* LPTIM1 clock source configuration done later after clock selection check */
      break;

    case RCC_LPTIM1CLKSOURCE_PLL2: /* PLL2 is used as clock source for LPTIM1*/

      ret = RCCEx_PLL2_Config(&(PeriphClkInit->PLL2),DIVIDER_P_UPDATE);
 80051f8:	687b      	ldr	r3, [r7, #4]
 80051fa:	3304      	adds	r3, #4
 80051fc:	2100      	movs	r1, #0
 80051fe:	4618      	mov	r0, r3
 8005200:	f000 fa68 	bl	80056d4 <RCCEx_PLL2_Config>
 8005204:	4603      	mov	r3, r0
 8005206:	75fb      	strb	r3, [r7, #23]

      /* LPTIM1 clock source configuration done later after clock selection check */
      break;
 8005208:	e012      	b.n	8005230 <HAL_RCCEx_PeriphCLKConfig+0x974>

    case RCC_LPTIM1CLKSOURCE_PLL3:  /* PLL3 is used as clock source for LPTIM1*/
      ret = RCCEx_PLL3_Config(&(PeriphClkInit->PLL3),DIVIDER_R_UPDATE);
 800520a:	687b      	ldr	r3, [r7, #4]
 800520c:	3324      	adds	r3, #36	; 0x24
 800520e:	2102      	movs	r1, #2
 8005210:	4618      	mov	r0, r3
 8005212:	f000 fb11 	bl	8005838 <RCCEx_PLL3_Config>
 8005216:	4603      	mov	r3, r0
 8005218:	75fb      	strb	r3, [r7, #23]

      /* LPTIM1 clock source configuration done later after clock selection check */
      break;
 800521a:	e009      	b.n	8005230 <HAL_RCCEx_PeriphCLKConfig+0x974>
      /* HSI, HSE, or CSI oscillator is used as source of LPTIM1 clock */
      /* LPTIM1 clock source configuration done later after clock selection check */
      break;

    default:
      ret = HAL_ERROR;
 800521c:	2301      	movs	r3, #1
 800521e:	75fb      	strb	r3, [r7, #23]
      break;
 8005220:	e006      	b.n	8005230 <HAL_RCCEx_PeriphCLKConfig+0x974>
      break;
 8005222:	bf00      	nop
 8005224:	e004      	b.n	8005230 <HAL_RCCEx_PeriphCLKConfig+0x974>
      break;
 8005226:	bf00      	nop
 8005228:	e002      	b.n	8005230 <HAL_RCCEx_PeriphCLKConfig+0x974>
      break;
 800522a:	bf00      	nop
 800522c:	e000      	b.n	8005230 <HAL_RCCEx_PeriphCLKConfig+0x974>
      break;
 800522e:	bf00      	nop
    }

    if(ret == HAL_OK)
 8005230:	7dfb      	ldrb	r3, [r7, #23]
 8005232:	2b00      	cmp	r3, #0
 8005234:	d10a      	bne.n	800524c <HAL_RCCEx_PeriphCLKConfig+0x990>
    {
      /* Set the source of LPTIM1 clock*/
      __HAL_RCC_LPTIM1_CONFIG(PeriphClkInit->Lptim1ClockSelection);
 8005236:	4bb3      	ldr	r3, [pc, #716]	; (8005504 <HAL_RCCEx_PeriphCLKConfig+0xc48>)
 8005238:	6d5b      	ldr	r3, [r3, #84]	; 0x54
 800523a:	f023 42e0 	bic.w	r2, r3, #1879048192	; 0x70000000
 800523e:	687b      	ldr	r3, [r7, #4]
 8005240:	f8d3 3094 	ldr.w	r3, [r3, #148]	; 0x94
 8005244:	49af      	ldr	r1, [pc, #700]	; (8005504 <HAL_RCCEx_PeriphCLKConfig+0xc48>)
 8005246:	4313      	orrs	r3, r2
 8005248:	654b      	str	r3, [r1, #84]	; 0x54
 800524a:	e001      	b.n	8005250 <HAL_RCCEx_PeriphCLKConfig+0x994>
    }
    else
    {
      /* set overall return value */
      status = ret;
 800524c:	7dfb      	ldrb	r3, [r7, #23]
 800524e:	75bb      	strb	r3, [r7, #22]
    }
  }

  /*---------------------------- LPTIM2 configuration -------------------------------*/
  if(((PeriphClkInit->PeriphClockSelection) & RCC_PERIPHCLK_LPTIM2) == RCC_PERIPHCLK_LPTIM2)
 8005250:	687b      	ldr	r3, [r7, #4]
 8005252:	681b      	ldr	r3, [r3, #0]
 8005254:	f003 0340 	and.w	r3, r3, #64	; 0x40
 8005258:	2b00      	cmp	r3, #0
 800525a:	d04b      	beq.n	80052f4 <HAL_RCCEx_PeriphCLKConfig+0xa38>
  {
    switch(PeriphClkInit->Lptim2ClockSelection)
 800525c:	687b      	ldr	r3, [r7, #4]
 800525e:	f8d3 30a0 	ldr.w	r3, [r3, #160]	; 0xa0
 8005262:	f5b3 5fa0 	cmp.w	r3, #5120	; 0x1400
 8005266:	d02e      	beq.n	80052c6 <HAL_RCCEx_PeriphCLKConfig+0xa0a>
 8005268:	f5b3 5fa0 	cmp.w	r3, #5120	; 0x1400
 800526c:	d828      	bhi.n	80052c0 <HAL_RCCEx_PeriphCLKConfig+0xa04>
 800526e:	f5b3 5f80 	cmp.w	r3, #4096	; 0x1000
 8005272:	d02a      	beq.n	80052ca <HAL_RCCEx_PeriphCLKConfig+0xa0e>
 8005274:	f5b3 5f80 	cmp.w	r3, #4096	; 0x1000
 8005278:	d822      	bhi.n	80052c0 <HAL_RCCEx_PeriphCLKConfig+0xa04>
 800527a:	f5b3 6f40 	cmp.w	r3, #3072	; 0xc00
 800527e:	d026      	beq.n	80052ce <HAL_RCCEx_PeriphCLKConfig+0xa12>
 8005280:	f5b3 6f40 	cmp.w	r3, #3072	; 0xc00
 8005284:	d81c      	bhi.n	80052c0 <HAL_RCCEx_PeriphCLKConfig+0xa04>
 8005286:	f5b3 6f00 	cmp.w	r3, #2048	; 0x800
 800528a:	d010      	beq.n	80052ae <HAL_RCCEx_PeriphCLKConfig+0x9f2>
 800528c:	f5b3 6f00 	cmp.w	r3, #2048	; 0x800
 8005290:	d816      	bhi.n	80052c0 <HAL_RCCEx_PeriphCLKConfig+0xa04>
 8005292:	2b00      	cmp	r3, #0
 8005294:	d01d      	beq.n	80052d2 <HAL_RCCEx_PeriphCLKConfig+0xa16>
 8005296:	f5b3 6f80 	cmp.w	r3, #1024	; 0x400
 800529a:	d111      	bne.n	80052c0 <HAL_RCCEx_PeriphCLKConfig+0xa04>
      /* LPTIM2 clock source configuration done later after clock selection check */
      break;

    case RCC_LPTIM2CLKSOURCE_PLL2: /* PLL2 is used as clock source for LPTIM2*/

      ret = RCCEx_PLL2_Config(&(PeriphClkInit->PLL2),DIVIDER_P_UPDATE);
 800529c:	687b      	ldr	r3, [r7, #4]
 800529e:	3304      	adds	r3, #4
 80052a0:	2100      	movs	r1, #0
 80052a2:	4618      	mov	r0, r3
 80052a4:	f000 fa16 	bl	80056d4 <RCCEx_PLL2_Config>
 80052a8:	4603      	mov	r3, r0
 80052aa:	75fb      	strb	r3, [r7, #23]

      /* LPTIM2 clock source configuration done later after clock selection check */
      break;
 80052ac:	e012      	b.n	80052d4 <HAL_RCCEx_PeriphCLKConfig+0xa18>

    case RCC_LPTIM2CLKSOURCE_PLL3:  /* PLL3 is used as clock source for LPTIM2*/
      ret = RCCEx_PLL3_Config(&(PeriphClkInit->PLL3),DIVIDER_R_UPDATE);
 80052ae:	687b      	ldr	r3, [r7, #4]
 80052b0:	3324      	adds	r3, #36	; 0x24
 80052b2:	2102      	movs	r1, #2
 80052b4:	4618      	mov	r0, r3
 80052b6:	f000 fabf 	bl	8005838 <RCCEx_PLL3_Config>
 80052ba:	4603      	mov	r3, r0
 80052bc:	75fb      	strb	r3, [r7, #23]

      /* LPTIM2 clock source configuration done later after clock selection check */
      break;
 80052be:	e009      	b.n	80052d4 <HAL_RCCEx_PeriphCLKConfig+0xa18>
      /* HSI, HSE, or CSI oscillator is used as source of LPTIM2 clock */
      /* LPTIM2 clock source configuration done later after clock selection check */
      break;

    default:
      ret = HAL_ERROR;
 80052c0:	2301      	movs	r3, #1
 80052c2:	75fb      	strb	r3, [r7, #23]
      break;
 80052c4:	e006      	b.n	80052d4 <HAL_RCCEx_PeriphCLKConfig+0xa18>
      break;
 80052c6:	bf00      	nop
 80052c8:	e004      	b.n	80052d4 <HAL_RCCEx_PeriphCLKConfig+0xa18>
      break;
 80052ca:	bf00      	nop
 80052cc:	e002      	b.n	80052d4 <HAL_RCCEx_PeriphCLKConfig+0xa18>
      break;
 80052ce:	bf00      	nop
 80052d0:	e000      	b.n	80052d4 <HAL_RCCEx_PeriphCLKConfig+0xa18>
      break;
 80052d2:	bf00      	nop
    }

    if(ret == HAL_OK)
 80052d4:	7dfb      	ldrb	r3, [r7, #23]
 80052d6:	2b00      	cmp	r3, #0
 80052d8:	d10a      	bne.n	80052f0 <HAL_RCCEx_PeriphCLKConfig+0xa34>
    {
      /* Set the source of LPTIM2 clock*/
      __HAL_RCC_LPTIM2_CONFIG(PeriphClkInit->Lptim2ClockSelection);
 80052da:	4b8a      	ldr	r3, [pc, #552]	; (8005504 <HAL_RCCEx_PeriphCLKConfig+0xc48>)
 80052dc:	6d9b      	ldr	r3, [r3, #88]	; 0x58
 80052de:	f423 52e0 	bic.w	r2, r3, #7168	; 0x1c00
 80052e2:	687b      	ldr	r3, [r7, #4]
 80052e4:	f8d3 30a0 	ldr.w	r3, [r3, #160]	; 0xa0
 80052e8:	4986      	ldr	r1, [pc, #536]	; (8005504 <HAL_RCCEx_PeriphCLKConfig+0xc48>)
 80052ea:	4313      	orrs	r3, r2
 80052ec:	658b      	str	r3, [r1, #88]	; 0x58
 80052ee:	e001      	b.n	80052f4 <HAL_RCCEx_PeriphCLKConfig+0xa38>
    }
    else
    {
      /* set overall return value */
      status = ret;
 80052f0:	7dfb      	ldrb	r3, [r7, #23]
 80052f2:	75bb      	strb	r3, [r7, #22]
    }
  }

  /*---------------------------- LPTIM345 configuration -------------------------------*/
  if(((PeriphClkInit->PeriphClockSelection) & RCC_PERIPHCLK_LPTIM345) == RCC_PERIPHCLK_LPTIM345)
 80052f4:	687b      	ldr	r3, [r7, #4]
 80052f6:	681b      	ldr	r3, [r3, #0]
 80052f8:	f003 0380 	and.w	r3, r3, #128	; 0x80
 80052fc:	2b00      	cmp	r3, #0
 80052fe:	d04b      	beq.n	8005398 <HAL_RCCEx_PeriphCLKConfig+0xadc>
  {
    switch(PeriphClkInit->Lptim345ClockSelection)
 8005300:	687b      	ldr	r3, [r7, #4]
 8005302:	f8d3 30a4 	ldr.w	r3, [r3, #164]	; 0xa4
 8005306:	f5b3 4f20 	cmp.w	r3, #40960	; 0xa000
 800530a:	d02e      	beq.n	800536a <HAL_RCCEx_PeriphCLKConfig+0xaae>
 800530c:	f5b3 4f20 	cmp.w	r3, #40960	; 0xa000
 8005310:	d828      	bhi.n	8005364 <HAL_RCCEx_PeriphCLKConfig+0xaa8>
 8005312:	f5b3 4f00 	cmp.w	r3, #32768	; 0x8000
 8005316:	d02a      	beq.n	800536e <HAL_RCCEx_PeriphCLKConfig+0xab2>
 8005318:	f5b3 4f00 	cmp.w	r3, #32768	; 0x8000
 800531c:	d822      	bhi.n	8005364 <HAL_RCCEx_PeriphCLKConfig+0xaa8>
 800531e:	f5b3 4fc0 	cmp.w	r3, #24576	; 0x6000
 8005322:	d026      	beq.n	8005372 <HAL_RCCEx_PeriphCLKConfig+0xab6>
 8005324:	f5b3 4fc0 	cmp.w	r3, #24576	; 0x6000
 8005328:	d81c      	bhi.n	8005364 <HAL_RCCEx_PeriphCLKConfig+0xaa8>
 800532a:	f5b3 4f80 	cmp.w	r3, #16384	; 0x4000
 800532e:	d010      	beq.n	8005352 <HAL_RCCEx_PeriphCLKConfig+0xa96>
 8005330:	f5b3 4f80 	cmp.w	r3, #16384	; 0x4000
 8005334:	d816      	bhi.n	8005364 <HAL_RCCEx_PeriphCLKConfig+0xaa8>
 8005336:	2b00      	cmp	r3, #0
 8005338:	d01d      	beq.n	8005376 <HAL_RCCEx_PeriphCLKConfig+0xaba>
 800533a:	f5b3 5f00 	cmp.w	r3, #8192	; 0x2000
 800533e:	d111      	bne.n	8005364 <HAL_RCCEx_PeriphCLKConfig+0xaa8>
    case RCC_LPTIM345CLKSOURCE_PCLK4:      /* SRD/D3 PCLK1 (PCLK4) as clock source for LPTIM3/4/5 */
      /* LPTIM3/4/5 clock source configuration done later after clock selection check */
      break;

    case RCC_LPTIM345CLKSOURCE_PLL2: /* PLL2 is used as clock source for LPTIM3/4/5 */
      ret = RCCEx_PLL2_Config(&(PeriphClkInit->PLL2),DIVIDER_P_UPDATE);
 8005340:	687b      	ldr	r3, [r7, #4]
 8005342:	3304      	adds	r3, #4
 8005344:	2100      	movs	r1, #0
 8005346:	4618      	mov	r0, r3
 8005348:	f000 f9c4 	bl	80056d4 <RCCEx_PLL2_Config>
 800534c:	4603      	mov	r3, r0
 800534e:	75fb      	strb	r3, [r7, #23]

      /* LPTIM3/4/5 clock source configuration done later after clock selection check */
      break;
 8005350:	e012      	b.n	8005378 <HAL_RCCEx_PeriphCLKConfig+0xabc>

    case RCC_LPTIM345CLKSOURCE_PLL3:  /* PLL3 is used as clock source for LPTIM3/4/5 */
      ret = RCCEx_PLL3_Config(&(PeriphClkInit->PLL3),DIVIDER_R_UPDATE);
 8005352:	687b      	ldr	r3, [r7, #4]
 8005354:	3324      	adds	r3, #36	; 0x24
 8005356:	2102      	movs	r1, #2
 8005358:	4618      	mov	r0, r3
 800535a:	f000 fa6d 	bl	8005838 <RCCEx_PLL3_Config>
 800535e:	4603      	mov	r3, r0
 8005360:	75fb      	strb	r3, [r7, #23]

      /* LPTIM3/4/5 clock source configuration done later after clock selection check */
      break;
 8005362:	e009      	b.n	8005378 <HAL_RCCEx_PeriphCLKConfig+0xabc>
      /* HSI, HSE, or CSI oscillator is used as source of LPTIM3/4/5 clock */
      /* LPTIM3/4/5 clock source configuration done later after clock selection check */
      break;

    default:
      ret = HAL_ERROR;
 8005364:	2301      	movs	r3, #1
 8005366:	75fb      	strb	r3, [r7, #23]
      break;
 8005368:	e006      	b.n	8005378 <HAL_RCCEx_PeriphCLKConfig+0xabc>
      break;
 800536a:	bf00      	nop
 800536c:	e004      	b.n	8005378 <HAL_RCCEx_PeriphCLKConfig+0xabc>
      break;
 800536e:	bf00      	nop
 8005370:	e002      	b.n	8005378 <HAL_RCCEx_PeriphCLKConfig+0xabc>
      break;
 8005372:	bf00      	nop
 8005374:	e000      	b.n	8005378 <HAL_RCCEx_PeriphCLKConfig+0xabc>
      break;
 8005376:	bf00      	nop
    }

    if(ret == HAL_OK)
 8005378:	7dfb      	ldrb	r3, [r7, #23]
 800537a:	2b00      	cmp	r3, #0
 800537c:	d10a      	bne.n	8005394 <HAL_RCCEx_PeriphCLKConfig+0xad8>
    {
      /* Set the source of LPTIM3/4/5 clock */
      __HAL_RCC_LPTIM345_CONFIG(PeriphClkInit->Lptim345ClockSelection);
 800537e:	4b61      	ldr	r3, [pc, #388]	; (8005504 <HAL_RCCEx_PeriphCLKConfig+0xc48>)
 8005380:	6d9b      	ldr	r3, [r3, #88]	; 0x58
 8005382:	f423 4260 	bic.w	r2, r3, #57344	; 0xe000
 8005386:	687b      	ldr	r3, [r7, #4]
 8005388:	f8d3 30a4 	ldr.w	r3, [r3, #164]	; 0xa4
 800538c:	495d      	ldr	r1, [pc, #372]	; (8005504 <HAL_RCCEx_PeriphCLKConfig+0xc48>)
 800538e:	4313      	orrs	r3, r2
 8005390:	658b      	str	r3, [r1, #88]	; 0x58
 8005392:	e001      	b.n	8005398 <HAL_RCCEx_PeriphCLKConfig+0xadc>
    }
    else
    {
      /* set overall return value */
      status = ret;
 8005394:	7dfb      	ldrb	r3, [r7, #23]
 8005396:	75bb      	strb	r3, [r7, #22]

      __HAL_RCC_I2C1235_CONFIG(PeriphClkInit->I2c1235ClockSelection);

  }
#else
  if(((PeriphClkInit->PeriphClockSelection) & RCC_PERIPHCLK_I2C123) == RCC_PERIPHCLK_I2C123)
 8005398:	687b      	ldr	r3, [r7, #4]
 800539a:	681b      	ldr	r3, [r3, #0]
 800539c:	f003 0308 	and.w	r3, r3, #8
 80053a0:	2b00      	cmp	r3, #0
 80053a2:	d01a      	beq.n	80053da <HAL_RCCEx_PeriphCLKConfig+0xb1e>
  {
    /* Check the parameters */
    assert_param(IS_RCC_I2C123CLKSOURCE(PeriphClkInit->I2c123ClockSelection));

    if ((PeriphClkInit->I2c123ClockSelection )== RCC_I2C123CLKSOURCE_PLL3 )
 80053a4:	687b      	ldr	r3, [r7, #4]
 80053a6:	f8d3 3088 	ldr.w	r3, [r3, #136]	; 0x88
 80053aa:	f5b3 5f80 	cmp.w	r3, #4096	; 0x1000
 80053ae:	d10a      	bne.n	80053c6 <HAL_RCCEx_PeriphCLKConfig+0xb0a>
    {
        if(RCCEx_PLL3_Config(&(PeriphClkInit->PLL3),DIVIDER_R_UPDATE)!= HAL_OK)
 80053b0:	687b      	ldr	r3, [r7, #4]
 80053b2:	3324      	adds	r3, #36	; 0x24
 80053b4:	2102      	movs	r1, #2
 80053b6:	4618      	mov	r0, r3
 80053b8:	f000 fa3e 	bl	8005838 <RCCEx_PLL3_Config>
 80053bc:	4603      	mov	r3, r0
 80053be:	2b00      	cmp	r3, #0
 80053c0:	d001      	beq.n	80053c6 <HAL_RCCEx_PeriphCLKConfig+0xb0a>
        {
          status = HAL_ERROR;
 80053c2:	2301      	movs	r3, #1
 80053c4:	75bb      	strb	r3, [r7, #22]
        }
    }

      __HAL_RCC_I2C123_CONFIG(PeriphClkInit->I2c123ClockSelection);
 80053c6:	4b4f      	ldr	r3, [pc, #316]	; (8005504 <HAL_RCCEx_PeriphCLKConfig+0xc48>)
 80053c8:	6d5b      	ldr	r3, [r3, #84]	; 0x54
 80053ca:	f423 5240 	bic.w	r2, r3, #12288	; 0x3000
 80053ce:	687b      	ldr	r3, [r7, #4]
 80053d0:	f8d3 3088 	ldr.w	r3, [r3, #136]	; 0x88
 80053d4:	494b      	ldr	r1, [pc, #300]	; (8005504 <HAL_RCCEx_PeriphCLKConfig+0xc48>)
 80053d6:	4313      	orrs	r3, r2
 80053d8:	654b      	str	r3, [r1, #84]	; 0x54

  }
#endif /* I2C5 */

  /*------------------------------ I2C4 Configuration ------------------------*/
  if(((PeriphClkInit->PeriphClockSelection) & RCC_PERIPHCLK_I2C4) == RCC_PERIPHCLK_I2C4)
 80053da:	687b      	ldr	r3, [r7, #4]
 80053dc:	681b      	ldr	r3, [r3, #0]
 80053de:	f003 0310 	and.w	r3, r3, #16
 80053e2:	2b00      	cmp	r3, #0
 80053e4:	d01a      	beq.n	800541c <HAL_RCCEx_PeriphCLKConfig+0xb60>
  {
    /* Check the parameters */
    assert_param(IS_RCC_I2C4CLKSOURCE(PeriphClkInit->I2c4ClockSelection));

    if ((PeriphClkInit->I2c4ClockSelection) == RCC_I2C4CLKSOURCE_PLL3 )
 80053e6:	687b      	ldr	r3, [r7, #4]
 80053e8:	f8d3 309c 	ldr.w	r3, [r3, #156]	; 0x9c
 80053ec:	f5b3 7f80 	cmp.w	r3, #256	; 0x100
 80053f0:	d10a      	bne.n	8005408 <HAL_RCCEx_PeriphCLKConfig+0xb4c>
    {
      if(RCCEx_PLL3_Config(&(PeriphClkInit->PLL3),DIVIDER_R_UPDATE)!= HAL_OK)
 80053f2:	687b      	ldr	r3, [r7, #4]
 80053f4:	3324      	adds	r3, #36	; 0x24
 80053f6:	2102      	movs	r1, #2
 80053f8:	4618      	mov	r0, r3
 80053fa:	f000 fa1d 	bl	8005838 <RCCEx_PLL3_Config>
 80053fe:	4603      	mov	r3, r0
 8005400:	2b00      	cmp	r3, #0
 8005402:	d001      	beq.n	8005408 <HAL_RCCEx_PeriphCLKConfig+0xb4c>
      {
        status = HAL_ERROR;
 8005404:	2301      	movs	r3, #1
 8005406:	75bb      	strb	r3, [r7, #22]
      }
    }

      __HAL_RCC_I2C4_CONFIG(PeriphClkInit->I2c4ClockSelection);
 8005408:	4b3e      	ldr	r3, [pc, #248]	; (8005504 <HAL_RCCEx_PeriphCLKConfig+0xc48>)
 800540a:	6d9b      	ldr	r3, [r3, #88]	; 0x58
 800540c:	f423 7240 	bic.w	r2, r3, #768	; 0x300
 8005410:	687b      	ldr	r3, [r7, #4]
 8005412:	f8d3 309c 	ldr.w	r3, [r3, #156]	; 0x9c
 8005416:	493b      	ldr	r1, [pc, #236]	; (8005504 <HAL_RCCEx_PeriphCLKConfig+0xc48>)
 8005418:	4313      	orrs	r3, r2
 800541a:	658b      	str	r3, [r1, #88]	; 0x58

  }

  /*---------------------------- ADC configuration -------------------------------*/
  if(((PeriphClkInit->PeriphClockSelection) & RCC_PERIPHCLK_ADC) == RCC_PERIPHCLK_ADC)
 800541c:	687b      	ldr	r3, [r7, #4]
 800541e:	681b      	ldr	r3, [r3, #0]
 8005420:	f403 2300 	and.w	r3, r3, #524288	; 0x80000
 8005424:	2b00      	cmp	r3, #0
 8005426:	d034      	beq.n	8005492 <HAL_RCCEx_PeriphCLKConfig+0xbd6>
  {
    switch(PeriphClkInit->AdcClockSelection)
 8005428:	687b      	ldr	r3, [r7, #4]
 800542a:	f8d3 30a8 	ldr.w	r3, [r3, #168]	; 0xa8
 800542e:	f5b3 3f00 	cmp.w	r3, #131072	; 0x20000
 8005432:	d01d      	beq.n	8005470 <HAL_RCCEx_PeriphCLKConfig+0xbb4>
 8005434:	f5b3 3f00 	cmp.w	r3, #131072	; 0x20000
 8005438:	d817      	bhi.n	800546a <HAL_RCCEx_PeriphCLKConfig+0xbae>
 800543a:	2b00      	cmp	r3, #0
 800543c:	d003      	beq.n	8005446 <HAL_RCCEx_PeriphCLKConfig+0xb8a>
 800543e:	f5b3 3f80 	cmp.w	r3, #65536	; 0x10000
 8005442:	d009      	beq.n	8005458 <HAL_RCCEx_PeriphCLKConfig+0xb9c>
 8005444:	e011      	b.n	800546a <HAL_RCCEx_PeriphCLKConfig+0xbae>
    {

    case RCC_ADCCLKSOURCE_PLL2: /* PLL2 is used as clock source for ADC*/

      ret = RCCEx_PLL2_Config(&(PeriphClkInit->PLL2),DIVIDER_P_UPDATE);
 8005446:	687b      	ldr	r3, [r7, #4]
 8005448:	3304      	adds	r3, #4
 800544a:	2100      	movs	r1, #0
 800544c:	4618      	mov	r0, r3
 800544e:	f000 f941 	bl	80056d4 <RCCEx_PLL2_Config>
 8005452:	4603      	mov	r3, r0
 8005454:	75fb      	strb	r3, [r7, #23]

      /* ADC clock source configuration done later after clock selection check */
      break;
 8005456:	e00c      	b.n	8005472 <HAL_RCCEx_PeriphCLKConfig+0xbb6>

    case RCC_ADCCLKSOURCE_PLL3:  /* PLL3 is used as clock source for ADC*/
      ret = RCCEx_PLL3_Config(&(PeriphClkInit->PLL3),DIVIDER_R_UPDATE);
 8005458:	687b      	ldr	r3, [r7, #4]
 800545a:	3324      	adds	r3, #36	; 0x24
 800545c:	2102      	movs	r1, #2
 800545e:	4618      	mov	r0, r3
 8005460:	f000 f9ea 	bl	8005838 <RCCEx_PLL3_Config>
 8005464:	4603      	mov	r3, r0
 8005466:	75fb      	strb	r3, [r7, #23]

      /* ADC clock source configuration done later after clock selection check */
      break;
 8005468:	e003      	b.n	8005472 <HAL_RCCEx_PeriphCLKConfig+0xbb6>
      /* HSI, HSE, or CSI oscillator is used as source of ADC clock */
      /* ADC clock source configuration done later after clock selection check */
      break;

    default:
      ret = HAL_ERROR;
 800546a:	2301      	movs	r3, #1
 800546c:	75fb      	strb	r3, [r7, #23]
      break;
 800546e:	e000      	b.n	8005472 <HAL_RCCEx_PeriphCLKConfig+0xbb6>
      break;
 8005470:	bf00      	nop
    }

    if(ret == HAL_OK)
 8005472:	7dfb      	ldrb	r3, [r7, #23]
 8005474:	2b00      	cmp	r3, #0
 8005476:	d10a      	bne.n	800548e <HAL_RCCEx_PeriphCLKConfig+0xbd2>
    {
      /* Set the source of ADC clock*/
      __HAL_RCC_ADC_CONFIG(PeriphClkInit->AdcClockSelection);
 8005478:	4b22      	ldr	r3, [pc, #136]	; (8005504 <HAL_RCCEx_PeriphCLKConfig+0xc48>)
 800547a:	6d9b      	ldr	r3, [r3, #88]	; 0x58
 800547c:	f423 3240 	bic.w	r2, r3, #196608	; 0x30000
 8005480:	687b      	ldr	r3, [r7, #4]
 8005482:	f8d3 30a8 	ldr.w	r3, [r3, #168]	; 0xa8
 8005486:	491f      	ldr	r1, [pc, #124]	; (8005504 <HAL_RCCEx_PeriphCLKConfig+0xc48>)
 8005488:	4313      	orrs	r3, r2
 800548a:	658b      	str	r3, [r1, #88]	; 0x58
 800548c:	e001      	b.n	8005492 <HAL_RCCEx_PeriphCLKConfig+0xbd6>
    }
    else
    {
      /* set overall return value */
      status = ret;
 800548e:	7dfb      	ldrb	r3, [r7, #23]
 8005490:	75bb      	strb	r3, [r7, #22]
    }
  }

  /*------------------------------ USB Configuration -------------------------*/
  if(((PeriphClkInit->PeriphClockSelection) & RCC_PERIPHCLK_USB) == RCC_PERIPHCLK_USB)
 8005492:	687b      	ldr	r3, [r7, #4]
 8005494:	681b      	ldr	r3, [r3, #0]
 8005496:	f403 2380 	and.w	r3, r3, #262144	; 0x40000
 800549a:	2b00      	cmp	r3, #0
 800549c:	d036      	beq.n	800550c <HAL_RCCEx_PeriphCLKConfig+0xc50>
  {

    switch(PeriphClkInit->UsbClockSelection)
 800549e:	687b      	ldr	r3, [r7, #4]
 80054a0:	f8d3 308c 	ldr.w	r3, [r3, #140]	; 0x8c
 80054a4:	f5b3 1f40 	cmp.w	r3, #3145728	; 0x300000
 80054a8:	d01c      	beq.n	80054e4 <HAL_RCCEx_PeriphCLKConfig+0xc28>
 80054aa:	f5b3 1f40 	cmp.w	r3, #3145728	; 0x300000
 80054ae:	d816      	bhi.n	80054de <HAL_RCCEx_PeriphCLKConfig+0xc22>
 80054b0:	f5b3 1f80 	cmp.w	r3, #1048576	; 0x100000
 80054b4:	d003      	beq.n	80054be <HAL_RCCEx_PeriphCLKConfig+0xc02>
 80054b6:	f5b3 1f00 	cmp.w	r3, #2097152	; 0x200000
 80054ba:	d007      	beq.n	80054cc <HAL_RCCEx_PeriphCLKConfig+0xc10>
 80054bc:	e00f      	b.n	80054de <HAL_RCCEx_PeriphCLKConfig+0xc22>
    {
    case RCC_USBCLKSOURCE_PLL:      /* PLL is used as clock source for USB*/
      /* Enable USB Clock output generated form System USB . */
      __HAL_RCC_PLLCLKOUT_ENABLE(RCC_PLL1_DIVQ);
 80054be:	4b11      	ldr	r3, [pc, #68]	; (8005504 <HAL_RCCEx_PeriphCLKConfig+0xc48>)
 80054c0:	6adb      	ldr	r3, [r3, #44]	; 0x2c
 80054c2:	4a10      	ldr	r2, [pc, #64]	; (8005504 <HAL_RCCEx_PeriphCLKConfig+0xc48>)
 80054c4:	f443 3300 	orr.w	r3, r3, #131072	; 0x20000
 80054c8:	62d3      	str	r3, [r2, #44]	; 0x2c

      /* USB clock source configuration done later after clock selection check */
      break;
 80054ca:	e00c      	b.n	80054e6 <HAL_RCCEx_PeriphCLKConfig+0xc2a>

    case RCC_USBCLKSOURCE_PLL3: /* PLL3 is used as clock source for USB*/

      ret = RCCEx_PLL3_Config(&(PeriphClkInit->PLL3),DIVIDER_Q_UPDATE);
 80054cc:	687b      	ldr	r3, [r7, #4]
 80054ce:	3324      	adds	r3, #36	; 0x24
 80054d0:	2101      	movs	r1, #1
 80054d2:	4618      	mov	r0, r3
 80054d4:	f000 f9b0 	bl	8005838 <RCCEx_PLL3_Config>
 80054d8:	4603      	mov	r3, r0
 80054da:	75fb      	strb	r3, [r7, #23]

      /* USB clock source configuration done later after clock selection check */
      break;
 80054dc:	e003      	b.n	80054e6 <HAL_RCCEx_PeriphCLKConfig+0xc2a>
      /* HSI48 oscillator is used as source of USB clock */
      /* USB clock source configuration done later after clock selection check */
      break;

    default:
      ret = HAL_ERROR;
 80054de:	2301      	movs	r3, #1
 80054e0:	75fb      	strb	r3, [r7, #23]
      break;
 80054e2:	e000      	b.n	80054e6 <HAL_RCCEx_PeriphCLKConfig+0xc2a>
      break;
 80054e4:	bf00      	nop
    }

    if(ret == HAL_OK)
 80054e6:	7dfb      	ldrb	r3, [r7, #23]
 80054e8:	2b00      	cmp	r3, #0
 80054ea:	d10d      	bne.n	8005508 <HAL_RCCEx_PeriphCLKConfig+0xc4c>
    {
      /* Set the source of USB clock*/
      __HAL_RCC_USB_CONFIG(PeriphClkInit->UsbClockSelection);
 80054ec:	4b05      	ldr	r3, [pc, #20]	; (8005504 <HAL_RCCEx_PeriphCLKConfig+0xc48>)
 80054ee:	6d5b      	ldr	r3, [r3, #84]	; 0x54
 80054f0:	f423 1240 	bic.w	r2, r3, #3145728	; 0x300000
 80054f4:	687b      	ldr	r3, [r7, #4]
 80054f6:	f8d3 308c 	ldr.w	r3, [r3, #140]	; 0x8c
 80054fa:	4902      	ldr	r1, [pc, #8]	; (8005504 <HAL_RCCEx_PeriphCLKConfig+0xc48>)
 80054fc:	4313      	orrs	r3, r2
 80054fe:	654b      	str	r3, [r1, #84]	; 0x54
 8005500:	e004      	b.n	800550c <HAL_RCCEx_PeriphCLKConfig+0xc50>
 8005502:	bf00      	nop
 8005504:	58024400 	.word	0x58024400
    }
    else
    {
      /* set overall return value */
      status = ret;
 8005508:	7dfb      	ldrb	r3, [r7, #23]
 800550a:	75bb      	strb	r3, [r7, #22]
    }

  }

  /*------------------------------------- SDMMC Configuration ------------------------------------*/
  if(((PeriphClkInit->PeriphClockSelection) & RCC_PERIPHCLK_SDMMC) == RCC_PERIPHCLK_SDMMC)
 800550c:	687b      	ldr	r3, [r7, #4]
 800550e:	681b      	ldr	r3, [r3, #0]
 8005510:	f403 3380 	and.w	r3, r3, #65536	; 0x10000
 8005514:	2b00      	cmp	r3, #0
 8005516:	d029      	beq.n	800556c <HAL_RCCEx_PeriphCLKConfig+0xcb0>
  {
    /* Check the parameters */
    assert_param(IS_RCC_SDMMC(PeriphClkInit->SdmmcClockSelection));

    switch(PeriphClkInit->SdmmcClockSelection)
 8005518:	687b      	ldr	r3, [r7, #4]
 800551a:	6cdb      	ldr	r3, [r3, #76]	; 0x4c
 800551c:	2b00      	cmp	r3, #0
 800551e:	d003      	beq.n	8005528 <HAL_RCCEx_PeriphCLKConfig+0xc6c>
 8005520:	f5b3 3f80 	cmp.w	r3, #65536	; 0x10000
 8005524:	d007      	beq.n	8005536 <HAL_RCCEx_PeriphCLKConfig+0xc7a>
 8005526:	e00f      	b.n	8005548 <HAL_RCCEx_PeriphCLKConfig+0xc8c>
    {
    case RCC_SDMMCCLKSOURCE_PLL:      /* PLL is used as clock source for SDMMC*/
      /* Enable SDMMC Clock output generated form System PLL . */
      __HAL_RCC_PLLCLKOUT_ENABLE(RCC_PLL1_DIVQ);
 8005528:	4b69      	ldr	r3, [pc, #420]	; (80056d0 <HAL_RCCEx_PeriphCLKConfig+0xe14>)
 800552a:	6adb      	ldr	r3, [r3, #44]	; 0x2c
 800552c:	4a68      	ldr	r2, [pc, #416]	; (80056d0 <HAL_RCCEx_PeriphCLKConfig+0xe14>)
 800552e:	f443 3300 	orr.w	r3, r3, #131072	; 0x20000
 8005532:	62d3      	str	r3, [r2, #44]	; 0x2c

      /* SDMMC clock source configuration done later after clock selection check */
      break;
 8005534:	e00b      	b.n	800554e <HAL_RCCEx_PeriphCLKConfig+0xc92>

    case RCC_SDMMCCLKSOURCE_PLL2: /* PLL2 is used as clock source for SDMMC*/

      ret = RCCEx_PLL2_Config(&(PeriphClkInit->PLL2),DIVIDER_R_UPDATE);
 8005536:	687b      	ldr	r3, [r7, #4]
 8005538:	3304      	adds	r3, #4
 800553a:	2102      	movs	r1, #2
 800553c:	4618      	mov	r0, r3
 800553e:	f000 f8c9 	bl	80056d4 <RCCEx_PLL2_Config>
 8005542:	4603      	mov	r3, r0
 8005544:	75fb      	strb	r3, [r7, #23]

      /* SDMMC clock source configuration done later after clock selection check */
      break;
 8005546:	e002      	b.n	800554e <HAL_RCCEx_PeriphCLKConfig+0xc92>

    default:
      ret = HAL_ERROR;
 8005548:	2301      	movs	r3, #1
 800554a:	75fb      	strb	r3, [r7, #23]
      break;
 800554c:	bf00      	nop
    }

    if(ret == HAL_OK)
 800554e:	7dfb      	ldrb	r3, [r7, #23]
 8005550:	2b00      	cmp	r3, #0
 8005552:	d109      	bne.n	8005568 <HAL_RCCEx_PeriphCLKConfig+0xcac>
    {
      /* Set the source of SDMMC clock*/
      __HAL_RCC_SDMMC_CONFIG(PeriphClkInit->SdmmcClockSelection);
 8005554:	4b5e      	ldr	r3, [pc, #376]	; (80056d0 <HAL_RCCEx_PeriphCLKConfig+0xe14>)
 8005556:	6cdb      	ldr	r3, [r3, #76]	; 0x4c
 8005558:	f423 3280 	bic.w	r2, r3, #65536	; 0x10000
 800555c:	687b      	ldr	r3, [r7, #4]
 800555e:	6cdb      	ldr	r3, [r3, #76]	; 0x4c
 8005560:	495b      	ldr	r1, [pc, #364]	; (80056d0 <HAL_RCCEx_PeriphCLKConfig+0xe14>)
 8005562:	4313      	orrs	r3, r2
 8005564:	64cb      	str	r3, [r1, #76]	; 0x4c
 8005566:	e001      	b.n	800556c <HAL_RCCEx_PeriphCLKConfig+0xcb0>
    }
    else
    {
      /* set overall return value */
      status = ret;
 8005568:	7dfb      	ldrb	r3, [r7, #23]
 800556a:	75bb      	strb	r3, [r7, #22]
    }
  }

#if defined(LTDC)
  /*-------------------------------------- LTDC Configuration -----------------------------------*/
  if(((PeriphClkInit->PeriphClockSelection) & RCC_PERIPHCLK_LTDC) == RCC_PERIPHCLK_LTDC)
 800556c:	687b      	ldr	r3, [r7, #4]
 800556e:	681b      	ldr	r3, [r3, #0]
 8005570:	f003 5300 	and.w	r3, r3, #536870912	; 0x20000000
 8005574:	2b00      	cmp	r3, #0
 8005576:	d00a      	beq.n	800558e <HAL_RCCEx_PeriphCLKConfig+0xcd2>
  {
    if(RCCEx_PLL3_Config(&(PeriphClkInit->PLL3),DIVIDER_R_UPDATE)!=HAL_OK)
 8005578:	687b      	ldr	r3, [r7, #4]
 800557a:	3324      	adds	r3, #36	; 0x24
 800557c:	2102      	movs	r1, #2
 800557e:	4618      	mov	r0, r3
 8005580:	f000 f95a 	bl	8005838 <RCCEx_PLL3_Config>
 8005584:	4603      	mov	r3, r0
 8005586:	2b00      	cmp	r3, #0
 8005588:	d001      	beq.n	800558e <HAL_RCCEx_PeriphCLKConfig+0xcd2>
    {
      status=HAL_ERROR;
 800558a:	2301      	movs	r3, #1
 800558c:	75bb      	strb	r3, [r7, #22]
    }
  }
#endif /* LTDC */

  /*------------------------------ RNG Configuration -------------------------*/
  if(((PeriphClkInit->PeriphClockSelection) & RCC_PERIPHCLK_RNG) == RCC_PERIPHCLK_RNG)
 800558e:	687b      	ldr	r3, [r7, #4]
 8005590:	681b      	ldr	r3, [r3, #0]
 8005592:	f403 3300 	and.w	r3, r3, #131072	; 0x20000
 8005596:	2b00      	cmp	r3, #0
 8005598:	d032      	beq.n	8005600 <HAL_RCCEx_PeriphCLKConfig+0xd44>
  {

    switch(PeriphClkInit->RngClockSelection)
 800559a:	687b      	ldr	r3, [r7, #4]
 800559c:	f8d3 3084 	ldr.w	r3, [r3, #132]	; 0x84
 80055a0:	f5b3 7f40 	cmp.w	r3, #768	; 0x300
 80055a4:	d017      	beq.n	80055d6 <HAL_RCCEx_PeriphCLKConfig+0xd1a>
 80055a6:	f5b3 7f40 	cmp.w	r3, #768	; 0x300
 80055aa:	d811      	bhi.n	80055d0 <HAL_RCCEx_PeriphCLKConfig+0xd14>
 80055ac:	f5b3 7f00 	cmp.w	r3, #512	; 0x200
 80055b0:	d013      	beq.n	80055da <HAL_RCCEx_PeriphCLKConfig+0xd1e>
 80055b2:	f5b3 7f00 	cmp.w	r3, #512	; 0x200
 80055b6:	d80b      	bhi.n	80055d0 <HAL_RCCEx_PeriphCLKConfig+0xd14>
 80055b8:	2b00      	cmp	r3, #0
 80055ba:	d010      	beq.n	80055de <HAL_RCCEx_PeriphCLKConfig+0xd22>
 80055bc:	f5b3 7f80 	cmp.w	r3, #256	; 0x100
 80055c0:	d106      	bne.n	80055d0 <HAL_RCCEx_PeriphCLKConfig+0xd14>
    {
    case RCC_RNGCLKSOURCE_PLL:     /* PLL is used as clock source for RNG*/
      /* Enable RNG Clock output generated form System RNG . */
      __HAL_RCC_PLLCLKOUT_ENABLE(RCC_PLL1_DIVQ);
 80055c2:	4b43      	ldr	r3, [pc, #268]	; (80056d0 <HAL_RCCEx_PeriphCLKConfig+0xe14>)
 80055c4:	6adb      	ldr	r3, [r3, #44]	; 0x2c
 80055c6:	4a42      	ldr	r2, [pc, #264]	; (80056d0 <HAL_RCCEx_PeriphCLKConfig+0xe14>)
 80055c8:	f443 3300 	orr.w	r3, r3, #131072	; 0x20000
 80055cc:	62d3      	str	r3, [r2, #44]	; 0x2c

      /* RNG clock source configuration done later after clock selection check */
      break;
 80055ce:	e007      	b.n	80055e0 <HAL_RCCEx_PeriphCLKConfig+0xd24>
      /* HSI48 oscillator is used as source of RNG clock */
      /* RNG clock source configuration done later after clock selection check */
      break;

    default:
      ret = HAL_ERROR;
 80055d0:	2301      	movs	r3, #1
 80055d2:	75fb      	strb	r3, [r7, #23]
      break;
 80055d4:	e004      	b.n	80055e0 <HAL_RCCEx_PeriphCLKConfig+0xd24>
      break;
 80055d6:	bf00      	nop
 80055d8:	e002      	b.n	80055e0 <HAL_RCCEx_PeriphCLKConfig+0xd24>
      break;
 80055da:	bf00      	nop
 80055dc:	e000      	b.n	80055e0 <HAL_RCCEx_PeriphCLKConfig+0xd24>
      break;
 80055de:	bf00      	nop
    }

    if(ret == HAL_OK)
 80055e0:	7dfb      	ldrb	r3, [r7, #23]
 80055e2:	2b00      	cmp	r3, #0
 80055e4:	d10a      	bne.n	80055fc <HAL_RCCEx_PeriphCLKConfig+0xd40>
    {
      /* Set the source of RNG clock*/
      __HAL_RCC_RNG_CONFIG(PeriphClkInit->RngClockSelection);
 80055e6:	4b3a      	ldr	r3, [pc, #232]	; (80056d0 <HAL_RCCEx_PeriphCLKConfig+0xe14>)
 80055e8:	6d5b      	ldr	r3, [r3, #84]	; 0x54
 80055ea:	f423 7240 	bic.w	r2, r3, #768	; 0x300
 80055ee:	687b      	ldr	r3, [r7, #4]
 80055f0:	f8d3 3084 	ldr.w	r3, [r3, #132]	; 0x84
 80055f4:	4936      	ldr	r1, [pc, #216]	; (80056d0 <HAL_RCCEx_PeriphCLKConfig+0xe14>)
 80055f6:	4313      	orrs	r3, r2
 80055f8:	654b      	str	r3, [r1, #84]	; 0x54
 80055fa:	e001      	b.n	8005600 <HAL_RCCEx_PeriphCLKConfig+0xd44>
    }
    else
    {
      /* set overall return value */
      status = ret;
 80055fc:	7dfb      	ldrb	r3, [r7, #23]
 80055fe:	75bb      	strb	r3, [r7, #22]
    }

  }

  /*------------------------------ SWPMI1 Configuration ------------------------*/
  if(((PeriphClkInit->PeriphClockSelection) & RCC_PERIPHCLK_SWPMI1) == RCC_PERIPHCLK_SWPMI1)
 8005600:	687b      	ldr	r3, [r7, #4]
 8005602:	681b      	ldr	r3, [r3, #0]
 8005604:	f403 1380 	and.w	r3, r3, #1048576	; 0x100000
 8005608:	2b00      	cmp	r3, #0
 800560a:	d008      	beq.n	800561e <HAL_RCCEx_PeriphCLKConfig+0xd62>
  {
    /* Check the parameters */
    assert_param(IS_RCC_SWPMI1CLKSOURCE(PeriphClkInit->Swpmi1ClockSelection));

    /* Configure the SWPMI1 interface clock source */
    __HAL_RCC_SWPMI1_CONFIG(PeriphClkInit->Swpmi1ClockSelection);
 800560c:	4b30      	ldr	r3, [pc, #192]	; (80056d0 <HAL_RCCEx_PeriphCLKConfig+0xe14>)
 800560e:	6d1b      	ldr	r3, [r3, #80]	; 0x50
 8005610:	f023 4200 	bic.w	r2, r3, #2147483648	; 0x80000000
 8005614:	687b      	ldr	r3, [r7, #4]
 8005616:	6f9b      	ldr	r3, [r3, #120]	; 0x78
 8005618:	492d      	ldr	r1, [pc, #180]	; (80056d0 <HAL_RCCEx_PeriphCLKConfig+0xe14>)
 800561a:	4313      	orrs	r3, r2
 800561c:	650b      	str	r3, [r1, #80]	; 0x50
    /* Configure the HRTIM1 clock source */
    __HAL_RCC_HRTIM1_CONFIG(PeriphClkInit->Hrtim1ClockSelection);
  }
#endif  /*HRTIM1*/
  /*------------------------------ DFSDM1 Configuration ------------------------*/
  if(((PeriphClkInit->PeriphClockSelection) & RCC_PERIPHCLK_DFSDM1) == RCC_PERIPHCLK_DFSDM1)
 800561e:	687b      	ldr	r3, [r7, #4]
 8005620:	681b      	ldr	r3, [r3, #0]
 8005622:	f403 1300 	and.w	r3, r3, #2097152	; 0x200000
 8005626:	2b00      	cmp	r3, #0
 8005628:	d008      	beq.n	800563c <HAL_RCCEx_PeriphCLKConfig+0xd80>
  {
    /* Check the parameters */
    assert_param(IS_RCC_DFSDM1CLKSOURCE(PeriphClkInit->Dfsdm1ClockSelection));

    /* Configure the DFSDM1 interface clock source */
    __HAL_RCC_DFSDM1_CONFIG(PeriphClkInit->Dfsdm1ClockSelection);
 800562a:	4b29      	ldr	r3, [pc, #164]	; (80056d0 <HAL_RCCEx_PeriphCLKConfig+0xe14>)
 800562c:	6d1b      	ldr	r3, [r3, #80]	; 0x50
 800562e:	f023 7280 	bic.w	r2, r3, #16777216	; 0x1000000
 8005632:	687b      	ldr	r3, [r7, #4]
 8005634:	6edb      	ldr	r3, [r3, #108]	; 0x6c
 8005636:	4926      	ldr	r1, [pc, #152]	; (80056d0 <HAL_RCCEx_PeriphCLKConfig+0xe14>)
 8005638:	4313      	orrs	r3, r2
 800563a:	650b      	str	r3, [r1, #80]	; 0x50
  }

#if defined(DFSDM2_BASE)
  /*------------------------------ DFSDM2 Configuration ------------------------*/
  if(((PeriphClkInit->PeriphClockSelection) & RCC_PERIPHCLK_DFSDM2) == RCC_PERIPHCLK_DFSDM2)
 800563c:	687b      	ldr	r3, [r7, #4]
 800563e:	681b      	ldr	r3, [r3, #0]
 8005640:	f403 6300 	and.w	r3, r3, #2048	; 0x800
 8005644:	2b00      	cmp	r3, #0
 8005646:	d008      	beq.n	800565a <HAL_RCCEx_PeriphCLKConfig+0xd9e>
  {
    /* Check the parameters */
    assert_param(IS_RCC_DFSDM2CLKSOURCE(PeriphClkInit->Dfsdm2ClockSelection));

    /* Configure the DFSDM2 interface clock source */
    __HAL_RCC_DFSDM2_CONFIG(PeriphClkInit->Dfsdm2ClockSelection);
 8005648:	4b21      	ldr	r3, [pc, #132]	; (80056d0 <HAL_RCCEx_PeriphCLKConfig+0xe14>)
 800564a:	6d9b      	ldr	r3, [r3, #88]	; 0x58
 800564c:	f023 6200 	bic.w	r2, r3, #134217728	; 0x8000000
 8005650:	687b      	ldr	r3, [r7, #4]
 8005652:	6f1b      	ldr	r3, [r3, #112]	; 0x70
 8005654:	491e      	ldr	r1, [pc, #120]	; (80056d0 <HAL_RCCEx_PeriphCLKConfig+0xe14>)
 8005656:	4313      	orrs	r3, r2
 8005658:	658b      	str	r3, [r1, #88]	; 0x58
  }
#endif  /* DFSDM2 */

  /*------------------------------------ TIM configuration --------------------------------------*/
  if(((PeriphClkInit->PeriphClockSelection) & RCC_PERIPHCLK_TIM) == RCC_PERIPHCLK_TIM)
 800565a:	687b      	ldr	r3, [r7, #4]
 800565c:	681b      	ldr	r3, [r3, #0]
 800565e:	f003 4380 	and.w	r3, r3, #1073741824	; 0x40000000
 8005662:	2b00      	cmp	r3, #0
 8005664:	d00d      	beq.n	8005682 <HAL_RCCEx_PeriphCLKConfig+0xdc6>
  {
    /* Check the parameters */
    assert_param(IS_RCC_TIMPRES(PeriphClkInit->TIMPresSelection));

    /* Configure Timer Prescaler */
    __HAL_RCC_TIMCLKPRESCALER(PeriphClkInit->TIMPresSelection);
 8005666:	4b1a      	ldr	r3, [pc, #104]	; (80056d0 <HAL_RCCEx_PeriphCLKConfig+0xe14>)
 8005668:	691b      	ldr	r3, [r3, #16]
 800566a:	4a19      	ldr	r2, [pc, #100]	; (80056d0 <HAL_RCCEx_PeriphCLKConfig+0xe14>)
 800566c:	f423 4300 	bic.w	r3, r3, #32768	; 0x8000
 8005670:	6113      	str	r3, [r2, #16]
 8005672:	4b17      	ldr	r3, [pc, #92]	; (80056d0 <HAL_RCCEx_PeriphCLKConfig+0xe14>)
 8005674:	691a      	ldr	r2, [r3, #16]
 8005676:	687b      	ldr	r3, [r7, #4]
 8005678:	f8d3 30b4 	ldr.w	r3, [r3, #180]	; 0xb4
 800567c:	4914      	ldr	r1, [pc, #80]	; (80056d0 <HAL_RCCEx_PeriphCLKConfig+0xe14>)
 800567e:	4313      	orrs	r3, r2
 8005680:	610b      	str	r3, [r1, #16]
  }

  /*------------------------------------ CKPER configuration --------------------------------------*/
  if(((PeriphClkInit->PeriphClockSelection) & RCC_PERIPHCLK_CKPER) == RCC_PERIPHCLK_CKPER)
 8005682:	687b      	ldr	r3, [r7, #4]
 8005684:	681b      	ldr	r3, [r3, #0]
 8005686:	2b00      	cmp	r3, #0
 8005688:	da08      	bge.n	800569c <HAL_RCCEx_PeriphCLKConfig+0xde0>
  {
    /* Check the parameters */
    assert_param(IS_RCC_CLKPSOURCE(PeriphClkInit->CkperClockSelection));

    /* Configure the CKPER clock source */
    __HAL_RCC_CLKP_CONFIG(PeriphClkInit->CkperClockSelection);
 800568a:	4b11      	ldr	r3, [pc, #68]	; (80056d0 <HAL_RCCEx_PeriphCLKConfig+0xe14>)
 800568c:	6cdb      	ldr	r3, [r3, #76]	; 0x4c
 800568e:	f023 5240 	bic.w	r2, r3, #805306368	; 0x30000000
 8005692:	687b      	ldr	r3, [r7, #4]
 8005694:	6d1b      	ldr	r3, [r3, #80]	; 0x50
 8005696:	490e      	ldr	r1, [pc, #56]	; (80056d0 <HAL_RCCEx_PeriphCLKConfig+0xe14>)
 8005698:	4313      	orrs	r3, r2
 800569a:	64cb      	str	r3, [r1, #76]	; 0x4c
  }

  /*------------------------------ CEC Configuration ------------------------*/
  if(((PeriphClkInit->PeriphClockSelection) & RCC_PERIPHCLK_CEC) == RCC_PERIPHCLK_CEC)
 800569c:	687b      	ldr	r3, [r7, #4]
 800569e:	681b      	ldr	r3, [r3, #0]
 80056a0:	f403 0300 	and.w	r3, r3, #8388608	; 0x800000
 80056a4:	2b00      	cmp	r3, #0
 80056a6:	d009      	beq.n	80056bc <HAL_RCCEx_PeriphCLKConfig+0xe00>
  {
    /* Check the parameters */
    assert_param(IS_RCC_CECCLKSOURCE(PeriphClkInit->CecClockSelection));

    /* Configure the CEC interface clock source */
    __HAL_RCC_CEC_CONFIG(PeriphClkInit->CecClockSelection);
 80056a8:	4b09      	ldr	r3, [pc, #36]	; (80056d0 <HAL_RCCEx_PeriphCLKConfig+0xe14>)
 80056aa:	6d5b      	ldr	r3, [r3, #84]	; 0x54
 80056ac:	f423 0240 	bic.w	r2, r3, #12582912	; 0xc00000
 80056b0:	687b      	ldr	r3, [r7, #4]
 80056b2:	f8d3 3090 	ldr.w	r3, [r3, #144]	; 0x90
 80056b6:	4906      	ldr	r1, [pc, #24]	; (80056d0 <HAL_RCCEx_PeriphCLKConfig+0xe14>)
 80056b8:	4313      	orrs	r3, r2
 80056ba:	654b      	str	r3, [r1, #84]	; 0x54
  }

  if (status == HAL_OK)
 80056bc:	7dbb      	ldrb	r3, [r7, #22]
 80056be:	2b00      	cmp	r3, #0
 80056c0:	d101      	bne.n	80056c6 <HAL_RCCEx_PeriphCLKConfig+0xe0a>
  {
    return HAL_OK;
 80056c2:	2300      	movs	r3, #0
 80056c4:	e000      	b.n	80056c8 <HAL_RCCEx_PeriphCLKConfig+0xe0c>
  }
  return HAL_ERROR;
 80056c6:	2301      	movs	r3, #1
}
 80056c8:	4618      	mov	r0, r3
 80056ca:	3718      	adds	r7, #24
 80056cc:	46bd      	mov	sp, r7
 80056ce:	bd80      	pop	{r7, pc}
 80056d0:	58024400 	.word	0x58024400

080056d4 <RCCEx_PLL2_Config>:
  * @note   PLL2 is temporary disabled to apply new parameters
  *
  * @retval HAL status
  */
static HAL_StatusTypeDef RCCEx_PLL2_Config(RCC_PLL2InitTypeDef *pll2, uint32_t Divider)
{
 80056d4:	b580      	push	{r7, lr}
 80056d6:	b084      	sub	sp, #16
 80056d8:	af00      	add	r7, sp, #0
 80056da:	6078      	str	r0, [r7, #4]
 80056dc:	6039      	str	r1, [r7, #0]

  uint32_t tickstart;
  HAL_StatusTypeDef status = HAL_OK;
 80056de:	2300      	movs	r3, #0
 80056e0:	73fb      	strb	r3, [r7, #15]
  assert_param(IS_RCC_PLL2RGE_VALUE(pll2->PLL2RGE));
  assert_param(IS_RCC_PLL2VCO_VALUE(pll2->PLL2VCOSEL));
  assert_param(IS_RCC_PLLFRACN_VALUE(pll2->PLL2FRACN));

  /* Check that PLL2 OSC clock source is already set */
  if(__HAL_RCC_GET_PLL_OSCSOURCE() == RCC_PLLSOURCE_NONE)
 80056e2:	4b53      	ldr	r3, [pc, #332]	; (8005830 <RCCEx_PLL2_Config+0x15c>)
 80056e4:	6a9b      	ldr	r3, [r3, #40]	; 0x28
 80056e6:	f003 0303 	and.w	r3, r3, #3
 80056ea:	2b03      	cmp	r3, #3
 80056ec:	d101      	bne.n	80056f2 <RCCEx_PLL2_Config+0x1e>
  {
    return HAL_ERROR;
 80056ee:	2301      	movs	r3, #1
 80056f0:	e099      	b.n	8005826 <RCCEx_PLL2_Config+0x152>


  else
  {
    /* Disable  PLL2. */
    __HAL_RCC_PLL2_DISABLE();
 80056f2:	4b4f      	ldr	r3, [pc, #316]	; (8005830 <RCCEx_PLL2_Config+0x15c>)
 80056f4:	681b      	ldr	r3, [r3, #0]
 80056f6:	4a4e      	ldr	r2, [pc, #312]	; (8005830 <RCCEx_PLL2_Config+0x15c>)
 80056f8:	f023 6380 	bic.w	r3, r3, #67108864	; 0x4000000
 80056fc:	6013      	str	r3, [r2, #0]

    /* Get Start Tick*/
    tickstart = HAL_GetTick();
 80056fe:	f7fc f8eb 	bl	80018d8 <HAL_GetTick>
 8005702:	60b8      	str	r0, [r7, #8]

    /* Wait till PLL is disabled */
    while(__HAL_RCC_GET_FLAG(RCC_FLAG_PLL2RDY) != 0U)
 8005704:	e008      	b.n	8005718 <RCCEx_PLL2_Config+0x44>
    {
      if( (HAL_GetTick() - tickstart ) > PLL2_TIMEOUT_VALUE)
 8005706:	f7fc f8e7 	bl	80018d8 <HAL_GetTick>
 800570a:	4602      	mov	r2, r0
 800570c:	68bb      	ldr	r3, [r7, #8]
 800570e:	1ad3      	subs	r3, r2, r3
 8005710:	2b02      	cmp	r3, #2
 8005712:	d901      	bls.n	8005718 <RCCEx_PLL2_Config+0x44>
      {
        return HAL_TIMEOUT;
 8005714:	2303      	movs	r3, #3
 8005716:	e086      	b.n	8005826 <RCCEx_PLL2_Config+0x152>
    while(__HAL_RCC_GET_FLAG(RCC_FLAG_PLL2RDY) != 0U)
 8005718:	4b45      	ldr	r3, [pc, #276]	; (8005830 <RCCEx_PLL2_Config+0x15c>)
 800571a:	681b      	ldr	r3, [r3, #0]
 800571c:	f003 6300 	and.w	r3, r3, #134217728	; 0x8000000
 8005720:	2b00      	cmp	r3, #0
 8005722:	d1f0      	bne.n	8005706 <RCCEx_PLL2_Config+0x32>
      }
    }

    /* Configure PLL2 multiplication and division factors. */
    __HAL_RCC_PLL2_CONFIG(pll2->PLL2M,
 8005724:	4b42      	ldr	r3, [pc, #264]	; (8005830 <RCCEx_PLL2_Config+0x15c>)
 8005726:	6a9b      	ldr	r3, [r3, #40]	; 0x28
 8005728:	f423 327c 	bic.w	r2, r3, #258048	; 0x3f000
 800572c:	687b      	ldr	r3, [r7, #4]
 800572e:	681b      	ldr	r3, [r3, #0]
 8005730:	031b      	lsls	r3, r3, #12
 8005732:	493f      	ldr	r1, [pc, #252]	; (8005830 <RCCEx_PLL2_Config+0x15c>)
 8005734:	4313      	orrs	r3, r2
 8005736:	628b      	str	r3, [r1, #40]	; 0x28
 8005738:	687b      	ldr	r3, [r7, #4]
 800573a:	685b      	ldr	r3, [r3, #4]
 800573c:	3b01      	subs	r3, #1
 800573e:	f3c3 0208 	ubfx	r2, r3, #0, #9
 8005742:	687b      	ldr	r3, [r7, #4]
 8005744:	689b      	ldr	r3, [r3, #8]
 8005746:	3b01      	subs	r3, #1
 8005748:	025b      	lsls	r3, r3, #9
 800574a:	b29b      	uxth	r3, r3
 800574c:	431a      	orrs	r2, r3
 800574e:	687b      	ldr	r3, [r7, #4]
 8005750:	68db      	ldr	r3, [r3, #12]
 8005752:	3b01      	subs	r3, #1
 8005754:	041b      	lsls	r3, r3, #16
 8005756:	f403 03fe 	and.w	r3, r3, #8323072	; 0x7f0000
 800575a:	431a      	orrs	r2, r3
 800575c:	687b      	ldr	r3, [r7, #4]
 800575e:	691b      	ldr	r3, [r3, #16]
 8005760:	3b01      	subs	r3, #1
 8005762:	061b      	lsls	r3, r3, #24
 8005764:	f003 43fe 	and.w	r3, r3, #2130706432	; 0x7f000000
 8005768:	4931      	ldr	r1, [pc, #196]	; (8005830 <RCCEx_PLL2_Config+0x15c>)
 800576a:	4313      	orrs	r3, r2
 800576c:	638b      	str	r3, [r1, #56]	; 0x38
                          pll2->PLL2P,
                          pll2->PLL2Q,
                          pll2->PLL2R);

    /* Select PLL2 input reference frequency range: VCI */
    __HAL_RCC_PLL2_VCIRANGE(pll2->PLL2RGE) ;
 800576e:	4b30      	ldr	r3, [pc, #192]	; (8005830 <RCCEx_PLL2_Config+0x15c>)
 8005770:	6adb      	ldr	r3, [r3, #44]	; 0x2c
 8005772:	f023 02c0 	bic.w	r2, r3, #192	; 0xc0
 8005776:	687b      	ldr	r3, [r7, #4]
 8005778:	695b      	ldr	r3, [r3, #20]
 800577a:	492d      	ldr	r1, [pc, #180]	; (8005830 <RCCEx_PLL2_Config+0x15c>)
 800577c:	4313      	orrs	r3, r2
 800577e:	62cb      	str	r3, [r1, #44]	; 0x2c

    /* Select PLL2 output frequency range : VCO */
    __HAL_RCC_PLL2_VCORANGE(pll2->PLL2VCOSEL) ;
 8005780:	4b2b      	ldr	r3, [pc, #172]	; (8005830 <RCCEx_PLL2_Config+0x15c>)
 8005782:	6adb      	ldr	r3, [r3, #44]	; 0x2c
 8005784:	f023 0220 	bic.w	r2, r3, #32
 8005788:	687b      	ldr	r3, [r7, #4]
 800578a:	699b      	ldr	r3, [r3, #24]
 800578c:	4928      	ldr	r1, [pc, #160]	; (8005830 <RCCEx_PLL2_Config+0x15c>)
 800578e:	4313      	orrs	r3, r2
 8005790:	62cb      	str	r3, [r1, #44]	; 0x2c

    /* Disable PLL2FRACN . */
    __HAL_RCC_PLL2FRACN_DISABLE();
 8005792:	4b27      	ldr	r3, [pc, #156]	; (8005830 <RCCEx_PLL2_Config+0x15c>)
 8005794:	6adb      	ldr	r3, [r3, #44]	; 0x2c
 8005796:	4a26      	ldr	r2, [pc, #152]	; (8005830 <RCCEx_PLL2_Config+0x15c>)
 8005798:	f023 0310 	bic.w	r3, r3, #16
 800579c:	62d3      	str	r3, [r2, #44]	; 0x2c

    /* Configures PLL2 clock Fractional Part Of The Multiplication Factor */
    __HAL_RCC_PLL2FRACN_CONFIG(pll2->PLL2FRACN);
 800579e:	4b24      	ldr	r3, [pc, #144]	; (8005830 <RCCEx_PLL2_Config+0x15c>)
 80057a0:	6bda      	ldr	r2, [r3, #60]	; 0x3c
 80057a2:	4b24      	ldr	r3, [pc, #144]	; (8005834 <RCCEx_PLL2_Config+0x160>)
 80057a4:	4013      	ands	r3, r2
 80057a6:	687a      	ldr	r2, [r7, #4]
 80057a8:	69d2      	ldr	r2, [r2, #28]
 80057aa:	00d2      	lsls	r2, r2, #3
 80057ac:	4920      	ldr	r1, [pc, #128]	; (8005830 <RCCEx_PLL2_Config+0x15c>)
 80057ae:	4313      	orrs	r3, r2
 80057b0:	63cb      	str	r3, [r1, #60]	; 0x3c

    /* Enable PLL2FRACN . */
    __HAL_RCC_PLL2FRACN_ENABLE();
 80057b2:	4b1f      	ldr	r3, [pc, #124]	; (8005830 <RCCEx_PLL2_Config+0x15c>)
 80057b4:	6adb      	ldr	r3, [r3, #44]	; 0x2c
 80057b6:	4a1e      	ldr	r2, [pc, #120]	; (8005830 <RCCEx_PLL2_Config+0x15c>)
 80057b8:	f043 0310 	orr.w	r3, r3, #16
 80057bc:	62d3      	str	r3, [r2, #44]	; 0x2c

    /* Enable the PLL2 clock output */
    if(Divider == DIVIDER_P_UPDATE)
 80057be:	683b      	ldr	r3, [r7, #0]
 80057c0:	2b00      	cmp	r3, #0
 80057c2:	d106      	bne.n	80057d2 <RCCEx_PLL2_Config+0xfe>
    {
      __HAL_RCC_PLL2CLKOUT_ENABLE(RCC_PLL2_DIVP);
 80057c4:	4b1a      	ldr	r3, [pc, #104]	; (8005830 <RCCEx_PLL2_Config+0x15c>)
 80057c6:	6adb      	ldr	r3, [r3, #44]	; 0x2c
 80057c8:	4a19      	ldr	r2, [pc, #100]	; (8005830 <RCCEx_PLL2_Config+0x15c>)
 80057ca:	f443 2300 	orr.w	r3, r3, #524288	; 0x80000
 80057ce:	62d3      	str	r3, [r2, #44]	; 0x2c
 80057d0:	e00f      	b.n	80057f2 <RCCEx_PLL2_Config+0x11e>
    }
    else if(Divider == DIVIDER_Q_UPDATE)
 80057d2:	683b      	ldr	r3, [r7, #0]
 80057d4:	2b01      	cmp	r3, #1
 80057d6:	d106      	bne.n	80057e6 <RCCEx_PLL2_Config+0x112>
    {
      __HAL_RCC_PLL2CLKOUT_ENABLE(RCC_PLL2_DIVQ);
 80057d8:	4b15      	ldr	r3, [pc, #84]	; (8005830 <RCCEx_PLL2_Config+0x15c>)
 80057da:	6adb      	ldr	r3, [r3, #44]	; 0x2c
 80057dc:	4a14      	ldr	r2, [pc, #80]	; (8005830 <RCCEx_PLL2_Config+0x15c>)
 80057de:	f443 1380 	orr.w	r3, r3, #1048576	; 0x100000
 80057e2:	62d3      	str	r3, [r2, #44]	; 0x2c
 80057e4:	e005      	b.n	80057f2 <RCCEx_PLL2_Config+0x11e>
    }
    else
    {
      __HAL_RCC_PLL2CLKOUT_ENABLE(RCC_PLL2_DIVR);
 80057e6:	4b12      	ldr	r3, [pc, #72]	; (8005830 <RCCEx_PLL2_Config+0x15c>)
 80057e8:	6adb      	ldr	r3, [r3, #44]	; 0x2c
 80057ea:	4a11      	ldr	r2, [pc, #68]	; (8005830 <RCCEx_PLL2_Config+0x15c>)
 80057ec:	f443 1300 	orr.w	r3, r3, #2097152	; 0x200000
 80057f0:	62d3      	str	r3, [r2, #44]	; 0x2c
    }

    /* Enable  PLL2. */
    __HAL_RCC_PLL2_ENABLE();
 80057f2:	4b0f      	ldr	r3, [pc, #60]	; (8005830 <RCCEx_PLL2_Config+0x15c>)
 80057f4:	681b      	ldr	r3, [r3, #0]
 80057f6:	4a0e      	ldr	r2, [pc, #56]	; (8005830 <RCCEx_PLL2_Config+0x15c>)
 80057f8:	f043 6380 	orr.w	r3, r3, #67108864	; 0x4000000
 80057fc:	6013      	str	r3, [r2, #0]

    /* Get Start Tick*/
    tickstart = HAL_GetTick();
 80057fe:	f7fc f86b 	bl	80018d8 <HAL_GetTick>
 8005802:	60b8      	str	r0, [r7, #8]

    /* Wait till PLL2 is ready */
    while(__HAL_RCC_GET_FLAG(RCC_FLAG_PLL2RDY) == 0U)
 8005804:	e008      	b.n	8005818 <RCCEx_PLL2_Config+0x144>
    {
      if( (HAL_GetTick() - tickstart ) > PLL2_TIMEOUT_VALUE)
 8005806:	f7fc f867 	bl	80018d8 <HAL_GetTick>
 800580a:	4602      	mov	r2, r0
 800580c:	68bb      	ldr	r3, [r7, #8]
 800580e:	1ad3      	subs	r3, r2, r3
 8005810:	2b02      	cmp	r3, #2
 8005812:	d901      	bls.n	8005818 <RCCEx_PLL2_Config+0x144>
      {
        return HAL_TIMEOUT;
 8005814:	2303      	movs	r3, #3
 8005816:	e006      	b.n	8005826 <RCCEx_PLL2_Config+0x152>
    while(__HAL_RCC_GET_FLAG(RCC_FLAG_PLL2RDY) == 0U)
 8005818:	4b05      	ldr	r3, [pc, #20]	; (8005830 <RCCEx_PLL2_Config+0x15c>)
 800581a:	681b      	ldr	r3, [r3, #0]
 800581c:	f003 6300 	and.w	r3, r3, #134217728	; 0x8000000
 8005820:	2b00      	cmp	r3, #0
 8005822:	d0f0      	beq.n	8005806 <RCCEx_PLL2_Config+0x132>
    }

  }


  return status;
 8005824:	7bfb      	ldrb	r3, [r7, #15]
}
 8005826:	4618      	mov	r0, r3
 8005828:	3710      	adds	r7, #16
 800582a:	46bd      	mov	sp, r7
 800582c:	bd80      	pop	{r7, pc}
 800582e:	bf00      	nop
 8005830:	58024400 	.word	0x58024400
 8005834:	ffff0007 	.word	0xffff0007

08005838 <RCCEx_PLL3_Config>:
  * @note   PLL3 is temporary disabled to apply new parameters
  *
  * @retval HAL status
  */
static HAL_StatusTypeDef RCCEx_PLL3_Config(RCC_PLL3InitTypeDef *pll3, uint32_t Divider)
{
 8005838:	b580      	push	{r7, lr}
 800583a:	b084      	sub	sp, #16
 800583c:	af00      	add	r7, sp, #0
 800583e:	6078      	str	r0, [r7, #4]
 8005840:	6039      	str	r1, [r7, #0]
  uint32_t tickstart;
  HAL_StatusTypeDef status = HAL_OK;
 8005842:	2300      	movs	r3, #0
 8005844:	73fb      	strb	r3, [r7, #15]
  assert_param(IS_RCC_PLL3RGE_VALUE(pll3->PLL3RGE));
  assert_param(IS_RCC_PLL3VCO_VALUE(pll3->PLL3VCOSEL));
  assert_param(IS_RCC_PLLFRACN_VALUE(pll3->PLL3FRACN));

  /* Check that PLL3 OSC clock source is already set */
  if(__HAL_RCC_GET_PLL_OSCSOURCE() == RCC_PLLSOURCE_NONE)
 8005846:	4b53      	ldr	r3, [pc, #332]	; (8005994 <RCCEx_PLL3_Config+0x15c>)
 8005848:	6a9b      	ldr	r3, [r3, #40]	; 0x28
 800584a:	f003 0303 	and.w	r3, r3, #3
 800584e:	2b03      	cmp	r3, #3
 8005850:	d101      	bne.n	8005856 <RCCEx_PLL3_Config+0x1e>
  {
    return HAL_ERROR;
 8005852:	2301      	movs	r3, #1
 8005854:	e099      	b.n	800598a <RCCEx_PLL3_Config+0x152>


  else
  {
    /* Disable  PLL3. */
    __HAL_RCC_PLL3_DISABLE();
 8005856:	4b4f      	ldr	r3, [pc, #316]	; (8005994 <RCCEx_PLL3_Config+0x15c>)
 8005858:	681b      	ldr	r3, [r3, #0]
 800585a:	4a4e      	ldr	r2, [pc, #312]	; (8005994 <RCCEx_PLL3_Config+0x15c>)
 800585c:	f023 5380 	bic.w	r3, r3, #268435456	; 0x10000000
 8005860:	6013      	str	r3, [r2, #0]

    /* Get Start Tick*/
    tickstart = HAL_GetTick();
 8005862:	f7fc f839 	bl	80018d8 <HAL_GetTick>
 8005866:	60b8      	str	r0, [r7, #8]
    /* Wait till PLL3 is ready */
    while(__HAL_RCC_GET_FLAG(RCC_FLAG_PLL3RDY) != 0U)
 8005868:	e008      	b.n	800587c <RCCEx_PLL3_Config+0x44>
    {
      if( (HAL_GetTick() - tickstart ) > PLL3_TIMEOUT_VALUE)
 800586a:	f7fc f835 	bl	80018d8 <HAL_GetTick>
 800586e:	4602      	mov	r2, r0
 8005870:	68bb      	ldr	r3, [r7, #8]
 8005872:	1ad3      	subs	r3, r2, r3
 8005874:	2b02      	cmp	r3, #2
 8005876:	d901      	bls.n	800587c <RCCEx_PLL3_Config+0x44>
      {
        return HAL_TIMEOUT;
 8005878:	2303      	movs	r3, #3
 800587a:	e086      	b.n	800598a <RCCEx_PLL3_Config+0x152>
    while(__HAL_RCC_GET_FLAG(RCC_FLAG_PLL3RDY) != 0U)
 800587c:	4b45      	ldr	r3, [pc, #276]	; (8005994 <RCCEx_PLL3_Config+0x15c>)
 800587e:	681b      	ldr	r3, [r3, #0]
 8005880:	f003 5300 	and.w	r3, r3, #536870912	; 0x20000000
 8005884:	2b00      	cmp	r3, #0
 8005886:	d1f0      	bne.n	800586a <RCCEx_PLL3_Config+0x32>
      }
    }

    /* Configure the PLL3  multiplication and division factors. */
    __HAL_RCC_PLL3_CONFIG(pll3->PLL3M,
 8005888:	4b42      	ldr	r3, [pc, #264]	; (8005994 <RCCEx_PLL3_Config+0x15c>)
 800588a:	6a9b      	ldr	r3, [r3, #40]	; 0x28
 800588c:	f023 727c 	bic.w	r2, r3, #66060288	; 0x3f00000
 8005890:	687b      	ldr	r3, [r7, #4]
 8005892:	681b      	ldr	r3, [r3, #0]
 8005894:	051b      	lsls	r3, r3, #20
 8005896:	493f      	ldr	r1, [pc, #252]	; (8005994 <RCCEx_PLL3_Config+0x15c>)
 8005898:	4313      	orrs	r3, r2
 800589a:	628b      	str	r3, [r1, #40]	; 0x28
 800589c:	687b      	ldr	r3, [r7, #4]
 800589e:	685b      	ldr	r3, [r3, #4]
 80058a0:	3b01      	subs	r3, #1
 80058a2:	f3c3 0208 	ubfx	r2, r3, #0, #9
 80058a6:	687b      	ldr	r3, [r7, #4]
 80058a8:	689b      	ldr	r3, [r3, #8]
 80058aa:	3b01      	subs	r3, #1
 80058ac:	025b      	lsls	r3, r3, #9
 80058ae:	b29b      	uxth	r3, r3
 80058b0:	431a      	orrs	r2, r3
 80058b2:	687b      	ldr	r3, [r7, #4]
 80058b4:	68db      	ldr	r3, [r3, #12]
 80058b6:	3b01      	subs	r3, #1
 80058b8:	041b      	lsls	r3, r3, #16
 80058ba:	f403 03fe 	and.w	r3, r3, #8323072	; 0x7f0000
 80058be:	431a      	orrs	r2, r3
 80058c0:	687b      	ldr	r3, [r7, #4]
 80058c2:	691b      	ldr	r3, [r3, #16]
 80058c4:	3b01      	subs	r3, #1
 80058c6:	061b      	lsls	r3, r3, #24
 80058c8:	f003 43fe 	and.w	r3, r3, #2130706432	; 0x7f000000
 80058cc:	4931      	ldr	r1, [pc, #196]	; (8005994 <RCCEx_PLL3_Config+0x15c>)
 80058ce:	4313      	orrs	r3, r2
 80058d0:	640b      	str	r3, [r1, #64]	; 0x40
                          pll3->PLL3P,
                          pll3->PLL3Q,
                          pll3->PLL3R);

    /* Select PLL3 input reference frequency range: VCI */
    __HAL_RCC_PLL3_VCIRANGE(pll3->PLL3RGE) ;
 80058d2:	4b30      	ldr	r3, [pc, #192]	; (8005994 <RCCEx_PLL3_Config+0x15c>)
 80058d4:	6adb      	ldr	r3, [r3, #44]	; 0x2c
 80058d6:	f423 6240 	bic.w	r2, r3, #3072	; 0xc00
 80058da:	687b      	ldr	r3, [r7, #4]
 80058dc:	695b      	ldr	r3, [r3, #20]
 80058de:	492d      	ldr	r1, [pc, #180]	; (8005994 <RCCEx_PLL3_Config+0x15c>)
 80058e0:	4313      	orrs	r3, r2
 80058e2:	62cb      	str	r3, [r1, #44]	; 0x2c

    /* Select PLL3 output frequency range : VCO */
    __HAL_RCC_PLL3_VCORANGE(pll3->PLL3VCOSEL) ;
 80058e4:	4b2b      	ldr	r3, [pc, #172]	; (8005994 <RCCEx_PLL3_Config+0x15c>)
 80058e6:	6adb      	ldr	r3, [r3, #44]	; 0x2c
 80058e8:	f423 7200 	bic.w	r2, r3, #512	; 0x200
 80058ec:	687b      	ldr	r3, [r7, #4]
 80058ee:	699b      	ldr	r3, [r3, #24]
 80058f0:	4928      	ldr	r1, [pc, #160]	; (8005994 <RCCEx_PLL3_Config+0x15c>)
 80058f2:	4313      	orrs	r3, r2
 80058f4:	62cb      	str	r3, [r1, #44]	; 0x2c

    /* Disable PLL3FRACN . */
    __HAL_RCC_PLL3FRACN_DISABLE();
 80058f6:	4b27      	ldr	r3, [pc, #156]	; (8005994 <RCCEx_PLL3_Config+0x15c>)
 80058f8:	6adb      	ldr	r3, [r3, #44]	; 0x2c
 80058fa:	4a26      	ldr	r2, [pc, #152]	; (8005994 <RCCEx_PLL3_Config+0x15c>)
 80058fc:	f423 7380 	bic.w	r3, r3, #256	; 0x100
 8005900:	62d3      	str	r3, [r2, #44]	; 0x2c

    /* Configures PLL3 clock Fractional Part Of The Multiplication Factor */
    __HAL_RCC_PLL3FRACN_CONFIG(pll3->PLL3FRACN);
 8005902:	4b24      	ldr	r3, [pc, #144]	; (8005994 <RCCEx_PLL3_Config+0x15c>)
 8005904:	6c5a      	ldr	r2, [r3, #68]	; 0x44
 8005906:	4b24      	ldr	r3, [pc, #144]	; (8005998 <RCCEx_PLL3_Config+0x160>)
 8005908:	4013      	ands	r3, r2
 800590a:	687a      	ldr	r2, [r7, #4]
 800590c:	69d2      	ldr	r2, [r2, #28]
 800590e:	00d2      	lsls	r2, r2, #3
 8005910:	4920      	ldr	r1, [pc, #128]	; (8005994 <RCCEx_PLL3_Config+0x15c>)
 8005912:	4313      	orrs	r3, r2
 8005914:	644b      	str	r3, [r1, #68]	; 0x44

    /* Enable PLL3FRACN . */
    __HAL_RCC_PLL3FRACN_ENABLE();
 8005916:	4b1f      	ldr	r3, [pc, #124]	; (8005994 <RCCEx_PLL3_Config+0x15c>)
 8005918:	6adb      	ldr	r3, [r3, #44]	; 0x2c
 800591a:	4a1e      	ldr	r2, [pc, #120]	; (8005994 <RCCEx_PLL3_Config+0x15c>)
 800591c:	f443 7380 	orr.w	r3, r3, #256	; 0x100
 8005920:	62d3      	str	r3, [r2, #44]	; 0x2c

    /* Enable the PLL3 clock output */
    if(Divider == DIVIDER_P_UPDATE)
 8005922:	683b      	ldr	r3, [r7, #0]
 8005924:	2b00      	cmp	r3, #0
 8005926:	d106      	bne.n	8005936 <RCCEx_PLL3_Config+0xfe>
    {
      __HAL_RCC_PLL3CLKOUT_ENABLE(RCC_PLL3_DIVP);
 8005928:	4b1a      	ldr	r3, [pc, #104]	; (8005994 <RCCEx_PLL3_Config+0x15c>)
 800592a:	6adb      	ldr	r3, [r3, #44]	; 0x2c
 800592c:	4a19      	ldr	r2, [pc, #100]	; (8005994 <RCCEx_PLL3_Config+0x15c>)
 800592e:	f443 0380 	orr.w	r3, r3, #4194304	; 0x400000
 8005932:	62d3      	str	r3, [r2, #44]	; 0x2c
 8005934:	e00f      	b.n	8005956 <RCCEx_PLL3_Config+0x11e>
    }
    else if(Divider == DIVIDER_Q_UPDATE)
 8005936:	683b      	ldr	r3, [r7, #0]
 8005938:	2b01      	cmp	r3, #1
 800593a:	d106      	bne.n	800594a <RCCEx_PLL3_Config+0x112>
    {
      __HAL_RCC_PLL3CLKOUT_ENABLE(RCC_PLL3_DIVQ);
 800593c:	4b15      	ldr	r3, [pc, #84]	; (8005994 <RCCEx_PLL3_Config+0x15c>)
 800593e:	6adb      	ldr	r3, [r3, #44]	; 0x2c
 8005940:	4a14      	ldr	r2, [pc, #80]	; (8005994 <RCCEx_PLL3_Config+0x15c>)
 8005942:	f443 0300 	orr.w	r3, r3, #8388608	; 0x800000
 8005946:	62d3      	str	r3, [r2, #44]	; 0x2c
 8005948:	e005      	b.n	8005956 <RCCEx_PLL3_Config+0x11e>
    }
    else
    {
      __HAL_RCC_PLL3CLKOUT_ENABLE(RCC_PLL3_DIVR);
 800594a:	4b12      	ldr	r3, [pc, #72]	; (8005994 <RCCEx_PLL3_Config+0x15c>)
 800594c:	6adb      	ldr	r3, [r3, #44]	; 0x2c
 800594e:	4a11      	ldr	r2, [pc, #68]	; (8005994 <RCCEx_PLL3_Config+0x15c>)
 8005950:	f043 7380 	orr.w	r3, r3, #16777216	; 0x1000000
 8005954:	62d3      	str	r3, [r2, #44]	; 0x2c
    }

    /* Enable  PLL3. */
    __HAL_RCC_PLL3_ENABLE();
 8005956:	4b0f      	ldr	r3, [pc, #60]	; (8005994 <RCCEx_PLL3_Config+0x15c>)
 8005958:	681b      	ldr	r3, [r3, #0]
 800595a:	4a0e      	ldr	r2, [pc, #56]	; (8005994 <RCCEx_PLL3_Config+0x15c>)
 800595c:	f043 5380 	orr.w	r3, r3, #268435456	; 0x10000000
 8005960:	6013      	str	r3, [r2, #0]

    /* Get Start Tick*/
    tickstart = HAL_GetTick();
 8005962:	f7fb ffb9 	bl	80018d8 <HAL_GetTick>
 8005966:	60b8      	str	r0, [r7, #8]

    /* Wait till PLL3 is ready */
    while(__HAL_RCC_GET_FLAG(RCC_FLAG_PLL3RDY) == 0U)
 8005968:	e008      	b.n	800597c <RCCEx_PLL3_Config+0x144>
    {
      if( (HAL_GetTick() - tickstart ) > PLL3_TIMEOUT_VALUE)
 800596a:	f7fb ffb5 	bl	80018d8 <HAL_GetTick>
 800596e:	4602      	mov	r2, r0
 8005970:	68bb      	ldr	r3, [r7, #8]
 8005972:	1ad3      	subs	r3, r2, r3
 8005974:	2b02      	cmp	r3, #2
 8005976:	d901      	bls.n	800597c <RCCEx_PLL3_Config+0x144>
      {
        return HAL_TIMEOUT;
 8005978:	2303      	movs	r3, #3
 800597a:	e006      	b.n	800598a <RCCEx_PLL3_Config+0x152>
    while(__HAL_RCC_GET_FLAG(RCC_FLAG_PLL3RDY) == 0U)
 800597c:	4b05      	ldr	r3, [pc, #20]	; (8005994 <RCCEx_PLL3_Config+0x15c>)
 800597e:	681b      	ldr	r3, [r3, #0]
 8005980:	f003 5300 	and.w	r3, r3, #536870912	; 0x20000000
 8005984:	2b00      	cmp	r3, #0
 8005986:	d0f0      	beq.n	800596a <RCCEx_PLL3_Config+0x132>
    }

  }


  return status;
 8005988:	7bfb      	ldrb	r3, [r7, #15]
}
 800598a:	4618      	mov	r0, r3
 800598c:	3710      	adds	r7, #16
 800598e:	46bd      	mov	sp, r7
 8005990:	bd80      	pop	{r7, pc}
 8005992:	bf00      	nop
 8005994:	58024400 	.word	0x58024400
 8005998:	ffff0007 	.word	0xffff0007

0800599c <HAL_TIM_Base_Init>:
  *         Ex: call @ref HAL_TIM_Base_DeInit() before HAL_TIM_Base_Init()
  * @param  htim TIM Base handle
  * @retval HAL status
  */
HAL_StatusTypeDef HAL_TIM_Base_Init(TIM_HandleTypeDef *htim)
{
 800599c:	b580      	push	{r7, lr}
 800599e:	b082      	sub	sp, #8
 80059a0:	af00      	add	r7, sp, #0
 80059a2:	6078      	str	r0, [r7, #4]
  /* Check the TIM handle allocation */
  if (htim == NULL)
 80059a4:	687b      	ldr	r3, [r7, #4]
 80059a6:	2b00      	cmp	r3, #0
 80059a8:	d101      	bne.n	80059ae <HAL_TIM_Base_Init+0x12>
  {
    return HAL_ERROR;
 80059aa:	2301      	movs	r3, #1
 80059ac:	e049      	b.n	8005a42 <HAL_TIM_Base_Init+0xa6>
  assert_param(IS_TIM_INSTANCE(htim->Instance));
  assert_param(IS_TIM_COUNTER_MODE(htim->Init.CounterMode));
  assert_param(IS_TIM_CLOCKDIVISION_DIV(htim->Init.ClockDivision));
  assert_param(IS_TIM_AUTORELOAD_PRELOAD(htim->Init.AutoReloadPreload));

  if (htim->State == HAL_TIM_STATE_RESET)
 80059ae:	687b      	ldr	r3, [r7, #4]
 80059b0:	f893 303d 	ldrb.w	r3, [r3, #61]	; 0x3d
 80059b4:	b2db      	uxtb	r3, r3
 80059b6:	2b00      	cmp	r3, #0
 80059b8:	d106      	bne.n	80059c8 <HAL_TIM_Base_Init+0x2c>
  {
    /* Allocate lock resource and initialize it */
    htim->Lock = HAL_UNLOCKED;
 80059ba:	687b      	ldr	r3, [r7, #4]
 80059bc:	2200      	movs	r2, #0
 80059be:	f883 203c 	strb.w	r2, [r3, #60]	; 0x3c
    }
    /* Init the low level hardware : GPIO, CLOCK, NVIC */
    htim->Base_MspInitCallback(htim);
#else
    /* Init the low level hardware : GPIO, CLOCK, NVIC */
    HAL_TIM_Base_MspInit(htim);
 80059c2:	6878      	ldr	r0, [r7, #4]
 80059c4:	f7fb feb6 	bl	8001734 <HAL_TIM_Base_MspInit>
#endif /* USE_HAL_TIM_REGISTER_CALLBACKS */
  }

  /* Set the TIM state */
  htim->State = HAL_TIM_STATE_BUSY;
 80059c8:	687b      	ldr	r3, [r7, #4]
 80059ca:	2202      	movs	r2, #2
 80059cc:	f883 203d 	strb.w	r2, [r3, #61]	; 0x3d

  /* Set the Time Base configuration */
  TIM_Base_SetConfig(htim->Instance, &htim->Init);
 80059d0:	687b      	ldr	r3, [r7, #4]
 80059d2:	681a      	ldr	r2, [r3, #0]
 80059d4:	687b      	ldr	r3, [r7, #4]
 80059d6:	3304      	adds	r3, #4
 80059d8:	4619      	mov	r1, r3
 80059da:	4610      	mov	r0, r2
 80059dc:	f000 f878 	bl	8005ad0 <TIM_Base_SetConfig>

  /* Initialize the DMA burst operation state */
  htim->DMABurstState = HAL_DMA_BURST_STATE_READY;
 80059e0:	687b      	ldr	r3, [r7, #4]
 80059e2:	2201      	movs	r2, #1
 80059e4:	f883 2048 	strb.w	r2, [r3, #72]	; 0x48

  /* Initialize the TIM channels state */
  TIM_CHANNEL_STATE_SET_ALL(htim, HAL_TIM_CHANNEL_STATE_READY);
 80059e8:	687b      	ldr	r3, [r7, #4]
 80059ea:	2201      	movs	r2, #1
 80059ec:	f883 203e 	strb.w	r2, [r3, #62]	; 0x3e
 80059f0:	687b      	ldr	r3, [r7, #4]
 80059f2:	2201      	movs	r2, #1
 80059f4:	f883 203f 	strb.w	r2, [r3, #63]	; 0x3f
 80059f8:	687b      	ldr	r3, [r7, #4]
 80059fa:	2201      	movs	r2, #1
 80059fc:	f883 2040 	strb.w	r2, [r3, #64]	; 0x40
 8005a00:	687b      	ldr	r3, [r7, #4]
 8005a02:	2201      	movs	r2, #1
 8005a04:	f883 2041 	strb.w	r2, [r3, #65]	; 0x41
 8005a08:	687b      	ldr	r3, [r7, #4]
 8005a0a:	2201      	movs	r2, #1
 8005a0c:	f883 2042 	strb.w	r2, [r3, #66]	; 0x42
 8005a10:	687b      	ldr	r3, [r7, #4]
 8005a12:	2201      	movs	r2, #1
 8005a14:	f883 2043 	strb.w	r2, [r3, #67]	; 0x43
  TIM_CHANNEL_N_STATE_SET_ALL(htim, HAL_TIM_CHANNEL_STATE_READY);
 8005a18:	687b      	ldr	r3, [r7, #4]
 8005a1a:	2201      	movs	r2, #1
 8005a1c:	f883 2044 	strb.w	r2, [r3, #68]	; 0x44
 8005a20:	687b      	ldr	r3, [r7, #4]
 8005a22:	2201      	movs	r2, #1
 8005a24:	f883 2045 	strb.w	r2, [r3, #69]	; 0x45
 8005a28:	687b      	ldr	r3, [r7, #4]
 8005a2a:	2201      	movs	r2, #1
 8005a2c:	f883 2046 	strb.w	r2, [r3, #70]	; 0x46
 8005a30:	687b      	ldr	r3, [r7, #4]
 8005a32:	2201      	movs	r2, #1
 8005a34:	f883 2047 	strb.w	r2, [r3, #71]	; 0x47

  /* Initialize the TIM state*/
  htim->State = HAL_TIM_STATE_READY;
 8005a38:	687b      	ldr	r3, [r7, #4]
 8005a3a:	2201      	movs	r2, #1
 8005a3c:	f883 203d 	strb.w	r2, [r3, #61]	; 0x3d

  return HAL_OK;
 8005a40:	2300      	movs	r3, #0
}
 8005a42:	4618      	mov	r0, r3
 8005a44:	3708      	adds	r7, #8
 8005a46:	46bd      	mov	sp, r7
 8005a48:	bd80      	pop	{r7, pc}

08005a4a <HAL_TIM_SlaveConfigSynchro>:
  *         timer input or external trigger input) and the Slave mode
  *         (Disable, Reset, Gated, Trigger, External clock mode 1).
  * @retval HAL status
  */
HAL_StatusTypeDef HAL_TIM_SlaveConfigSynchro(TIM_HandleTypeDef *htim, TIM_SlaveConfigTypeDef *sSlaveConfig)
{
 8005a4a:	b580      	push	{r7, lr}
 8005a4c:	b082      	sub	sp, #8
 8005a4e:	af00      	add	r7, sp, #0
 8005a50:	6078      	str	r0, [r7, #4]
 8005a52:	6039      	str	r1, [r7, #0]
  /* Check the parameters */
  assert_param(IS_TIM_SLAVE_INSTANCE(htim->Instance));
  assert_param(IS_TIM_SLAVE_MODE(sSlaveConfig->SlaveMode));
  assert_param(IS_TIM_TRIGGER_SELECTION(sSlaveConfig->InputTrigger));

  __HAL_LOCK(htim);
 8005a54:	687b      	ldr	r3, [r7, #4]
 8005a56:	f893 303c 	ldrb.w	r3, [r3, #60]	; 0x3c
 8005a5a:	2b01      	cmp	r3, #1
 8005a5c:	d101      	bne.n	8005a62 <HAL_TIM_SlaveConfigSynchro+0x18>
 8005a5e:	2302      	movs	r3, #2
 8005a60:	e031      	b.n	8005ac6 <HAL_TIM_SlaveConfigSynchro+0x7c>
 8005a62:	687b      	ldr	r3, [r7, #4]
 8005a64:	2201      	movs	r2, #1
 8005a66:	f883 203c 	strb.w	r2, [r3, #60]	; 0x3c

  htim->State = HAL_TIM_STATE_BUSY;
 8005a6a:	687b      	ldr	r3, [r7, #4]
 8005a6c:	2202      	movs	r2, #2
 8005a6e:	f883 203d 	strb.w	r2, [r3, #61]	; 0x3d

  if (TIM_SlaveTimer_SetConfig(htim, sSlaveConfig) != HAL_OK)
 8005a72:	6839      	ldr	r1, [r7, #0]
 8005a74:	6878      	ldr	r0, [r7, #4]
 8005a76:	f000 f8c5 	bl	8005c04 <TIM_SlaveTimer_SetConfig>
 8005a7a:	4603      	mov	r3, r0
 8005a7c:	2b00      	cmp	r3, #0
 8005a7e:	d009      	beq.n	8005a94 <HAL_TIM_SlaveConfigSynchro+0x4a>
  {
    htim->State = HAL_TIM_STATE_READY;
 8005a80:	687b      	ldr	r3, [r7, #4]
 8005a82:	2201      	movs	r2, #1
 8005a84:	f883 203d 	strb.w	r2, [r3, #61]	; 0x3d
    __HAL_UNLOCK(htim);
 8005a88:	687b      	ldr	r3, [r7, #4]
 8005a8a:	2200      	movs	r2, #0
 8005a8c:	f883 203c 	strb.w	r2, [r3, #60]	; 0x3c
    return HAL_ERROR;
 8005a90:	2301      	movs	r3, #1
 8005a92:	e018      	b.n	8005ac6 <HAL_TIM_SlaveConfigSynchro+0x7c>
  }

  /* Disable Trigger Interrupt */
  __HAL_TIM_DISABLE_IT(htim, TIM_IT_TRIGGER);
 8005a94:	687b      	ldr	r3, [r7, #4]
 8005a96:	681b      	ldr	r3, [r3, #0]
 8005a98:	68da      	ldr	r2, [r3, #12]
 8005a9a:	687b      	ldr	r3, [r7, #4]
 8005a9c:	681b      	ldr	r3, [r3, #0]
 8005a9e:	f022 0240 	bic.w	r2, r2, #64	; 0x40
 8005aa2:	60da      	str	r2, [r3, #12]

  /* Disable Trigger DMA request */
  __HAL_TIM_DISABLE_DMA(htim, TIM_DMA_TRIGGER);
 8005aa4:	687b      	ldr	r3, [r7, #4]
 8005aa6:	681b      	ldr	r3, [r3, #0]
 8005aa8:	68da      	ldr	r2, [r3, #12]
 8005aaa:	687b      	ldr	r3, [r7, #4]
 8005aac:	681b      	ldr	r3, [r3, #0]
 8005aae:	f422 4280 	bic.w	r2, r2, #16384	; 0x4000
 8005ab2:	60da      	str	r2, [r3, #12]

  htim->State = HAL_TIM_STATE_READY;
 8005ab4:	687b      	ldr	r3, [r7, #4]
 8005ab6:	2201      	movs	r2, #1
 8005ab8:	f883 203d 	strb.w	r2, [r3, #61]	; 0x3d

  __HAL_UNLOCK(htim);
 8005abc:	687b      	ldr	r3, [r7, #4]
 8005abe:	2200      	movs	r2, #0
 8005ac0:	f883 203c 	strb.w	r2, [r3, #60]	; 0x3c

  return HAL_OK;
 8005ac4:	2300      	movs	r3, #0
}
 8005ac6:	4618      	mov	r0, r3
 8005ac8:	3708      	adds	r7, #8
 8005aca:	46bd      	mov	sp, r7
 8005acc:	bd80      	pop	{r7, pc}
	...

08005ad0 <TIM_Base_SetConfig>:
  * @param  TIMx TIM peripheral
  * @param  Structure TIM Base configuration structure
  * @retval None
  */
void TIM_Base_SetConfig(TIM_TypeDef *TIMx, TIM_Base_InitTypeDef *Structure)
{
 8005ad0:	b480      	push	{r7}
 8005ad2:	b085      	sub	sp, #20
 8005ad4:	af00      	add	r7, sp, #0
 8005ad6:	6078      	str	r0, [r7, #4]
 8005ad8:	6039      	str	r1, [r7, #0]
  uint32_t tmpcr1;
  tmpcr1 = TIMx->CR1;
 8005ada:	687b      	ldr	r3, [r7, #4]
 8005adc:	681b      	ldr	r3, [r3, #0]
 8005ade:	60fb      	str	r3, [r7, #12]

  /* Set TIM Time Base Unit parameters ---------------------------------------*/
  if (IS_TIM_COUNTER_MODE_SELECT_INSTANCE(TIMx))
 8005ae0:	687b      	ldr	r3, [r7, #4]
 8005ae2:	4a40      	ldr	r2, [pc, #256]	; (8005be4 <TIM_Base_SetConfig+0x114>)
 8005ae4:	4293      	cmp	r3, r2
 8005ae6:	d013      	beq.n	8005b10 <TIM_Base_SetConfig+0x40>
 8005ae8:	687b      	ldr	r3, [r7, #4]
 8005aea:	f1b3 4f80 	cmp.w	r3, #1073741824	; 0x40000000
 8005aee:	d00f      	beq.n	8005b10 <TIM_Base_SetConfig+0x40>
 8005af0:	687b      	ldr	r3, [r7, #4]
 8005af2:	4a3d      	ldr	r2, [pc, #244]	; (8005be8 <TIM_Base_SetConfig+0x118>)
 8005af4:	4293      	cmp	r3, r2
 8005af6:	d00b      	beq.n	8005b10 <TIM_Base_SetConfig+0x40>
 8005af8:	687b      	ldr	r3, [r7, #4]
 8005afa:	4a3c      	ldr	r2, [pc, #240]	; (8005bec <TIM_Base_SetConfig+0x11c>)
 8005afc:	4293      	cmp	r3, r2
 8005afe:	d007      	beq.n	8005b10 <TIM_Base_SetConfig+0x40>
 8005b00:	687b      	ldr	r3, [r7, #4]
 8005b02:	4a3b      	ldr	r2, [pc, #236]	; (8005bf0 <TIM_Base_SetConfig+0x120>)
 8005b04:	4293      	cmp	r3, r2
 8005b06:	d003      	beq.n	8005b10 <TIM_Base_SetConfig+0x40>
 8005b08:	687b      	ldr	r3, [r7, #4]
 8005b0a:	4a3a      	ldr	r2, [pc, #232]	; (8005bf4 <TIM_Base_SetConfig+0x124>)
 8005b0c:	4293      	cmp	r3, r2
 8005b0e:	d108      	bne.n	8005b22 <TIM_Base_SetConfig+0x52>
  {
    /* Select the Counter Mode */
    tmpcr1 &= ~(TIM_CR1_DIR | TIM_CR1_CMS);
 8005b10:	68fb      	ldr	r3, [r7, #12]
 8005b12:	f023 0370 	bic.w	r3, r3, #112	; 0x70
 8005b16:	60fb      	str	r3, [r7, #12]
    tmpcr1 |= Structure->CounterMode;
 8005b18:	683b      	ldr	r3, [r7, #0]
 8005b1a:	685b      	ldr	r3, [r3, #4]
 8005b1c:	68fa      	ldr	r2, [r7, #12]
 8005b1e:	4313      	orrs	r3, r2
 8005b20:	60fb      	str	r3, [r7, #12]
  }

  if (IS_TIM_CLOCK_DIVISION_INSTANCE(TIMx))
 8005b22:	687b      	ldr	r3, [r7, #4]
 8005b24:	4a2f      	ldr	r2, [pc, #188]	; (8005be4 <TIM_Base_SetConfig+0x114>)
 8005b26:	4293      	cmp	r3, r2
 8005b28:	d01f      	beq.n	8005b6a <TIM_Base_SetConfig+0x9a>
 8005b2a:	687b      	ldr	r3, [r7, #4]
 8005b2c:	f1b3 4f80 	cmp.w	r3, #1073741824	; 0x40000000
 8005b30:	d01b      	beq.n	8005b6a <TIM_Base_SetConfig+0x9a>
 8005b32:	687b      	ldr	r3, [r7, #4]
 8005b34:	4a2c      	ldr	r2, [pc, #176]	; (8005be8 <TIM_Base_SetConfig+0x118>)
 8005b36:	4293      	cmp	r3, r2
 8005b38:	d017      	beq.n	8005b6a <TIM_Base_SetConfig+0x9a>
 8005b3a:	687b      	ldr	r3, [r7, #4]
 8005b3c:	4a2b      	ldr	r2, [pc, #172]	; (8005bec <TIM_Base_SetConfig+0x11c>)
 8005b3e:	4293      	cmp	r3, r2
 8005b40:	d013      	beq.n	8005b6a <TIM_Base_SetConfig+0x9a>
 8005b42:	687b      	ldr	r3, [r7, #4]
 8005b44:	4a2a      	ldr	r2, [pc, #168]	; (8005bf0 <TIM_Base_SetConfig+0x120>)
 8005b46:	4293      	cmp	r3, r2
 8005b48:	d00f      	beq.n	8005b6a <TIM_Base_SetConfig+0x9a>
 8005b4a:	687b      	ldr	r3, [r7, #4]
 8005b4c:	4a29      	ldr	r2, [pc, #164]	; (8005bf4 <TIM_Base_SetConfig+0x124>)
 8005b4e:	4293      	cmp	r3, r2
 8005b50:	d00b      	beq.n	8005b6a <TIM_Base_SetConfig+0x9a>
 8005b52:	687b      	ldr	r3, [r7, #4]
 8005b54:	4a28      	ldr	r2, [pc, #160]	; (8005bf8 <TIM_Base_SetConfig+0x128>)
 8005b56:	4293      	cmp	r3, r2
 8005b58:	d007      	beq.n	8005b6a <TIM_Base_SetConfig+0x9a>
 8005b5a:	687b      	ldr	r3, [r7, #4]
 8005b5c:	4a27      	ldr	r2, [pc, #156]	; (8005bfc <TIM_Base_SetConfig+0x12c>)
 8005b5e:	4293      	cmp	r3, r2
 8005b60:	d003      	beq.n	8005b6a <TIM_Base_SetConfig+0x9a>
 8005b62:	687b      	ldr	r3, [r7, #4]
 8005b64:	4a26      	ldr	r2, [pc, #152]	; (8005c00 <TIM_Base_SetConfig+0x130>)
 8005b66:	4293      	cmp	r3, r2
 8005b68:	d108      	bne.n	8005b7c <TIM_Base_SetConfig+0xac>
  {
    /* Set the clock division */
    tmpcr1 &= ~TIM_CR1_CKD;
 8005b6a:	68fb      	ldr	r3, [r7, #12]
 8005b6c:	f423 7340 	bic.w	r3, r3, #768	; 0x300
 8005b70:	60fb      	str	r3, [r7, #12]
    tmpcr1 |= (uint32_t)Structure->ClockDivision;
 8005b72:	683b      	ldr	r3, [r7, #0]
 8005b74:	68db      	ldr	r3, [r3, #12]
 8005b76:	68fa      	ldr	r2, [r7, #12]
 8005b78:	4313      	orrs	r3, r2
 8005b7a:	60fb      	str	r3, [r7, #12]
  }

  /* Set the auto-reload preload */
  MODIFY_REG(tmpcr1, TIM_CR1_ARPE, Structure->AutoReloadPreload);
 8005b7c:	68fb      	ldr	r3, [r7, #12]
 8005b7e:	f023 0280 	bic.w	r2, r3, #128	; 0x80
 8005b82:	683b      	ldr	r3, [r7, #0]
 8005b84:	695b      	ldr	r3, [r3, #20]
 8005b86:	4313      	orrs	r3, r2
 8005b88:	60fb      	str	r3, [r7, #12]

  TIMx->CR1 = tmpcr1;
 8005b8a:	687b      	ldr	r3, [r7, #4]
 8005b8c:	68fa      	ldr	r2, [r7, #12]
 8005b8e:	601a      	str	r2, [r3, #0]

  /* Set the Autoreload value */
  TIMx->ARR = (uint32_t)Structure->Period ;
 8005b90:	683b      	ldr	r3, [r7, #0]
 8005b92:	689a      	ldr	r2, [r3, #8]
 8005b94:	687b      	ldr	r3, [r7, #4]
 8005b96:	62da      	str	r2, [r3, #44]	; 0x2c

  /* Set the Prescaler value */
  TIMx->PSC = Structure->Prescaler;
 8005b98:	683b      	ldr	r3, [r7, #0]
 8005b9a:	681a      	ldr	r2, [r3, #0]
 8005b9c:	687b      	ldr	r3, [r7, #4]
 8005b9e:	629a      	str	r2, [r3, #40]	; 0x28

  if (IS_TIM_REPETITION_COUNTER_INSTANCE(TIMx))
 8005ba0:	687b      	ldr	r3, [r7, #4]
 8005ba2:	4a10      	ldr	r2, [pc, #64]	; (8005be4 <TIM_Base_SetConfig+0x114>)
 8005ba4:	4293      	cmp	r3, r2
 8005ba6:	d00f      	beq.n	8005bc8 <TIM_Base_SetConfig+0xf8>
 8005ba8:	687b      	ldr	r3, [r7, #4]
 8005baa:	4a12      	ldr	r2, [pc, #72]	; (8005bf4 <TIM_Base_SetConfig+0x124>)
 8005bac:	4293      	cmp	r3, r2
 8005bae:	d00b      	beq.n	8005bc8 <TIM_Base_SetConfig+0xf8>
 8005bb0:	687b      	ldr	r3, [r7, #4]
 8005bb2:	4a11      	ldr	r2, [pc, #68]	; (8005bf8 <TIM_Base_SetConfig+0x128>)
 8005bb4:	4293      	cmp	r3, r2
 8005bb6:	d007      	beq.n	8005bc8 <TIM_Base_SetConfig+0xf8>
 8005bb8:	687b      	ldr	r3, [r7, #4]
 8005bba:	4a10      	ldr	r2, [pc, #64]	; (8005bfc <TIM_Base_SetConfig+0x12c>)
 8005bbc:	4293      	cmp	r3, r2
 8005bbe:	d003      	beq.n	8005bc8 <TIM_Base_SetConfig+0xf8>
 8005bc0:	687b      	ldr	r3, [r7, #4]
 8005bc2:	4a0f      	ldr	r2, [pc, #60]	; (8005c00 <TIM_Base_SetConfig+0x130>)
 8005bc4:	4293      	cmp	r3, r2
 8005bc6:	d103      	bne.n	8005bd0 <TIM_Base_SetConfig+0x100>
  {
    /* Set the Repetition Counter value */
    TIMx->RCR = Structure->RepetitionCounter;
 8005bc8:	683b      	ldr	r3, [r7, #0]
 8005bca:	691a      	ldr	r2, [r3, #16]
 8005bcc:	687b      	ldr	r3, [r7, #4]
 8005bce:	631a      	str	r2, [r3, #48]	; 0x30
  }

  /* Generate an update event to reload the Prescaler
     and the repetition counter (only for advanced timer) value immediately */
  TIMx->EGR = TIM_EGR_UG;
 8005bd0:	687b      	ldr	r3, [r7, #4]
 8005bd2:	2201      	movs	r2, #1
 8005bd4:	615a      	str	r2, [r3, #20]
}
 8005bd6:	bf00      	nop
 8005bd8:	3714      	adds	r7, #20
 8005bda:	46bd      	mov	sp, r7
 8005bdc:	f85d 7b04 	ldr.w	r7, [sp], #4
 8005be0:	4770      	bx	lr
 8005be2:	bf00      	nop
 8005be4:	40010000 	.word	0x40010000
 8005be8:	40000400 	.word	0x40000400
 8005bec:	40000800 	.word	0x40000800
 8005bf0:	40000c00 	.word	0x40000c00
 8005bf4:	40010400 	.word	0x40010400
 8005bf8:	40014000 	.word	0x40014000
 8005bfc:	40014400 	.word	0x40014400
 8005c00:	40014800 	.word	0x40014800

08005c04 <TIM_SlaveTimer_SetConfig>:
  * @param  sSlaveConfig Slave timer configuration
  * @retval None
  */
static HAL_StatusTypeDef TIM_SlaveTimer_SetConfig(TIM_HandleTypeDef *htim,
                                                  TIM_SlaveConfigTypeDef *sSlaveConfig)
{
 8005c04:	b580      	push	{r7, lr}
 8005c06:	b086      	sub	sp, #24
 8005c08:	af00      	add	r7, sp, #0
 8005c0a:	6078      	str	r0, [r7, #4]
 8005c0c:	6039      	str	r1, [r7, #0]
  HAL_StatusTypeDef status = HAL_OK;
 8005c0e:	2300      	movs	r3, #0
 8005c10:	75fb      	strb	r3, [r7, #23]
  uint32_t tmpsmcr;
  uint32_t tmpccmr1;
  uint32_t tmpccer;

  /* Get the TIMx SMCR register value */
  tmpsmcr = htim->Instance->SMCR;
 8005c12:	687b      	ldr	r3, [r7, #4]
 8005c14:	681b      	ldr	r3, [r3, #0]
 8005c16:	689b      	ldr	r3, [r3, #8]
 8005c18:	613b      	str	r3, [r7, #16]

  /* Reset the Trigger Selection Bits */
  tmpsmcr &= ~TIM_SMCR_TS;
 8005c1a:	693a      	ldr	r2, [r7, #16]
 8005c1c:	4b65      	ldr	r3, [pc, #404]	; (8005db4 <TIM_SlaveTimer_SetConfig+0x1b0>)
 8005c1e:	4013      	ands	r3, r2
 8005c20:	613b      	str	r3, [r7, #16]
  /* Set the Input Trigger source */
  tmpsmcr |= sSlaveConfig->InputTrigger;
 8005c22:	683b      	ldr	r3, [r7, #0]
 8005c24:	685b      	ldr	r3, [r3, #4]
 8005c26:	693a      	ldr	r2, [r7, #16]
 8005c28:	4313      	orrs	r3, r2
 8005c2a:	613b      	str	r3, [r7, #16]

  /* Reset the slave mode Bits */
  tmpsmcr &= ~TIM_SMCR_SMS;
 8005c2c:	693a      	ldr	r2, [r7, #16]
 8005c2e:	4b62      	ldr	r3, [pc, #392]	; (8005db8 <TIM_SlaveTimer_SetConfig+0x1b4>)
 8005c30:	4013      	ands	r3, r2
 8005c32:	613b      	str	r3, [r7, #16]
  /* Set the slave mode */
  tmpsmcr |= sSlaveConfig->SlaveMode;
 8005c34:	683b      	ldr	r3, [r7, #0]
 8005c36:	681b      	ldr	r3, [r3, #0]
 8005c38:	693a      	ldr	r2, [r7, #16]
 8005c3a:	4313      	orrs	r3, r2
 8005c3c:	613b      	str	r3, [r7, #16]

  /* Write to TIMx SMCR */
  htim->Instance->SMCR = tmpsmcr;
 8005c3e:	687b      	ldr	r3, [r7, #4]
 8005c40:	681b      	ldr	r3, [r3, #0]
 8005c42:	693a      	ldr	r2, [r7, #16]
 8005c44:	609a      	str	r2, [r3, #8]

  /* Configure the trigger prescaler, filter, and polarity */
  switch (sSlaveConfig->InputTrigger)
 8005c46:	683b      	ldr	r3, [r7, #0]
 8005c48:	685b      	ldr	r3, [r3, #4]
 8005c4a:	4a5c      	ldr	r2, [pc, #368]	; (8005dbc <TIM_SlaveTimer_SetConfig+0x1b8>)
 8005c4c:	4293      	cmp	r3, r2
 8005c4e:	f000 80ab 	beq.w	8005da8 <TIM_SlaveTimer_SetConfig+0x1a4>
 8005c52:	4a5a      	ldr	r2, [pc, #360]	; (8005dbc <TIM_SlaveTimer_SetConfig+0x1b8>)
 8005c54:	4293      	cmp	r3, r2
 8005c56:	f200 80a4 	bhi.w	8005da2 <TIM_SlaveTimer_SetConfig+0x19e>
 8005c5a:	f5b3 1f00 	cmp.w	r3, #2097152	; 0x200000
 8005c5e:	f000 80a3 	beq.w	8005da8 <TIM_SlaveTimer_SetConfig+0x1a4>
 8005c62:	f5b3 1f00 	cmp.w	r3, #2097152	; 0x200000
 8005c66:	f200 809c 	bhi.w	8005da2 <TIM_SlaveTimer_SetConfig+0x19e>
 8005c6a:	4a55      	ldr	r2, [pc, #340]	; (8005dc0 <TIM_SlaveTimer_SetConfig+0x1bc>)
 8005c6c:	4293      	cmp	r3, r2
 8005c6e:	f000 809b 	beq.w	8005da8 <TIM_SlaveTimer_SetConfig+0x1a4>
 8005c72:	4a53      	ldr	r2, [pc, #332]	; (8005dc0 <TIM_SlaveTimer_SetConfig+0x1bc>)
 8005c74:	4293      	cmp	r3, r2
 8005c76:	f200 8094 	bhi.w	8005da2 <TIM_SlaveTimer_SetConfig+0x19e>
 8005c7a:	4a52      	ldr	r2, [pc, #328]	; (8005dc4 <TIM_SlaveTimer_SetConfig+0x1c0>)
 8005c7c:	4293      	cmp	r3, r2
 8005c7e:	f000 8093 	beq.w	8005da8 <TIM_SlaveTimer_SetConfig+0x1a4>
 8005c82:	4a50      	ldr	r2, [pc, #320]	; (8005dc4 <TIM_SlaveTimer_SetConfig+0x1c0>)
 8005c84:	4293      	cmp	r3, r2
 8005c86:	f200 808c 	bhi.w	8005da2 <TIM_SlaveTimer_SetConfig+0x19e>
 8005c8a:	4a4f      	ldr	r2, [pc, #316]	; (8005dc8 <TIM_SlaveTimer_SetConfig+0x1c4>)
 8005c8c:	4293      	cmp	r3, r2
 8005c8e:	f000 808b 	beq.w	8005da8 <TIM_SlaveTimer_SetConfig+0x1a4>
 8005c92:	4a4d      	ldr	r2, [pc, #308]	; (8005dc8 <TIM_SlaveTimer_SetConfig+0x1c4>)
 8005c94:	4293      	cmp	r3, r2
 8005c96:	f200 8084 	bhi.w	8005da2 <TIM_SlaveTimer_SetConfig+0x19e>
 8005c9a:	4a4c      	ldr	r2, [pc, #304]	; (8005dcc <TIM_SlaveTimer_SetConfig+0x1c8>)
 8005c9c:	4293      	cmp	r3, r2
 8005c9e:	f000 8083 	beq.w	8005da8 <TIM_SlaveTimer_SetConfig+0x1a4>
 8005ca2:	4a4a      	ldr	r2, [pc, #296]	; (8005dcc <TIM_SlaveTimer_SetConfig+0x1c8>)
 8005ca4:	4293      	cmp	r3, r2
 8005ca6:	d87c      	bhi.n	8005da2 <TIM_SlaveTimer_SetConfig+0x19e>
 8005ca8:	4a49      	ldr	r2, [pc, #292]	; (8005dd0 <TIM_SlaveTimer_SetConfig+0x1cc>)
 8005caa:	4293      	cmp	r3, r2
 8005cac:	d07c      	beq.n	8005da8 <TIM_SlaveTimer_SetConfig+0x1a4>
 8005cae:	4a48      	ldr	r2, [pc, #288]	; (8005dd0 <TIM_SlaveTimer_SetConfig+0x1cc>)
 8005cb0:	4293      	cmp	r3, r2
 8005cb2:	d876      	bhi.n	8005da2 <TIM_SlaveTimer_SetConfig+0x19e>
 8005cb4:	4a47      	ldr	r2, [pc, #284]	; (8005dd4 <TIM_SlaveTimer_SetConfig+0x1d0>)
 8005cb6:	4293      	cmp	r3, r2
 8005cb8:	d076      	beq.n	8005da8 <TIM_SlaveTimer_SetConfig+0x1a4>
 8005cba:	4a46      	ldr	r2, [pc, #280]	; (8005dd4 <TIM_SlaveTimer_SetConfig+0x1d0>)
 8005cbc:	4293      	cmp	r3, r2
 8005cbe:	d870      	bhi.n	8005da2 <TIM_SlaveTimer_SetConfig+0x19e>
 8005cc0:	f1b3 1f10 	cmp.w	r3, #1048592	; 0x100010
 8005cc4:	d070      	beq.n	8005da8 <TIM_SlaveTimer_SetConfig+0x1a4>
 8005cc6:	f1b3 1f10 	cmp.w	r3, #1048592	; 0x100010
 8005cca:	d86a      	bhi.n	8005da2 <TIM_SlaveTimer_SetConfig+0x19e>
 8005ccc:	f5b3 1f80 	cmp.w	r3, #1048576	; 0x100000
 8005cd0:	d06a      	beq.n	8005da8 <TIM_SlaveTimer_SetConfig+0x1a4>
 8005cd2:	f5b3 1f80 	cmp.w	r3, #1048576	; 0x100000
 8005cd6:	d864      	bhi.n	8005da2 <TIM_SlaveTimer_SetConfig+0x19e>
 8005cd8:	2b70      	cmp	r3, #112	; 0x70
 8005cda:	d01a      	beq.n	8005d12 <TIM_SlaveTimer_SetConfig+0x10e>
 8005cdc:	2b70      	cmp	r3, #112	; 0x70
 8005cde:	d860      	bhi.n	8005da2 <TIM_SlaveTimer_SetConfig+0x19e>
 8005ce0:	2b60      	cmp	r3, #96	; 0x60
 8005ce2:	d054      	beq.n	8005d8e <TIM_SlaveTimer_SetConfig+0x18a>
 8005ce4:	2b60      	cmp	r3, #96	; 0x60
 8005ce6:	d85c      	bhi.n	8005da2 <TIM_SlaveTimer_SetConfig+0x19e>
 8005ce8:	2b50      	cmp	r3, #80	; 0x50
 8005cea:	d046      	beq.n	8005d7a <TIM_SlaveTimer_SetConfig+0x176>
 8005cec:	2b50      	cmp	r3, #80	; 0x50
 8005cee:	d858      	bhi.n	8005da2 <TIM_SlaveTimer_SetConfig+0x19e>
 8005cf0:	2b40      	cmp	r3, #64	; 0x40
 8005cf2:	d019      	beq.n	8005d28 <TIM_SlaveTimer_SetConfig+0x124>
 8005cf4:	2b40      	cmp	r3, #64	; 0x40
 8005cf6:	d854      	bhi.n	8005da2 <TIM_SlaveTimer_SetConfig+0x19e>
 8005cf8:	2b30      	cmp	r3, #48	; 0x30
 8005cfa:	d055      	beq.n	8005da8 <TIM_SlaveTimer_SetConfig+0x1a4>
 8005cfc:	2b30      	cmp	r3, #48	; 0x30
 8005cfe:	d850      	bhi.n	8005da2 <TIM_SlaveTimer_SetConfig+0x19e>
 8005d00:	2b20      	cmp	r3, #32
 8005d02:	d051      	beq.n	8005da8 <TIM_SlaveTimer_SetConfig+0x1a4>
 8005d04:	2b20      	cmp	r3, #32
 8005d06:	d84c      	bhi.n	8005da2 <TIM_SlaveTimer_SetConfig+0x19e>
 8005d08:	2b00      	cmp	r3, #0
 8005d0a:	d04d      	beq.n	8005da8 <TIM_SlaveTimer_SetConfig+0x1a4>
 8005d0c:	2b10      	cmp	r3, #16
 8005d0e:	d04b      	beq.n	8005da8 <TIM_SlaveTimer_SetConfig+0x1a4>
 8005d10:	e047      	b.n	8005da2 <TIM_SlaveTimer_SetConfig+0x19e>
      assert_param(IS_TIM_CLOCKSOURCE_ETRMODE1_INSTANCE(htim->Instance));
      assert_param(IS_TIM_TRIGGERPRESCALER(sSlaveConfig->TriggerPrescaler));
      assert_param(IS_TIM_TRIGGERPOLARITY(sSlaveConfig->TriggerPolarity));
      assert_param(IS_TIM_TRIGGERFILTER(sSlaveConfig->TriggerFilter));
      /* Configure the ETR Trigger source */
      TIM_ETR_SetConfig(htim->Instance,
 8005d12:	687b      	ldr	r3, [r7, #4]
 8005d14:	6818      	ldr	r0, [r3, #0]
 8005d16:	683b      	ldr	r3, [r7, #0]
 8005d18:	68d9      	ldr	r1, [r3, #12]
 8005d1a:	683b      	ldr	r3, [r7, #0]
 8005d1c:	689a      	ldr	r2, [r3, #8]
 8005d1e:	683b      	ldr	r3, [r7, #0]
 8005d20:	691b      	ldr	r3, [r3, #16]
 8005d22:	f000 f8b8 	bl	8005e96 <TIM_ETR_SetConfig>
                        sSlaveConfig->TriggerPrescaler,
                        sSlaveConfig->TriggerPolarity,
                        sSlaveConfig->TriggerFilter);
      break;
 8005d26:	e040      	b.n	8005daa <TIM_SlaveTimer_SetConfig+0x1a6>
    {
      /* Check the parameters */
      assert_param(IS_TIM_CC1_INSTANCE(htim->Instance));
      assert_param(IS_TIM_TRIGGERFILTER(sSlaveConfig->TriggerFilter));

      if (sSlaveConfig->SlaveMode == TIM_SLAVEMODE_GATED)
 8005d28:	683b      	ldr	r3, [r7, #0]
 8005d2a:	681b      	ldr	r3, [r3, #0]
 8005d2c:	2b05      	cmp	r3, #5
 8005d2e:	d101      	bne.n	8005d34 <TIM_SlaveTimer_SetConfig+0x130>
      {
        return HAL_ERROR;
 8005d30:	2301      	movs	r3, #1
 8005d32:	e03b      	b.n	8005dac <TIM_SlaveTimer_SetConfig+0x1a8>
      }

      /* Disable the Channel 1: Reset the CC1E Bit */
      tmpccer = htim->Instance->CCER;
 8005d34:	687b      	ldr	r3, [r7, #4]
 8005d36:	681b      	ldr	r3, [r3, #0]
 8005d38:	6a1b      	ldr	r3, [r3, #32]
 8005d3a:	60fb      	str	r3, [r7, #12]
      htim->Instance->CCER &= ~TIM_CCER_CC1E;
 8005d3c:	687b      	ldr	r3, [r7, #4]
 8005d3e:	681b      	ldr	r3, [r3, #0]
 8005d40:	6a1a      	ldr	r2, [r3, #32]
 8005d42:	687b      	ldr	r3, [r7, #4]
 8005d44:	681b      	ldr	r3, [r3, #0]
 8005d46:	f022 0201 	bic.w	r2, r2, #1
 8005d4a:	621a      	str	r2, [r3, #32]
      tmpccmr1 = htim->Instance->CCMR1;
 8005d4c:	687b      	ldr	r3, [r7, #4]
 8005d4e:	681b      	ldr	r3, [r3, #0]
 8005d50:	699b      	ldr	r3, [r3, #24]
 8005d52:	60bb      	str	r3, [r7, #8]

      /* Set the filter */
      tmpccmr1 &= ~TIM_CCMR1_IC1F;
 8005d54:	68bb      	ldr	r3, [r7, #8]
 8005d56:	f023 03f0 	bic.w	r3, r3, #240	; 0xf0
 8005d5a:	60bb      	str	r3, [r7, #8]
      tmpccmr1 |= ((sSlaveConfig->TriggerFilter) << 4U);
 8005d5c:	683b      	ldr	r3, [r7, #0]
 8005d5e:	691b      	ldr	r3, [r3, #16]
 8005d60:	011b      	lsls	r3, r3, #4
 8005d62:	68ba      	ldr	r2, [r7, #8]
 8005d64:	4313      	orrs	r3, r2
 8005d66:	60bb      	str	r3, [r7, #8]

      /* Write to TIMx CCMR1 and CCER registers */
      htim->Instance->CCMR1 = tmpccmr1;
 8005d68:	687b      	ldr	r3, [r7, #4]
 8005d6a:	681b      	ldr	r3, [r3, #0]
 8005d6c:	68ba      	ldr	r2, [r7, #8]
 8005d6e:	619a      	str	r2, [r3, #24]
      htim->Instance->CCER = tmpccer;
 8005d70:	687b      	ldr	r3, [r7, #4]
 8005d72:	681b      	ldr	r3, [r3, #0]
 8005d74:	68fa      	ldr	r2, [r7, #12]
 8005d76:	621a      	str	r2, [r3, #32]
      break;
 8005d78:	e017      	b.n	8005daa <TIM_SlaveTimer_SetConfig+0x1a6>
      assert_param(IS_TIM_CC1_INSTANCE(htim->Instance));
      assert_param(IS_TIM_TRIGGERPOLARITY(sSlaveConfig->TriggerPolarity));
      assert_param(IS_TIM_TRIGGERFILTER(sSlaveConfig->TriggerFilter));

      /* Configure TI1 Filter and Polarity */
      TIM_TI1_ConfigInputStage(htim->Instance,
 8005d7a:	687b      	ldr	r3, [r7, #4]
 8005d7c:	6818      	ldr	r0, [r3, #0]
 8005d7e:	683b      	ldr	r3, [r7, #0]
 8005d80:	6899      	ldr	r1, [r3, #8]
 8005d82:	683b      	ldr	r3, [r7, #0]
 8005d84:	691b      	ldr	r3, [r3, #16]
 8005d86:	461a      	mov	r2, r3
 8005d88:	f000 f826 	bl	8005dd8 <TIM_TI1_ConfigInputStage>
                               sSlaveConfig->TriggerPolarity,
                               sSlaveConfig->TriggerFilter);
      break;
 8005d8c:	e00d      	b.n	8005daa <TIM_SlaveTimer_SetConfig+0x1a6>
      assert_param(IS_TIM_CC2_INSTANCE(htim->Instance));
      assert_param(IS_TIM_TRIGGERPOLARITY(sSlaveConfig->TriggerPolarity));
      assert_param(IS_TIM_TRIGGERFILTER(sSlaveConfig->TriggerFilter));

      /* Configure TI2 Filter and Polarity */
      TIM_TI2_ConfigInputStage(htim->Instance,
 8005d8e:	687b      	ldr	r3, [r7, #4]
 8005d90:	6818      	ldr	r0, [r3, #0]
 8005d92:	683b      	ldr	r3, [r7, #0]
 8005d94:	6899      	ldr	r1, [r3, #8]
 8005d96:	683b      	ldr	r3, [r7, #0]
 8005d98:	691b      	ldr	r3, [r3, #16]
 8005d9a:	461a      	mov	r2, r3
 8005d9c:	f000 f84b 	bl	8005e36 <TIM_TI2_ConfigInputStage>
                               sSlaveConfig->TriggerPolarity,
                               sSlaveConfig->TriggerFilter);
      break;
 8005da0:	e003      	b.n	8005daa <TIM_SlaveTimer_SetConfig+0x1a6>
      assert_param(IS_TIM_CC2_INSTANCE(htim->Instance));
      break;
    }

    default:
      status = HAL_ERROR;
 8005da2:	2301      	movs	r3, #1
 8005da4:	75fb      	strb	r3, [r7, #23]
      break;
 8005da6:	e000      	b.n	8005daa <TIM_SlaveTimer_SetConfig+0x1a6>
      break;
 8005da8:	bf00      	nop
  }

  return status;
 8005daa:	7dfb      	ldrb	r3, [r7, #23]
}
 8005dac:	4618      	mov	r0, r3
 8005dae:	3718      	adds	r7, #24
 8005db0:	46bd      	mov	sp, r7
 8005db2:	bd80      	pop	{r7, pc}
 8005db4:	ffcfff8f 	.word	0xffcfff8f
 8005db8:	fffefff8 	.word	0xfffefff8
 8005dbc:	00200010 	.word	0x00200010
 8005dc0:	00100070 	.word	0x00100070
 8005dc4:	00100060 	.word	0x00100060
 8005dc8:	00100050 	.word	0x00100050
 8005dcc:	00100040 	.word	0x00100040
 8005dd0:	00100030 	.word	0x00100030
 8005dd4:	00100020 	.word	0x00100020

08005dd8 <TIM_TI1_ConfigInputStage>:
  * @param  TIM_ICFilter Specifies the Input Capture Filter.
  *          This parameter must be a value between 0x00 and 0x0F.
  * @retval None
  */
static void TIM_TI1_ConfigInputStage(TIM_TypeDef *TIMx, uint32_t TIM_ICPolarity, uint32_t TIM_ICFilter)
{
 8005dd8:	b480      	push	{r7}
 8005dda:	b087      	sub	sp, #28
 8005ddc:	af00      	add	r7, sp, #0
 8005dde:	60f8      	str	r0, [r7, #12]
 8005de0:	60b9      	str	r1, [r7, #8]
 8005de2:	607a      	str	r2, [r7, #4]
  uint32_t tmpccmr1;
  uint32_t tmpccer;

  /* Disable the Channel 1: Reset the CC1E Bit */
  tmpccer = TIMx->CCER;
 8005de4:	68fb      	ldr	r3, [r7, #12]
 8005de6:	6a1b      	ldr	r3, [r3, #32]
 8005de8:	617b      	str	r3, [r7, #20]
  TIMx->CCER &= ~TIM_CCER_CC1E;
 8005dea:	68fb      	ldr	r3, [r7, #12]
 8005dec:	6a1b      	ldr	r3, [r3, #32]
 8005dee:	f023 0201 	bic.w	r2, r3, #1
 8005df2:	68fb      	ldr	r3, [r7, #12]
 8005df4:	621a      	str	r2, [r3, #32]
  tmpccmr1 = TIMx->CCMR1;
 8005df6:	68fb      	ldr	r3, [r7, #12]
 8005df8:	699b      	ldr	r3, [r3, #24]
 8005dfa:	613b      	str	r3, [r7, #16]

  /* Set the filter */
  tmpccmr1 &= ~TIM_CCMR1_IC1F;
 8005dfc:	693b      	ldr	r3, [r7, #16]
 8005dfe:	f023 03f0 	bic.w	r3, r3, #240	; 0xf0
 8005e02:	613b      	str	r3, [r7, #16]
  tmpccmr1 |= (TIM_ICFilter << 4U);
 8005e04:	687b      	ldr	r3, [r7, #4]
 8005e06:	011b      	lsls	r3, r3, #4
 8005e08:	693a      	ldr	r2, [r7, #16]
 8005e0a:	4313      	orrs	r3, r2
 8005e0c:	613b      	str	r3, [r7, #16]

  /* Select the Polarity and set the CC1E Bit */
  tmpccer &= ~(TIM_CCER_CC1P | TIM_CCER_CC1NP);
 8005e0e:	697b      	ldr	r3, [r7, #20]
 8005e10:	f023 030a 	bic.w	r3, r3, #10
 8005e14:	617b      	str	r3, [r7, #20]
  tmpccer |= TIM_ICPolarity;
 8005e16:	697a      	ldr	r2, [r7, #20]
 8005e18:	68bb      	ldr	r3, [r7, #8]
 8005e1a:	4313      	orrs	r3, r2
 8005e1c:	617b      	str	r3, [r7, #20]

  /* Write to TIMx CCMR1 and CCER registers */
  TIMx->CCMR1 = tmpccmr1;
 8005e1e:	68fb      	ldr	r3, [r7, #12]
 8005e20:	693a      	ldr	r2, [r7, #16]
 8005e22:	619a      	str	r2, [r3, #24]
  TIMx->CCER = tmpccer;
 8005e24:	68fb      	ldr	r3, [r7, #12]
 8005e26:	697a      	ldr	r2, [r7, #20]
 8005e28:	621a      	str	r2, [r3, #32]
}
 8005e2a:	bf00      	nop
 8005e2c:	371c      	adds	r7, #28
 8005e2e:	46bd      	mov	sp, r7
 8005e30:	f85d 7b04 	ldr.w	r7, [sp], #4
 8005e34:	4770      	bx	lr

08005e36 <TIM_TI2_ConfigInputStage>:
  * @param  TIM_ICFilter Specifies the Input Capture Filter.
  *          This parameter must be a value between 0x00 and 0x0F.
  * @retval None
  */
static void TIM_TI2_ConfigInputStage(TIM_TypeDef *TIMx, uint32_t TIM_ICPolarity, uint32_t TIM_ICFilter)
{
 8005e36:	b480      	push	{r7}
 8005e38:	b087      	sub	sp, #28
 8005e3a:	af00      	add	r7, sp, #0
 8005e3c:	60f8      	str	r0, [r7, #12]
 8005e3e:	60b9      	str	r1, [r7, #8]
 8005e40:	607a      	str	r2, [r7, #4]
  uint32_t tmpccmr1;
  uint32_t tmpccer;

  /* Disable the Channel 2: Reset the CC2E Bit */
  TIMx->CCER &= ~TIM_CCER_CC2E;
 8005e42:	68fb      	ldr	r3, [r7, #12]
 8005e44:	6a1b      	ldr	r3, [r3, #32]
 8005e46:	f023 0210 	bic.w	r2, r3, #16
 8005e4a:	68fb      	ldr	r3, [r7, #12]
 8005e4c:	621a      	str	r2, [r3, #32]
  tmpccmr1 = TIMx->CCMR1;
 8005e4e:	68fb      	ldr	r3, [r7, #12]
 8005e50:	699b      	ldr	r3, [r3, #24]
 8005e52:	617b      	str	r3, [r7, #20]
  tmpccer = TIMx->CCER;
 8005e54:	68fb      	ldr	r3, [r7, #12]
 8005e56:	6a1b      	ldr	r3, [r3, #32]
 8005e58:	613b      	str	r3, [r7, #16]

  /* Set the filter */
  tmpccmr1 &= ~TIM_CCMR1_IC2F;
 8005e5a:	697b      	ldr	r3, [r7, #20]
 8005e5c:	f423 4370 	bic.w	r3, r3, #61440	; 0xf000
 8005e60:	617b      	str	r3, [r7, #20]
  tmpccmr1 |= (TIM_ICFilter << 12U);
 8005e62:	687b      	ldr	r3, [r7, #4]
 8005e64:	031b      	lsls	r3, r3, #12
 8005e66:	697a      	ldr	r2, [r7, #20]
 8005e68:	4313      	orrs	r3, r2
 8005e6a:	617b      	str	r3, [r7, #20]

  /* Select the Polarity and set the CC2E Bit */
  tmpccer &= ~(TIM_CCER_CC2P | TIM_CCER_CC2NP);
 8005e6c:	693b      	ldr	r3, [r7, #16]
 8005e6e:	f023 03a0 	bic.w	r3, r3, #160	; 0xa0
 8005e72:	613b      	str	r3, [r7, #16]
  tmpccer |= (TIM_ICPolarity << 4U);
 8005e74:	68bb      	ldr	r3, [r7, #8]
 8005e76:	011b      	lsls	r3, r3, #4
 8005e78:	693a      	ldr	r2, [r7, #16]
 8005e7a:	4313      	orrs	r3, r2
 8005e7c:	613b      	str	r3, [r7, #16]

  /* Write to TIMx CCMR1 and CCER registers */
  TIMx->CCMR1 = tmpccmr1 ;
 8005e7e:	68fb      	ldr	r3, [r7, #12]
 8005e80:	697a      	ldr	r2, [r7, #20]
 8005e82:	619a      	str	r2, [r3, #24]
  TIMx->CCER = tmpccer;
 8005e84:	68fb      	ldr	r3, [r7, #12]
 8005e86:	693a      	ldr	r2, [r7, #16]
 8005e88:	621a      	str	r2, [r3, #32]
}
 8005e8a:	bf00      	nop
 8005e8c:	371c      	adds	r7, #28
 8005e8e:	46bd      	mov	sp, r7
 8005e90:	f85d 7b04 	ldr.w	r7, [sp], #4
 8005e94:	4770      	bx	lr

08005e96 <TIM_ETR_SetConfig>:
  *          This parameter must be a value between 0x00 and 0x0F
  * @retval None
  */
void TIM_ETR_SetConfig(TIM_TypeDef *TIMx, uint32_t TIM_ExtTRGPrescaler,
                       uint32_t TIM_ExtTRGPolarity, uint32_t ExtTRGFilter)
{
 8005e96:	b480      	push	{r7}
 8005e98:	b087      	sub	sp, #28
 8005e9a:	af00      	add	r7, sp, #0
 8005e9c:	60f8      	str	r0, [r7, #12]
 8005e9e:	60b9      	str	r1, [r7, #8]
 8005ea0:	607a      	str	r2, [r7, #4]
 8005ea2:	603b      	str	r3, [r7, #0]
  uint32_t tmpsmcr;

  tmpsmcr = TIMx->SMCR;
 8005ea4:	68fb      	ldr	r3, [r7, #12]
 8005ea6:	689b      	ldr	r3, [r3, #8]
 8005ea8:	617b      	str	r3, [r7, #20]

  /* Reset the ETR Bits */
  tmpsmcr &= ~(TIM_SMCR_ETF | TIM_SMCR_ETPS | TIM_SMCR_ECE | TIM_SMCR_ETP);
 8005eaa:	697b      	ldr	r3, [r7, #20]
 8005eac:	f423 437f 	bic.w	r3, r3, #65280	; 0xff00
 8005eb0:	617b      	str	r3, [r7, #20]

  /* Set the Prescaler, the Filter value and the Polarity */
  tmpsmcr |= (uint32_t)(TIM_ExtTRGPrescaler | (TIM_ExtTRGPolarity | (ExtTRGFilter << 8U)));
 8005eb2:	683b      	ldr	r3, [r7, #0]
 8005eb4:	021a      	lsls	r2, r3, #8
 8005eb6:	687b      	ldr	r3, [r7, #4]
 8005eb8:	431a      	orrs	r2, r3
 8005eba:	68bb      	ldr	r3, [r7, #8]
 8005ebc:	4313      	orrs	r3, r2
 8005ebe:	697a      	ldr	r2, [r7, #20]
 8005ec0:	4313      	orrs	r3, r2
 8005ec2:	617b      	str	r3, [r7, #20]

  /* Write to TIMx SMCR */
  TIMx->SMCR = tmpsmcr;
 8005ec4:	68fb      	ldr	r3, [r7, #12]
 8005ec6:	697a      	ldr	r2, [r7, #20]
 8005ec8:	609a      	str	r2, [r3, #8]
}
 8005eca:	bf00      	nop
 8005ecc:	371c      	adds	r7, #28
 8005ece:	46bd      	mov	sp, r7
 8005ed0:	f85d 7b04 	ldr.w	r7, [sp], #4
 8005ed4:	4770      	bx	lr
	...

08005ed8 <HAL_TIMEx_MasterConfigSynchronization>:
  *         mode.
  * @retval HAL status
  */
HAL_StatusTypeDef HAL_TIMEx_MasterConfigSynchronization(TIM_HandleTypeDef *htim,
                                                        TIM_MasterConfigTypeDef *sMasterConfig)
{
 8005ed8:	b480      	push	{r7}
 8005eda:	b085      	sub	sp, #20
 8005edc:	af00      	add	r7, sp, #0
 8005ede:	6078      	str	r0, [r7, #4]
 8005ee0:	6039      	str	r1, [r7, #0]
  assert_param(IS_TIM_MASTER_INSTANCE(htim->Instance));
  assert_param(IS_TIM_TRGO_SOURCE(sMasterConfig->MasterOutputTrigger));
  assert_param(IS_TIM_MSM_STATE(sMasterConfig->MasterSlaveMode));

  /* Check input state */
  __HAL_LOCK(htim);
 8005ee2:	687b      	ldr	r3, [r7, #4]
 8005ee4:	f893 303c 	ldrb.w	r3, [r3, #60]	; 0x3c
 8005ee8:	2b01      	cmp	r3, #1
 8005eea:	d101      	bne.n	8005ef0 <HAL_TIMEx_MasterConfigSynchronization+0x18>
 8005eec:	2302      	movs	r3, #2
 8005eee:	e06d      	b.n	8005fcc <HAL_TIMEx_MasterConfigSynchronization+0xf4>
 8005ef0:	687b      	ldr	r3, [r7, #4]
 8005ef2:	2201      	movs	r2, #1
 8005ef4:	f883 203c 	strb.w	r2, [r3, #60]	; 0x3c

  /* Change the handler state */
  htim->State = HAL_TIM_STATE_BUSY;
 8005ef8:	687b      	ldr	r3, [r7, #4]
 8005efa:	2202      	movs	r2, #2
 8005efc:	f883 203d 	strb.w	r2, [r3, #61]	; 0x3d

  /* Get the TIMx CR2 register value */
  tmpcr2 = htim->Instance->CR2;
 8005f00:	687b      	ldr	r3, [r7, #4]
 8005f02:	681b      	ldr	r3, [r3, #0]
 8005f04:	685b      	ldr	r3, [r3, #4]
 8005f06:	60fb      	str	r3, [r7, #12]

  /* Get the TIMx SMCR register value */
  tmpsmcr = htim->Instance->SMCR;
 8005f08:	687b      	ldr	r3, [r7, #4]
 8005f0a:	681b      	ldr	r3, [r3, #0]
 8005f0c:	689b      	ldr	r3, [r3, #8]
 8005f0e:	60bb      	str	r3, [r7, #8]

  /* If the timer supports ADC synchronization through TRGO2, set the master mode selection 2 */
  if (IS_TIM_TRGO2_INSTANCE(htim->Instance))
 8005f10:	687b      	ldr	r3, [r7, #4]
 8005f12:	681b      	ldr	r3, [r3, #0]
 8005f14:	4a30      	ldr	r2, [pc, #192]	; (8005fd8 <HAL_TIMEx_MasterConfigSynchronization+0x100>)
 8005f16:	4293      	cmp	r3, r2
 8005f18:	d004      	beq.n	8005f24 <HAL_TIMEx_MasterConfigSynchronization+0x4c>
 8005f1a:	687b      	ldr	r3, [r7, #4]
 8005f1c:	681b      	ldr	r3, [r3, #0]
 8005f1e:	4a2f      	ldr	r2, [pc, #188]	; (8005fdc <HAL_TIMEx_MasterConfigSynchronization+0x104>)
 8005f20:	4293      	cmp	r3, r2
 8005f22:	d108      	bne.n	8005f36 <HAL_TIMEx_MasterConfigSynchronization+0x5e>
  {
    /* Check the parameters */
    assert_param(IS_TIM_TRGO2_SOURCE(sMasterConfig->MasterOutputTrigger2));

    /* Clear the MMS2 bits */
    tmpcr2 &= ~TIM_CR2_MMS2;
 8005f24:	68fb      	ldr	r3, [r7, #12]
 8005f26:	f423 0370 	bic.w	r3, r3, #15728640	; 0xf00000
 8005f2a:	60fb      	str	r3, [r7, #12]
    /* Select the TRGO2 source*/
    tmpcr2 |= sMasterConfig->MasterOutputTrigger2;
 8005f2c:	683b      	ldr	r3, [r7, #0]
 8005f2e:	685b      	ldr	r3, [r3, #4]
 8005f30:	68fa      	ldr	r2, [r7, #12]
 8005f32:	4313      	orrs	r3, r2
 8005f34:	60fb      	str	r3, [r7, #12]
  }

  /* Reset the MMS Bits */
  tmpcr2 &= ~TIM_CR2_MMS;
 8005f36:	68fb      	ldr	r3, [r7, #12]
 8005f38:	f023 0370 	bic.w	r3, r3, #112	; 0x70
 8005f3c:	60fb      	str	r3, [r7, #12]
  /* Select the TRGO source */
  tmpcr2 |=  sMasterConfig->MasterOutputTrigger;
 8005f3e:	683b      	ldr	r3, [r7, #0]
 8005f40:	681b      	ldr	r3, [r3, #0]
 8005f42:	68fa      	ldr	r2, [r7, #12]
 8005f44:	4313      	orrs	r3, r2
 8005f46:	60fb      	str	r3, [r7, #12]

  /* Update TIMx CR2 */
  htim->Instance->CR2 = tmpcr2;
 8005f48:	687b      	ldr	r3, [r7, #4]
 8005f4a:	681b      	ldr	r3, [r3, #0]
 8005f4c:	68fa      	ldr	r2, [r7, #12]
 8005f4e:	605a      	str	r2, [r3, #4]

  if (IS_TIM_SLAVE_INSTANCE(htim->Instance))
 8005f50:	687b      	ldr	r3, [r7, #4]
 8005f52:	681b      	ldr	r3, [r3, #0]
 8005f54:	4a20      	ldr	r2, [pc, #128]	; (8005fd8 <HAL_TIMEx_MasterConfigSynchronization+0x100>)
 8005f56:	4293      	cmp	r3, r2
 8005f58:	d022      	beq.n	8005fa0 <HAL_TIMEx_MasterConfigSynchronization+0xc8>
 8005f5a:	687b      	ldr	r3, [r7, #4]
 8005f5c:	681b      	ldr	r3, [r3, #0]
 8005f5e:	f1b3 4f80 	cmp.w	r3, #1073741824	; 0x40000000
 8005f62:	d01d      	beq.n	8005fa0 <HAL_TIMEx_MasterConfigSynchronization+0xc8>
 8005f64:	687b      	ldr	r3, [r7, #4]
 8005f66:	681b      	ldr	r3, [r3, #0]
 8005f68:	4a1d      	ldr	r2, [pc, #116]	; (8005fe0 <HAL_TIMEx_MasterConfigSynchronization+0x108>)
 8005f6a:	4293      	cmp	r3, r2
 8005f6c:	d018      	beq.n	8005fa0 <HAL_TIMEx_MasterConfigSynchronization+0xc8>
 8005f6e:	687b      	ldr	r3, [r7, #4]
 8005f70:	681b      	ldr	r3, [r3, #0]
 8005f72:	4a1c      	ldr	r2, [pc, #112]	; (8005fe4 <HAL_TIMEx_MasterConfigSynchronization+0x10c>)
 8005f74:	4293      	cmp	r3, r2
 8005f76:	d013      	beq.n	8005fa0 <HAL_TIMEx_MasterConfigSynchronization+0xc8>
 8005f78:	687b      	ldr	r3, [r7, #4]
 8005f7a:	681b      	ldr	r3, [r3, #0]
 8005f7c:	4a1a      	ldr	r2, [pc, #104]	; (8005fe8 <HAL_TIMEx_MasterConfigSynchronization+0x110>)
 8005f7e:	4293      	cmp	r3, r2
 8005f80:	d00e      	beq.n	8005fa0 <HAL_TIMEx_MasterConfigSynchronization+0xc8>
 8005f82:	687b      	ldr	r3, [r7, #4]
 8005f84:	681b      	ldr	r3, [r3, #0]
 8005f86:	4a15      	ldr	r2, [pc, #84]	; (8005fdc <HAL_TIMEx_MasterConfigSynchronization+0x104>)
 8005f88:	4293      	cmp	r3, r2
 8005f8a:	d009      	beq.n	8005fa0 <HAL_TIMEx_MasterConfigSynchronization+0xc8>
 8005f8c:	687b      	ldr	r3, [r7, #4]
 8005f8e:	681b      	ldr	r3, [r3, #0]
 8005f90:	4a16      	ldr	r2, [pc, #88]	; (8005fec <HAL_TIMEx_MasterConfigSynchronization+0x114>)
 8005f92:	4293      	cmp	r3, r2
 8005f94:	d004      	beq.n	8005fa0 <HAL_TIMEx_MasterConfigSynchronization+0xc8>
 8005f96:	687b      	ldr	r3, [r7, #4]
 8005f98:	681b      	ldr	r3, [r3, #0]
 8005f9a:	4a15      	ldr	r2, [pc, #84]	; (8005ff0 <HAL_TIMEx_MasterConfigSynchronization+0x118>)
 8005f9c:	4293      	cmp	r3, r2
 8005f9e:	d10c      	bne.n	8005fba <HAL_TIMEx_MasterConfigSynchronization+0xe2>
  {
    /* Reset the MSM Bit */
    tmpsmcr &= ~TIM_SMCR_MSM;
 8005fa0:	68bb      	ldr	r3, [r7, #8]
 8005fa2:	f023 0380 	bic.w	r3, r3, #128	; 0x80
 8005fa6:	60bb      	str	r3, [r7, #8]
    /* Set master mode */
    tmpsmcr |= sMasterConfig->MasterSlaveMode;
 8005fa8:	683b      	ldr	r3, [r7, #0]
 8005faa:	689b      	ldr	r3, [r3, #8]
 8005fac:	68ba      	ldr	r2, [r7, #8]
 8005fae:	4313      	orrs	r3, r2
 8005fb0:	60bb      	str	r3, [r7, #8]

    /* Update TIMx SMCR */
    htim->Instance->SMCR = tmpsmcr;
 8005fb2:	687b      	ldr	r3, [r7, #4]
 8005fb4:	681b      	ldr	r3, [r3, #0]
 8005fb6:	68ba      	ldr	r2, [r7, #8]
 8005fb8:	609a      	str	r2, [r3, #8]
  }

  /* Change the htim state */
  htim->State = HAL_TIM_STATE_READY;
 8005fba:	687b      	ldr	r3, [r7, #4]
 8005fbc:	2201      	movs	r2, #1
 8005fbe:	f883 203d 	strb.w	r2, [r3, #61]	; 0x3d

  __HAL_UNLOCK(htim);
 8005fc2:	687b      	ldr	r3, [r7, #4]
 8005fc4:	2200      	movs	r2, #0
 8005fc6:	f883 203c 	strb.w	r2, [r3, #60]	; 0x3c

  return HAL_OK;
 8005fca:	2300      	movs	r3, #0
}
 8005fcc:	4618      	mov	r0, r3
 8005fce:	3714      	adds	r7, #20
 8005fd0:	46bd      	mov	sp, r7
 8005fd2:	f85d 7b04 	ldr.w	r7, [sp], #4
 8005fd6:	4770      	bx	lr
 8005fd8:	40010000 	.word	0x40010000
 8005fdc:	40010400 	.word	0x40010400
 8005fe0:	40000400 	.word	0x40000400
 8005fe4:	40000800 	.word	0x40000800
 8005fe8:	40000c00 	.word	0x40000c00
 8005fec:	40001800 	.word	0x40001800
 8005ff0:	40014000 	.word	0x40014000

08005ff4 <HAL_TIMEx_RemapConfig>:
  *         (*)  Value not defined in all devices.
  *
  * @retval HAL status
  */
HAL_StatusTypeDef HAL_TIMEx_RemapConfig(TIM_HandleTypeDef *htim, uint32_t Remap)
{
 8005ff4:	b480      	push	{r7}
 8005ff6:	b083      	sub	sp, #12
 8005ff8:	af00      	add	r7, sp, #0
 8005ffa:	6078      	str	r0, [r7, #4]
 8005ffc:	6039      	str	r1, [r7, #0]
  /* Check parameters */
  assert_param(IS_TIM_REMAP_INSTANCE(htim->Instance));
  assert_param(IS_TIM_REMAP(Remap));

  __HAL_LOCK(htim);
 8005ffe:	687b      	ldr	r3, [r7, #4]
 8006000:	f893 303c 	ldrb.w	r3, [r3, #60]	; 0x3c
 8006004:	2b01      	cmp	r3, #1
 8006006:	d101      	bne.n	800600c <HAL_TIMEx_RemapConfig+0x18>
 8006008:	2302      	movs	r3, #2
 800600a:	e012      	b.n	8006032 <HAL_TIMEx_RemapConfig+0x3e>
 800600c:	687b      	ldr	r3, [r7, #4]
 800600e:	2201      	movs	r2, #1
 8006010:	f883 203c 	strb.w	r2, [r3, #60]	; 0x3c

  MODIFY_REG(htim->Instance->AF1, TIM1_AF1_ETRSEL_Msk, Remap);
 8006014:	687b      	ldr	r3, [r7, #4]
 8006016:	681b      	ldr	r3, [r3, #0]
 8006018:	6e1b      	ldr	r3, [r3, #96]	; 0x60
 800601a:	f423 3170 	bic.w	r1, r3, #245760	; 0x3c000
 800601e:	687b      	ldr	r3, [r7, #4]
 8006020:	681b      	ldr	r3, [r3, #0]
 8006022:	683a      	ldr	r2, [r7, #0]
 8006024:	430a      	orrs	r2, r1
 8006026:	661a      	str	r2, [r3, #96]	; 0x60

  __HAL_UNLOCK(htim);
 8006028:	687b      	ldr	r3, [r7, #4]
 800602a:	2200      	movs	r2, #0
 800602c:	f883 203c 	strb.w	r2, [r3, #60]	; 0x3c

  return HAL_OK;
 8006030:	2300      	movs	r3, #0
}
 8006032:	4618      	mov	r0, r3
 8006034:	370c      	adds	r7, #12
 8006036:	46bd      	mov	sp, r7
 8006038:	f85d 7b04 	ldr.w	r7, [sp], #4
 800603c:	4770      	bx	lr
	...

08006040 <__libc_init_array>:
 8006040:	b570      	push	{r4, r5, r6, lr}
 8006042:	4d0d      	ldr	r5, [pc, #52]	; (8006078 <__libc_init_array+0x38>)
 8006044:	4c0d      	ldr	r4, [pc, #52]	; (800607c <__libc_init_array+0x3c>)
 8006046:	1b64      	subs	r4, r4, r5
 8006048:	10a4      	asrs	r4, r4, #2
 800604a:	2600      	movs	r6, #0
 800604c:	42a6      	cmp	r6, r4
 800604e:	d109      	bne.n	8006064 <__libc_init_array+0x24>
 8006050:	4d0b      	ldr	r5, [pc, #44]	; (8006080 <__libc_init_array+0x40>)
 8006052:	4c0c      	ldr	r4, [pc, #48]	; (8006084 <__libc_init_array+0x44>)
 8006054:	f000 f820 	bl	8006098 <_init>
 8006058:	1b64      	subs	r4, r4, r5
 800605a:	10a4      	asrs	r4, r4, #2
 800605c:	2600      	movs	r6, #0
 800605e:	42a6      	cmp	r6, r4
 8006060:	d105      	bne.n	800606e <__libc_init_array+0x2e>
 8006062:	bd70      	pop	{r4, r5, r6, pc}
 8006064:	f855 3b04 	ldr.w	r3, [r5], #4
 8006068:	4798      	blx	r3
 800606a:	3601      	adds	r6, #1
 800606c:	e7ee      	b.n	800604c <__libc_init_array+0xc>
 800606e:	f855 3b04 	ldr.w	r3, [r5], #4
 8006072:	4798      	blx	r3
 8006074:	3601      	adds	r6, #1
 8006076:	e7f2      	b.n	800605e <__libc_init_array+0x1e>
 8006078:	080060c0 	.word	0x080060c0
 800607c:	080060c0 	.word	0x080060c0
 8006080:	080060c0 	.word	0x080060c0
 8006084:	080060c4 	.word	0x080060c4

08006088 <memset>:
 8006088:	4402      	add	r2, r0
 800608a:	4603      	mov	r3, r0
 800608c:	4293      	cmp	r3, r2
 800608e:	d100      	bne.n	8006092 <memset+0xa>
 8006090:	4770      	bx	lr
 8006092:	f803 1b01 	strb.w	r1, [r3], #1
 8006096:	e7f9      	b.n	800608c <memset+0x4>

08006098 <_init>:
 8006098:	b5f8      	push	{r3, r4, r5, r6, r7, lr}
 800609a:	bf00      	nop
 800609c:	bcf8      	pop	{r3, r4, r5, r6, r7}
 800609e:	bc08      	pop	{r3}
 80060a0:	469e      	mov	lr, r3
 80060a2:	4770      	bx	lr

080060a4 <_fini>:
 80060a4:	b5f8      	push	{r3, r4, r5, r6, r7, lr}
 80060a6:	bf00      	nop
 80060a8:	bcf8      	pop	{r3, r4, r5, r6, r7}
 80060aa:	bc08      	pop	{r3}
 80060ac:	469e      	mov	lr, r3
 80060ae:	4770      	bx	lr
